 reducetostream

 Timestamp is 456e22cb (Wed Nov 29 16:16:11 2006)

 Preferred load address is 00400000

 Start         Length     Name                   Class
 0001:00000000 0005aa94H .text                   CODE
 0001:0005aaa0 0000338dH .text$x                 CODE
 0001:0005de30 00007ed7H .text$yc                CODE
 0001:00065d10 0000043cH .text$yd                CODE
 0002:00000000 00000238H .idata$5                DATA
 0002:00000238 00000004H .CRT$XCA                DATA
 0002:0000023c 0000001cH .CRT$XCC                DATA
 0002:00000258 00000048H .CRT$XCU                DATA
 0002:000002a0 00000004H .CRT$XCZ                DATA
 0002:000002a4 00000004H .CRT$XIA                DATA
 0002:000002a8 00000014H .CRT$XIC                DATA
 0002:000002bc 00000004H .CRT$XID                DATA
 0002:000002c0 00000004H .CRT$XIY                DATA
 0002:000002c4 00000004H .CRT$XIZ                DATA
 0002:000002c8 00000004H .CRT$XPA                DATA
 0002:000002cc 00000004H .CRT$XPX                DATA
 0002:000002d0 00000004H .CRT$XPXA               DATA
 0002:000002d4 00000004H .CRT$XPZ                DATA
 0002:000002d8 00000004H .CRT$XTA                DATA
 0002:000002dc 00000004H .CRT$XTB                DATA
 0002:000002e0 00000004H .CRT$XTZ                DATA
 0002:000002f0 00019360H .rdata                  DATA
 0002:00019650 00000038H .rdata$debug            DATA
 0002:00019688 0000154cH .rdata$r                DATA
 0002:0001abe0 00000318H .rdata$sxdata           DATA
 0002:0001aef8 00000004H .rtc$IAA                DATA
 0002:0001aefc 00000004H .rtc$IZZ                DATA
 0002:0001af00 00000004H .rtc$TAA                DATA
 0002:0001af04 00000004H .rtc$TZZ                DATA
 0002:0001af08 0000465cH .xdata$x                DATA
 0002:0001f564 00000078H .idata$2                DATA
 0002:0001f5dc 00000014H .idata$3                DATA
 0002:0001f5f0 00000238H .idata$4                DATA
 0002:0001f828 000009a6H .idata$6                DATA
 0002:000201ce 00000000H .edata                  DATA
 0003:00000000 0000240cH .data                   DATA
 0003:00002420 000021c8H .bss                    DATA

  Address         Publics by Value              Rva+Base       Lib:Object

 0000:00000000       __except_list              00000000     <absolute>
 0000:000000c6       ___safe_se_handler_count   000000c6     <absolute>
 0000:00000000       ___ImageBase               00400000     <linker-defined>
 0001:00000000       ?assign@?$char_traits@D@std@@SAXAADABD@Z 00401000 f i reducetostream.obj
 0001:00000010       ?length@?$char_traits@D@std@@SAIPBD@Z 00401010 f i reducetostream.obj
 0001:00000030       ?_Copy_s@?$char_traits@D@std@@SAPADPADIPBDI@Z 00401030 f i reducetostream.obj
 0001:00000060       ?_Move_s@?$char_traits@D@std@@SAPADPADIPBDI@Z 00401060 f i reducetostream.obj
 0001:00000090       ??0_Iterator_base@std@@QAE@XZ 00401090 f i reducetostream.obj
 0001:000000a0       ??0bad_alloc@std@@QAE@PBD@Z 004010a0 f i reducetostream.obj
 0001:000000c0       ??1bad_alloc@std@@UAE@XZ   004010c0 f i reducetostream.obj
 0001:000000d0       ??_Ebad_alloc@std@@UAEPAXI@Z 004010d0 f i reducetostream.obj
 0001:000000d0       ??_Gbad_alloc@std@@UAEPAXI@Z 004010d0 f i reducetostream.obj
 0001:00000100       ??2@YAPAXIPAX@Z            00401100 f i reducetostream.obj
 0001:00000110       ??3@YAXPAX0@Z              00401110 f i reducetostream.obj
 0001:00000120       ??0gpu_input_desc@desc@brook@@QAE@HH@Z 00401120 f i reducetostream.obj
 0001:00000140       ?reduction_factor@gpu_technique_desc@desc@brook@@QAEAAV123@H@Z 00401140 f i reducetostream.obj
 0001:00000150       ??0id@locale@std@@QAE@I@Z  00401150 f i reducetostream.obj
 0001:00000160       _logf                      00401160 f i reducetostream.obj
 0001:00000180       ?log@@YAMM@Z               00401180 f i reducetostream.obj
 0001:000001a0       ?getAt@?$Holder@M@@SAMMH@Z 004011a0 f i reducetostream.obj
 0001:000001b0       ??0float4@@QAE@MMMM@Z      004011b0 f i reducetostream.obj
 0001:000001e0       ??0float4@@QAE@XZ          004011e0 f i reducetostream.obj
 0001:000001f0       ??$getStreamType@M@brook@@YAPBW4StreamType@0@PAM@Z 004011f0 f i reducetostream.obj
 0001:00000200       ??$getStreamType@Ufloat4@@@brook@@YAPBW4StreamType@0@PAUfloat4@@@Z 00401200 f i reducetostream.obj
 0001:00000210       ??Bstream@brook@@QBEPAVStream@1@XZ 00401210 f i reducetostream.obj
 0001:00000220       ??1kernel@brook@@QAE@XZ    00401220 f i reducetostream.obj
 0001:00000230       ??Ckernel@brook@@QBEPAVKernel@1@XZ 00401230 f i reducetostream.obj
 0001:00000260       ??$__BRTReductionType@Vstream@brook@@@@YA?AW4StreamType@brook@@PBVstream@1@@Z 00401260 f i reducetostream.obj
 0001:00000270       ??$__BRTReductionType@Ufloat4@@@@YA?AW4StreamType@brook@@PBUfloat4@@@Z 00401270 f i reducetostream.obj
 0001:00000280       ?__printf_cpu_inner@@YAXM@Z 00401280 f   reducetostream.obj
 0001:000002a0       ??_H@YGXPAXIHP6EPAX0@Z@Z   004012a0 f i reducetostream.obj
 0001:000002e0       ?size@?$basic_string@DU?$char_traits@D@std@@V?$allocator@D@2@@std@@QBEIXZ 004012e0 f i reducetostream.obj
 0001:000002f0       ?unsafeGetAt@?$vec@M$03@@QBEABMI@Z 004012f0 f i reducetostream.obj
 0001:00000300       ?unsafeGetAt@?$vec@M$03@@QAEAAMI@Z 00401300 f i reducetostream.obj
 0001:00000310       ??0?$vec@M$03@@QAE@XZ      00401310 f i reducetostream.obj
 0001:00000320       ?_Myptr@?$basic_string@DU?$char_traits@D@std@@V?$allocator@D@2@@std@@IBEPBDXZ 00401320 f i reducetostream.obj
 0001:00000330       ??0?$allocator@D@std@@QAE@XZ 00401330 f i reducetostream.obj
 0001:00000340       ??0?$allocator@D@std@@QAE@ABV01@@Z 00401340 f i reducetostream.obj
 0001:00000350       ?capacity@?$vector@Vgpu_input_desc@desc@brook@@V?$allocator@Vgpu_input_desc@desc@brook@@@std@@@std@@QBEIXZ 00401350 f i reducetostream.obj
 0001:00000370       ?size@?$vector@Vgpu_input_desc@desc@brook@@V?$allocator@Vgpu_input_desc@desc@brook@@@std@@@std@@QBEIXZ 00401370 f i reducetostream.obj
 0001:00000390       ??0?$allocator@Vgpu_input_desc@desc@brook@@@std@@QAE@XZ 00401390 f i reducetostream.obj
 0001:000003a0       ?capacity@?$vector@Vgpu_pass_desc@desc@brook@@V?$allocator@Vgpu_pass_desc@desc@brook@@@std@@@std@@QBEIXZ 004013a0 f i reducetostream.obj
 0001:000003c0       ?size@?$vector@Vgpu_pass_desc@desc@brook@@V?$allocator@Vgpu_pass_desc@desc@brook@@@std@@@std@@QBEIXZ 004013c0 f i reducetostream.obj
 0001:000003e0       ??0?$allocator@Vgpu_pass_desc@desc@brook@@@std@@QAE@XZ 004013e0 f i reducetostream.obj
 0001:000003f0       ?capacity@?$vector@Vgpu_technique_desc@desc@brook@@V?$allocator@Vgpu_technique_desc@desc@brook@@@std@@@std@@QBEIXZ 004013f0 f i reducetostream.obj
 0001:00000420       ?size@?$vector@Vgpu_technique_desc@desc@brook@@V?$allocator@Vgpu_technique_desc@desc@brook@@@std@@@std@@QBEIXZ 00401420 f i reducetostream.obj
 0001:00000450       ??0?$allocator@Vgpu_technique_desc@desc@brook@@@std@@QAE@XZ 00401450 f i reducetostream.obj
 0001:00000460       ??0?$allocator@Vgpu_technique_desc@desc@brook@@@std@@QAE@ABV01@@Z 00401460 f i reducetostream.obj
 0001:00000470       ?size@?$vector@PAXV?$allocator@PAX@std@@@std@@QBEIXZ 00401470 f i reducetostream.obj
 0001:00000490       ?_Myptr@?$basic_string@DU?$char_traits@D@std@@V?$allocator@D@2@@std@@IAEPADXZ 00401490 f i reducetostream.obj
 0001:000004a0       ?deallocate@?$allocator@D@std@@QAEXPADI@Z 004014a0 f i reducetostream.obj
 0001:000004b0       ??0?$allocator@Vgpu_input_desc@desc@brook@@@std@@QAE@ABV01@@Z 004014b0 f i reducetostream.obj
 0001:000004c0       ?deallocate@?$allocator@Vgpu_input_desc@desc@brook@@@std@@QAEXPAVgpu_input_desc@desc@brook@@I@Z 004014c0 f i reducetostream.obj
 0001:000004d0       ??0?$allocator@Vgpu_pass_desc@desc@brook@@@std@@QAE@ABV01@@Z 004014d0 f i reducetostream.obj
 0001:000004e0       ?deallocate@?$allocator@Vgpu_pass_desc@desc@brook@@@std@@QAEXPAVgpu_pass_desc@desc@brook@@I@Z 004014e0 f i reducetostream.obj
 0001:000004f0       ?deallocate@?$allocator@Vgpu_technique_desc@desc@brook@@@std@@QAEXPAVgpu_technique_desc@desc@brook@@I@Z 004014f0 f i reducetostream.obj
 0001:00000500       ??0?$_Ranit@Vgpu_technique_desc@desc@brook@@HPBV123@ABV123@@std@@QAE@XZ 00401500 f i reducetostream.obj
 0001:00000510       ?_Inside@?$basic_string@DU?$char_traits@D@std@@V?$allocator@D@2@@std@@IAE_NPBD@Z 00401510 f i reducetostream.obj
 0001:00000550       ?max_size@?$allocator@Vgpu_input_desc@desc@brook@@@std@@QBEIXZ 00401550 f i reducetostream.obj
 0001:00000560       ?max_size@?$allocator@Vgpu_pass_desc@desc@brook@@@std@@QBEIXZ 00401560 f i reducetostream.obj
 0001:00000570       ?max_size@?$allocator@Vgpu_technique_desc@desc@brook@@@std@@QBEIXZ 00401570 f i reducetostream.obj
 0001:00000580       ??G?$_Vector_const_iterator@Vgpu_input_desc@desc@brook@@V?$allocator@Vgpu_input_desc@desc@brook@@@std@@@std@@QBEHABV01@@Z 00401580 f i reducetostream.obj
 0001:000005b0       ??G?$_Vector_const_iterator@Vgpu_pass_desc@desc@brook@@V?$allocator@Vgpu_pass_desc@desc@brook@@@std@@@std@@QBEHABV01@@Z 004015b0 f i reducetostream.obj
 0001:000005f0       ??G?$_Vector_const_iterator@Vgpu_technique_desc@desc@brook@@V?$allocator@Vgpu_technique_desc@desc@brook@@@std@@@std@@QBEHABV01@@Z 004015f0 f i reducetostream.obj
 0001:00000630       ??0?$_Ranit@Vgpu_input_desc@desc@brook@@HPBV123@ABV123@@std@@QAE@XZ 00401630 f i reducetostream.obj
 0001:00000640       ??0?$_Ranit@Vgpu_pass_desc@desc@brook@@HPBV123@ABV123@@std@@QAE@XZ 00401640 f i reducetostream.obj
 0001:00000650       ?max_size@?$allocator@D@std@@QBEIXZ 00401650 f i reducetostream.obj
 0001:00000660       ??Y?$_Vector_const_iterator@Vgpu_input_desc@desc@brook@@V?$allocator@Vgpu_input_desc@desc@brook@@@std@@@std@@QAEAAV01@H@Z 00401660 f i reducetostream.obj
 0001:000006a0       ??Y?$_Vector_const_iterator@Vgpu_pass_desc@desc@brook@@V?$allocator@Vgpu_pass_desc@desc@brook@@@std@@@std@@QAEAAV01@H@Z 004016a0 f i reducetostream.obj
 0001:000006e0       ??Y?$_Vector_const_iterator@Vgpu_technique_desc@desc@brook@@V?$allocator@Vgpu_technique_desc@desc@brook@@@std@@@std@@QAEAAV01@H@Z 004016e0 f i reducetostream.obj
 0001:00000720       ??$?0M@?$vec@M$01@@QAE@ABM0@Z 00401720 f i reducetostream.obj
 0001:00000740       ??$?0M@?$vec@M$03@@QAE@ABM000@Z 00401740 f i reducetostream.obj
 0001:00000770       ??$_Allocate@Vgpu_input_desc@desc@brook@@@std@@YAPAVgpu_input_desc@desc@brook@@IPAV123@@Z 00401770 f i reducetostream.obj
 0001:000007d0       ??$_Allocate@Vgpu_pass_desc@desc@brook@@@std@@YAPAVgpu_pass_desc@desc@brook@@IPAV123@@Z 004017d0 f i reducetostream.obj
 0001:00000830       ??$_Allocate@Vgpu_technique_desc@desc@brook@@@std@@YAPAVgpu_technique_desc@desc@brook@@IPAV123@@Z 00401830 f i reducetostream.obj
 0001:000008a0       ??$_Allocate@D@std@@YAPADIPAD@Z 004018a0 f i reducetostream.obj
 0001:00000900       ??0bad_alloc@std@@QAE@ABV01@@Z 00401900 f i reducetostream.obj
 0001:00000920       ?getAt@?$vec@M$00@@QBEABMI@Z 00401920 f i reducetostream.obj
 0001:00000940       ?getAt@?$vec@M$01@@QBEABMI@Z 00401940 f i reducetostream.obj
 0001:00000960       ?getAt@?$vec@M$03@@QBEABMI@Z 00401960 f i reducetostream.obj
 0001:00000980       ??$indexOf@V?$vec@M$01@@@?$__BrtArray@V?$vec@M$00@@@@QBEIABV?$vec@M$01@@@Z 00401980 f i reducetostream.obj
 0001:00000b80       ??$?RM@?$InitializeClass@V?$vec@M$03@@@@QAE?AV?$vec@M$03@@ABM000@Z 00401b80 f i reducetostream.obj
 0001:00000bb0       ??$_Char_traits_cat@U?$char_traits@D@std@@@std@@YA?AU_Secure_char_traits_tag@0@XZ 00401bb0 f i reducetostream.obj
 0001:00000bc0       ??$copy_s@U?$char_traits@D@std@@@_Traits_helper@std@@YAPADPADIPBDIU_Secure_char_traits_tag@1@@Z 00401bc0 f i reducetostream.obj
 0001:00000bf0       ??$_Ptr_cat@PAVgpu_input_desc@desc@brook@@PAV123@@std@@YA?AU_Nonscalar_ptr_iterator_tag@0@AAPAVgpu_input_desc@desc@brook@@0@Z 00401bf0 f i reducetostream.obj
 0001:00000c00       ??$_Ptr_cat@PAVgpu_pass_desc@desc@brook@@PAV123@@std@@YA?AU_Nonscalar_ptr_iterator_tag@0@AAPAVgpu_pass_desc@desc@brook@@0@Z 00401c00 f i reducetostream.obj
 0001:00000c10       ??$_Ptr_cat@PAVgpu_technique_desc@desc@brook@@PAV123@@std@@YA?AU_Nonscalar_ptr_iterator_tag@0@AAPAVgpu_technique_desc@desc@brook@@0@Z 00401c10 f i reducetostream.obj
 0001:00000c20       ??$move_s@U?$char_traits@D@std@@@_Traits_helper@std@@YAPADPADIPBDIU_Secure_char_traits_tag@1@@Z 00401c20 f i reducetostream.obj
 0001:00000c50       ??$_Fill@PAVgpu_input_desc@desc@brook@@V123@@std@@YAXPAVgpu_input_desc@desc@brook@@0ABV123@@Z 00401c50 f i reducetostream.obj
 0001:00000c80       ??$_Iter_random@PAVgpu_input_desc@desc@brook@@PAV123@@std@@YA?AUrandom_access_iterator_tag@0@ABQAVgpu_input_desc@desc@brook@@0@Z 00401c80 f i reducetostream.obj
 0001:00000c90       ??$_Move_cat@PAVgpu_input_desc@desc@brook@@@std@@YA?AU_Undefined_move_tag@0@ABQAVgpu_input_desc@desc@brook@@@Z 00401c90 f i reducetostream.obj
 0001:00000ca0       ??$_Iter_random@PAVgpu_pass_desc@desc@brook@@PAV123@@std@@YA?AUrandom_access_iterator_tag@0@ABQAVgpu_pass_desc@desc@brook@@0@Z 00401ca0 f i reducetostream.obj
 0001:00000cb0       ??$_Move_cat@PAVgpu_pass_desc@desc@brook@@@std@@YA?AU_Undefined_move_tag@0@ABQAVgpu_pass_desc@desc@brook@@@Z 00401cb0 f i reducetostream.obj
 0001:00000cc0       ??$_Iter_random@PAVgpu_technique_desc@desc@brook@@PAV123@@std@@YA?AUrandom_access_iterator_tag@0@ABQAVgpu_technique_desc@desc@brook@@0@Z 00401cc0 f i reducetostream.obj
 0001:00000cd0       ??$_Move_cat@PAVgpu_technique_desc@desc@brook@@@std@@YA?AU_Undefined_move_tag@0@ABQAVgpu_technique_desc@desc@brook@@@Z 00401cd0 f i reducetostream.obj
 0001:00000ce0       ?getAt@?$Holder@V?$vec@M$00@@@@SAMABV?$vec@M$00@@H@Z 00401ce0 f i reducetostream.obj
 0001:00000d00       ??8?$_Vector_const_iterator@Vgpu_input_desc@desc@brook@@V?$allocator@Vgpu_input_desc@desc@brook@@@std@@@std@@QBE_NABV01@@Z 00401d00 f i reducetostream.obj
 0001:00000d30       ??8?$_Vector_const_iterator@Vgpu_pass_desc@desc@brook@@V?$allocator@Vgpu_pass_desc@desc@brook@@@std@@@std@@QBE_NABV01@@Z 00401d30 f i reducetostream.obj
 0001:00000d60       ??$GetAt@M@@YAMABMH@Z      00401d60 f i reducetostream.obj
 0001:00000d70       ??$_Ptr_cat@V?$_Vector_const_iterator@Vgpu_technique_desc@desc@brook@@V?$allocator@Vgpu_technique_desc@desc@brook@@@std@@@std@@PAVgpu_technique_desc@desc@brook@@@std@@YA?AU_Nonscalar_ptr_iterator_tag@0@AAV?$_Vector_const_iterator@Vgpu_technique_desc@desc@brook@@V?$allocator@Vgpu_technique_desc@desc@brook@@@std@@@0@AAPAVgpu_technique_desc@desc@brook@@@Z 00401d70 f i reducetostream.obj
 0001:00000d80       ??$_Checked_base@PAVgpu_input_desc@desc@brook@@@std@@YAPAVgpu_input_desc@desc@brook@@AAPAV123@U_Unchanged_checked_iterator_base_type_tag@0@@Z 00401d80 f i reducetostream.obj
 0001:00000d90       ??$_Checked_base@PAVgpu_pass_desc@desc@brook@@@std@@YAPAVgpu_pass_desc@desc@brook@@AAPAV123@U_Unchanged_checked_iterator_base_type_tag@0@@Z 00401d90 f i reducetostream.obj
 0001:00000da0       ??$_Checked_base@PAVgpu_technique_desc@desc@brook@@@std@@YAPAVgpu_technique_desc@desc@brook@@AAPAV123@U_Unchanged_checked_iterator_base_type_tag@0@@Z 00401da0 f i reducetostream.obj
 0001:00000db0       ??$_Ptr_cat@V?$_Vector_const_iterator@Vgpu_input_desc@desc@brook@@V?$allocator@Vgpu_input_desc@desc@brook@@@std@@@std@@PAVgpu_input_desc@desc@brook@@@std@@YA?AU_Nonscalar_ptr_iterator_tag@0@AAV?$_Vector_const_iterator@Vgpu_input_desc@desc@brook@@V?$allocator@Vgpu_input_desc@desc@brook@@@std@@@0@AAPAVgpu_input_desc@desc@brook@@@Z 00401db0 f i reducetostream.obj
 0001:00000dc0       ??$_Ptr_cat@V?$_Vector_const_iterator@Vgpu_pass_desc@desc@brook@@V?$allocator@Vgpu_pass_desc@desc@brook@@@std@@@std@@PAVgpu_pass_desc@desc@brook@@@std@@YA?AU_Nonscalar_ptr_iterator_tag@0@AAV?$_Vector_const_iterator@Vgpu_pass_desc@desc@brook@@V?$allocator@Vgpu_pass_desc@desc@brook@@@std@@@0@AAPAVgpu_pass_desc@desc@brook@@@Z 00401dc0 f i reducetostream.obj
 0001:00000dd0       ??$_Construct@Vgpu_input_desc@desc@brook@@V123@@std@@YAXPAVgpu_input_desc@desc@brook@@ABV123@@Z 00401dd0 f i reducetostream.obj
 0001:00000df0       ??$_Destroy@Vgpu_input_desc@desc@brook@@@std@@YAXPAVgpu_input_desc@desc@brook@@@Z 00401df0 f i reducetostream.obj
 0001:00000e00       ?getAt@?$Holder@V?$vec@M$03@@@@SAMABV?$vec@M$03@@H@Z 00401e00 f i reducetostream.obj
 0001:00000e20       ??$_Copy_backward_opt@PAVgpu_input_desc@desc@brook@@PAV123@Uforward_iterator_tag@std@@@std@@YAPAVgpu_input_desc@desc@brook@@PAV123@00Uforward_iterator_tag@0@U_Nonscalar_ptr_iterator_tag@0@U_Range_checked_iterator_tag@0@@Z 00401e20 f i reducetostream.obj
 0001:00000e50       ?_Checked_iterator_base@?$_Vector_const_iterator@Vgpu_input_desc@desc@brook@@V?$allocator@Vgpu_input_desc@desc@brook@@@std@@@std@@QBEPBVgpu_input_desc@desc@brook@@XZ 00401e50 f i reducetostream.obj
 0001:00000e60       ?_Checked_iterator_base@?$_Vector_const_iterator@Vgpu_pass_desc@desc@brook@@V?$allocator@Vgpu_pass_desc@desc@brook@@@std@@@std@@QBEPBVgpu_pass_desc@desc@brook@@XZ 00401e60 f i reducetostream.obj
 0001:00000e70       ?_Checked_iterator_base@?$_Vector_const_iterator@Vgpu_technique_desc@desc@brook@@V?$allocator@Vgpu_technique_desc@desc@brook@@@std@@@std@@QBEPBVgpu_technique_desc@desc@brook@@XZ 00401e70 f i reducetostream.obj
 0001:00000e80       ??$_Copy_opt@PAVgpu_input_desc@desc@brook@@PAV123@Uforward_iterator_tag@std@@@std@@YAPAVgpu_input_desc@desc@brook@@PAV123@00Uforward_iterator_tag@0@U_Nonscalar_ptr_iterator_tag@0@U_Range_checked_iterator_tag@0@@Z 00401e80 f i reducetostream.obj
 0001:00000eb0       ?swizzle2@?$vec@M$03@@QBE?AV?$vec@M$01@@HH@Z 00401eb0 f i reducetostream.obj
 0001:00000ed0       ??A?$vector@PAXV?$allocator@PAX@std@@@std@@QBEABQAXI@Z 00401ed0 f i reducetostream.obj
 0001:00000f00       ??0?$_String_val@DV?$allocator@D@std@@@std@@IAE@V?$allocator@D@1@@Z 00401f00 f i reducetostream.obj
 0001:00000f10       ??0?$_Vector_val@Vgpu_input_desc@desc@brook@@V?$allocator@Vgpu_input_desc@desc@brook@@@std@@@std@@IAE@V?$allocator@Vgpu_input_desc@desc@brook@@@1@@Z 00401f10 f i reducetostream.obj
 0001:00000f20       ??0?$_Vector_val@Vgpu_pass_desc@desc@brook@@V?$allocator@Vgpu_pass_desc@desc@brook@@@std@@@std@@IAE@V?$allocator@Vgpu_pass_desc@desc@brook@@@1@@Z 00401f20 f i reducetostream.obj
 0001:00000f30       ??0?$_Vector_val@Vgpu_technique_desc@desc@brook@@V?$allocator@Vgpu_technique_desc@desc@brook@@@std@@@std@@IAE@V?$allocator@Vgpu_technique_desc@desc@brook@@@1@@Z 00401f30 f i reducetostream.obj
 0001:00000f40       ?_Eos@?$basic_string@DU?$char_traits@D@std@@V?$allocator@D@2@@std@@IAEXI@Z 00401f40 f i reducetostream.obj
 0001:00000f60       ?max_size@?$vector@Vgpu_input_desc@desc@brook@@V?$allocator@Vgpu_input_desc@desc@brook@@@std@@@std@@QBEIXZ 00401f60 f i reducetostream.obj
 0001:00000f70       ?allocate@?$allocator@Vgpu_input_desc@desc@brook@@@std@@QAEPAVgpu_input_desc@desc@brook@@I@Z 00401f70 f i reducetostream.obj
 0001:00000f90       ?max_size@?$vector@Vgpu_pass_desc@desc@brook@@V?$allocator@Vgpu_pass_desc@desc@brook@@@std@@@std@@QBEIXZ 00401f90 f i reducetostream.obj
 0001:00000fa0       ?allocate@?$allocator@Vgpu_pass_desc@desc@brook@@@std@@QAEPAVgpu_pass_desc@desc@brook@@I@Z 00401fa0 f i reducetostream.obj
 0001:00000fc0       ?max_size@?$vector@Vgpu_technique_desc@desc@brook@@V?$allocator@Vgpu_technique_desc@desc@brook@@@std@@@std@@QBEIXZ 00401fc0 f i reducetostream.obj
 0001:00000fd0       ?allocate@?$allocator@Vgpu_technique_desc@desc@brook@@@std@@QAEPAVgpu_technique_desc@desc@brook@@I@Z 00401fd0 f i reducetostream.obj
 0001:00000ff0       ??G?$_Vector_iterator@Vgpu_input_desc@desc@brook@@V?$allocator@Vgpu_input_desc@desc@brook@@@std@@@std@@QBEHABV?$_Vector_const_iterator@Vgpu_input_desc@desc@brook@@V?$allocator@Vgpu_input_desc@desc@brook@@@std@@@1@@Z 00401ff0 f i reducetostream.obj
 0001:00001020       ??G?$_Vector_iterator@Vgpu_pass_desc@desc@brook@@V?$allocator@Vgpu_pass_desc@desc@brook@@@std@@@std@@QBEHABV?$_Vector_const_iterator@Vgpu_pass_desc@desc@brook@@V?$allocator@Vgpu_pass_desc@desc@brook@@@std@@@1@@Z 00402020 f i reducetostream.obj
 0001:00001060       ??0?$_Vector_const_iterator@Vgpu_technique_desc@desc@brook@@V?$allocator@Vgpu_technique_desc@desc@brook@@@std@@@std@@QAE@PAVgpu_technique_desc@desc@brook@@PBU_Container_base@1@@Z 00402060 f i reducetostream.obj
 0001:000010a0       ??0?$_Vector_iterator@Vgpu_technique_desc@desc@brook@@V?$allocator@Vgpu_technique_desc@desc@brook@@@std@@@std@@QAE@PAVgpu_technique_desc@desc@brook@@PBU_Container_base@1@@Z 004020a0 f i reducetostream.obj
 0001:000010e0       ??G?$_Vector_iterator@Vgpu_technique_desc@desc@brook@@V?$allocator@Vgpu_technique_desc@desc@brook@@@std@@@std@@QBEHABV?$_Vector_const_iterator@Vgpu_technique_desc@desc@brook@@V?$allocator@Vgpu_technique_desc@desc@brook@@@std@@@1@@Z 004020e0 f i reducetostream.obj
 0001:00001120       ?max_size@?$basic_string@DU?$char_traits@D@std@@V?$allocator@D@2@@std@@QBEIXZ 00402120 f i reducetostream.obj
 0001:00001130       ??Y?$_Vector_iterator@Vgpu_input_desc@desc@brook@@V?$allocator@Vgpu_input_desc@desc@brook@@@std@@@std@@QAEAAV01@H@Z 00402130 f i reducetostream.obj
 0001:00001170       ??0?$_Vector_const_iterator@Vgpu_input_desc@desc@brook@@V?$allocator@Vgpu_input_desc@desc@brook@@@std@@@std@@QAE@PAVgpu_input_desc@desc@brook@@PBU_Container_base@1@@Z 00402170 f i reducetostream.obj
 0001:000011b0       ??Y?$_Vector_iterator@Vgpu_pass_desc@desc@brook@@V?$allocator@Vgpu_pass_desc@desc@brook@@@std@@@std@@QAEAAV01@H@Z 004021b0 f i reducetostream.obj
 0001:000011f0       ??0?$_Vector_const_iterator@Vgpu_pass_desc@desc@brook@@V?$allocator@Vgpu_pass_desc@desc@brook@@@std@@@std@@QAE@PAVgpu_pass_desc@desc@brook@@PBU_Container_base@1@@Z 004021f0 f i reducetostream.obj
 0001:00001230       ??Y?$_Vector_iterator@Vgpu_technique_desc@desc@brook@@V?$allocator@Vgpu_technique_desc@desc@brook@@@std@@@std@@QAEAAV01@H@Z 00402230 f i reducetostream.obj
 0001:00001270       ?allocate@?$allocator@D@std@@QAEPADI@Z 00402270 f i reducetostream.obj
 0001:00001290       ?begin@?$vector@Vgpu_input_desc@desc@brook@@V?$allocator@Vgpu_input_desc@desc@brook@@@std@@@std@@QBE?AV?$_Vector_const_iterator@Vgpu_input_desc@desc@brook@@V?$allocator@Vgpu_input_desc@desc@brook@@@std@@@2@XZ 00402290 f i reducetostream.obj
 0001:000012c0       ?end@?$vector@Vgpu_input_desc@desc@brook@@V?$allocator@Vgpu_input_desc@desc@brook@@@std@@@std@@QBE?AV?$_Vector_const_iterator@Vgpu_input_desc@desc@brook@@V?$allocator@Vgpu_input_desc@desc@brook@@@std@@@2@XZ 004022c0 f i reducetostream.obj
 0001:000012f0       ?begin@?$vector@Vgpu_pass_desc@desc@brook@@V?$allocator@Vgpu_pass_desc@desc@brook@@@std@@@std@@QBE?AV?$_Vector_const_iterator@Vgpu_pass_desc@desc@brook@@V?$allocator@Vgpu_pass_desc@desc@brook@@@std@@@2@XZ 004022f0 f i reducetostream.obj
 0001:00001320       ?end@?$vector@Vgpu_pass_desc@desc@brook@@V?$allocator@Vgpu_pass_desc@desc@brook@@@std@@@std@@QBE?AV?$_Vector_const_iterator@Vgpu_pass_desc@desc@brook@@V?$allocator@Vgpu_pass_desc@desc@brook@@@std@@@2@XZ 00402320 f i reducetostream.obj
 0001:00001350       ??$?AV?$vec@M$01@@@?$__BrtArray@V?$vec@M$00@@@@QBEABV?$vec@M$00@@ABV?$vec@M$01@@@Z 00402350 f i reducetostream.obj
 0001:00001370       ??$castToArg@V?$vec@M$03@@@?$vec@M$03@@QBE?AV0@ABV0@@Z 00402370 f i reducetostream.obj
 0001:00001390       ??$copy_s@U?$char_traits@D@std@@@_Traits_helper@std@@YAPADPADIPBDI@Z 00402390 f i reducetostream.obj
 0001:000013c0       ??$move_s@U?$char_traits@D@std@@@_Traits_helper@std@@YAPADPADIPBDI@Z 004023c0 f i reducetostream.obj
 0001:000013f0       ??$?4M@?$vec@M$00@@QAEAAV0@ABM@Z 004023f0 f i reducetostream.obj
 0001:00001400       ??$GetAt@V?$vec@M$00@@@@YAMABV?$vec@M$00@@H@Z 00402400 f i reducetostream.obj
 0001:00001420       ??$?XV?$vec@M$00@@@?$vec@M$00@@QAEAAV0@ABV0@@Z 00402420 f i reducetostream.obj
 0001:00001450       ??$_Checked_base@PAVgpu_input_desc@desc@brook@@@std@@YAPAVgpu_input_desc@desc@brook@@AAPAV123@@Z 00402450 f i reducetostream.obj
 0001:00001460       ??$_Checked_base@PAVgpu_pass_desc@desc@brook@@@std@@YAPAVgpu_pass_desc@desc@brook@@AAPAV123@@Z 00402460 f i reducetostream.obj
 0001:00001470       ??$_Checked_base@PAVgpu_technique_desc@desc@brook@@@std@@YAPAVgpu_technique_desc@desc@brook@@AAPAV123@@Z 00402470 f i reducetostream.obj
 0001:00001480       ?construct@?$allocator@Vgpu_input_desc@desc@brook@@@std@@QAEXPAVgpu_input_desc@desc@brook@@ABV345@@Z 00402480 f i reducetostream.obj
 0001:000014a0       ?destroy@?$allocator@Vgpu_input_desc@desc@brook@@@std@@QAEXPAVgpu_input_desc@desc@brook@@@Z 004024a0 f i reducetostream.obj
 0001:000014b0       ??9?$_Vector_const_iterator@Vgpu_input_desc@desc@brook@@V?$allocator@Vgpu_input_desc@desc@brook@@@std@@@std@@QBE_NABV01@@Z 004024b0 f i reducetostream.obj
 0001:000014e0       ??9?$_Vector_const_iterator@Vgpu_pass_desc@desc@brook@@V?$allocator@Vgpu_pass_desc@desc@brook@@@std@@@std@@QBE_NABV01@@Z 004024e0 f i reducetostream.obj
 0001:00001510       ??$GetAt@V?$vec@M$03@@@@YAMABV?$vec@M$03@@H@Z 00402510 f i reducetostream.obj
 0001:00001530       ??$_Copy_backward_opt@PAVgpu_input_desc@desc@brook@@PAV123@@std@@YAPAVgpu_input_desc@desc@brook@@PAV123@00Urandom_access_iterator_tag@0@U_Nonscalar_ptr_iterator_tag@0@U_Range_checked_iterator_tag@0@@Z 00402530 f i reducetostream.obj
 0001:00001570       ??$_Uninit_copy@PBVgpu_input_desc@desc@brook@@PAV123@V?$allocator@Vgpu_input_desc@desc@brook@@@std@@@std@@YAPAVgpu_input_desc@desc@brook@@PBV123@0PAV123@AAV?$allocator@Vgpu_input_desc@desc@brook@@@0@U_Nonscalar_ptr_iterator_tag@0@U_Range_checked_iterator_tag@0@@Z 00402570 f i reducetostream.obj
 0001:000015a0       ??$_Checked_base@V?$_Vector_const_iterator@Vgpu_technique_desc@desc@brook@@V?$allocator@Vgpu_technique_desc@desc@brook@@@std@@@std@@U_Different_checked_iterator_base_type_tag@2@@std@@YAPBVgpu_technique_desc@desc@brook@@AAV?$_Vector_const_iterator@Vgpu_technique_desc@desc@brook@@V?$allocator@Vgpu_technique_desc@desc@brook@@@std@@@0@U_Different_checked_iterator_base_type_tag@0@@Z 004025a0 f i reducetostream.obj
 0001:000015b0       ??$_Checked_base@V?$_Vector_const_iterator@Vgpu_input_desc@desc@brook@@V?$allocator@Vgpu_input_desc@desc@brook@@@std@@@std@@U_Different_checked_iterator_base_type_tag@2@@std@@YAPBVgpu_input_desc@desc@brook@@AAV?$_Vector_const_iterator@Vgpu_input_desc@desc@brook@@V?$allocator@Vgpu_input_desc@desc@brook@@@std@@@0@U_Different_checked_iterator_base_type_tag@0@@Z 004025b0 f i reducetostream.obj
 0001:000015c0       ??$_Checked_base@V?$_Vector_const_iterator@Vgpu_pass_desc@desc@brook@@V?$allocator@Vgpu_pass_desc@desc@brook@@@std@@@std@@U_Different_checked_iterator_base_type_tag@2@@std@@YAPBVgpu_pass_desc@desc@brook@@AAV?$_Vector_const_iterator@Vgpu_pass_desc@desc@brook@@V?$allocator@Vgpu_pass_desc@desc@brook@@@std@@@0@U_Different_checked_iterator_base_type_tag@0@@Z 004025c0 f i reducetostream.obj
 0001:000015d0       ??$_Copy_opt@PAVgpu_input_desc@desc@brook@@PAV123@@std@@YAPAVgpu_input_desc@desc@brook@@PAV123@00Urandom_access_iterator_tag@0@U_Nonscalar_ptr_iterator_tag@0@U_Range_checked_iterator_tag@0@@Z 004025d0 f i reducetostream.obj
 0001:00001610       ??$_Uninit_copy@PAVgpu_input_desc@desc@brook@@PAV123@V?$allocator@Vgpu_input_desc@desc@brook@@@std@@@std@@YAPAVgpu_input_desc@desc@brook@@PAV123@00AAV?$allocator@Vgpu_input_desc@desc@brook@@@0@U_Nonscalar_ptr_iterator_tag@0@U_Range_checked_iterator_tag@0@@Z 00402610 f i reducetostream.obj
 0001:00001640       ?_Tidy@?$basic_string@DU?$char_traits@D@std@@V?$allocator@D@2@@std@@IAEX_NI@Z 00402640 f i reducetostream.obj
 0001:00001690       ?begin@?$vector@Vgpu_technique_desc@desc@brook@@V?$allocator@Vgpu_technique_desc@desc@brook@@@std@@@std@@QBE?AV?$_Vector_const_iterator@Vgpu_technique_desc@desc@brook@@V?$allocator@Vgpu_technique_desc@desc@brook@@@std@@@2@XZ 00402690 f i reducetostream.obj
 0001:000016c0       ?end@?$vector@Vgpu_technique_desc@desc@brook@@V?$allocator@Vgpu_technique_desc@desc@brook@@@std@@@std@@QAE?AV?$_Vector_iterator@Vgpu_technique_desc@desc@brook@@V?$allocator@Vgpu_technique_desc@desc@brook@@@std@@@2@XZ 004026c0 f i reducetostream.obj
 0001:000016f0       ?end@?$vector@Vgpu_technique_desc@desc@brook@@V?$allocator@Vgpu_technique_desc@desc@brook@@@std@@@std@@QBE?AV?$_Vector_const_iterator@Vgpu_technique_desc@desc@brook@@V?$allocator@Vgpu_technique_desc@desc@brook@@@std@@@2@XZ 004026f0 f i reducetostream.obj
 0001:00001720       ?erase@?$basic_string@DU?$char_traits@D@std@@V?$allocator@D@2@@std@@QAEAAV12@II@Z 00402720 f i reducetostream.obj
 0001:000017b0       ?begin@?$vector@Vgpu_technique_desc@desc@brook@@V?$allocator@Vgpu_technique_desc@desc@brook@@@std@@@std@@QAE?AV?$_Vector_iterator@Vgpu_technique_desc@desc@brook@@V?$allocator@Vgpu_technique_desc@desc@brook@@@std@@@2@XZ 004027b0 f i reducetostream.obj
 0001:000017e0       ??0?$_Vector_iterator@Vgpu_input_desc@desc@brook@@V?$allocator@Vgpu_input_desc@desc@brook@@@std@@@std@@QAE@PAVgpu_input_desc@desc@brook@@PBU_Container_base@1@@Z 004027e0 f i reducetostream.obj
 0001:00001820       ??H?$_Vector_iterator@Vgpu_input_desc@desc@brook@@V?$allocator@Vgpu_input_desc@desc@brook@@@std@@@std@@QBE?AV01@H@Z 00402820 f i reducetostream.obj
 0001:00001860       ??0?$_Vector_iterator@Vgpu_pass_desc@desc@brook@@V?$allocator@Vgpu_pass_desc@desc@brook@@@std@@@std@@QAE@PAVgpu_pass_desc@desc@brook@@PBU_Container_base@1@@Z 00402860 f i reducetostream.obj
 0001:000018a0       ??H?$_Vector_iterator@Vgpu_pass_desc@desc@brook@@V?$allocator@Vgpu_pass_desc@desc@brook@@@std@@@std@@QBE?AV01@H@Z 004028a0 f i reducetostream.obj
 0001:000018e0       ??H?$_Vector_iterator@Vgpu_technique_desc@desc@brook@@V?$allocator@Vgpu_technique_desc@desc@brook@@@std@@@std@@QBE?AV01@H@Z 004028e0 f i reducetostream.obj
 0001:00001920       ?_Copy@?$basic_string@DU?$char_traits@D@std@@V?$allocator@D@2@@std@@IAEXII@Z 00402920 f i reducetostream.obj
 0001:00001a70       ??$?0M@?$vec@M$00@@QAE@ABM@Z 00402a70 f i reducetostream.obj
 0001:00001a80       ??$mask1@V?$vec@M$00@@@?$vec@M$03@@QAE?AV?$vec@M$00@@ABV1@H@Z 00402a80 f i reducetostream.obj
 0001:00001aa0       ??$?DV?$vec@M$00@@@?$vec@M$00@@QBE?AV0@ABV0@@Z 00402aa0 f i reducetostream.obj
 0001:00001ae0       ??$?0V?$vec@M$03@@@?$Addressable@V?$vec@M$03@@@@QAE@PAV?$vec@M$03@@@Z 00402ae0 f i reducetostream.obj
 0001:00001b10       ??$fill@PAVgpu_input_desc@desc@brook@@V123@@std@@YAXPAVgpu_input_desc@desc@brook@@0ABV123@@Z 00402b10 f i reducetostream.obj
 0001:00001b40       ??$?YV?$vec@M$00@@@?$vec@M$00@@QAEAAV0@ABV0@@Z 00402b40 f i reducetostream.obj
 0001:00001b70       ??$?YV?$vec@M$03@@@?$vec@M$03@@QAEAAV0@ABV0@@Z 00402b70 f i reducetostream.obj
 0001:00001bf0       ??$_Uninit_fill_n@PAVgpu_input_desc@desc@brook@@IV123@V?$allocator@Vgpu_input_desc@desc@brook@@@std@@@std@@YAXPAVgpu_input_desc@desc@brook@@IABV123@AAV?$allocator@Vgpu_input_desc@desc@brook@@@0@U_Nonscalar_ptr_iterator_tag@0@U_Range_checked_iterator_tag@0@@Z 00402bf0 f i reducetostream.obj
 0001:00001c20       ??$_Destroy_range@Vgpu_input_desc@desc@brook@@V?$allocator@Vgpu_input_desc@desc@brook@@@std@@@std@@YAXPAVgpu_input_desc@desc@brook@@0AAV?$allocator@Vgpu_input_desc@desc@brook@@@0@U_Nonscalar_ptr_iterator_tag@0@@Z 00402c20 f i reducetostream.obj
 0001:00001c30       ??$_Move_backward_opt@PAVgpu_input_desc@desc@brook@@PAV123@Urandom_access_iterator_tag@std@@U_Undefined_move_tag@5@@std@@YAPAVgpu_input_desc@desc@brook@@PAV123@00Urandom_access_iterator_tag@0@U_Undefined_move_tag@0@U_Range_checked_iterator_tag@0@@Z 00402c30 f i reducetostream.obj
 0001:00001c70       ??$_Checked_base@V?$_Vector_const_iterator@Vgpu_technique_desc@desc@brook@@V?$allocator@Vgpu_technique_desc@desc@brook@@@std@@@std@@@std@@YAPBVgpu_technique_desc@desc@brook@@AAV?$_Vector_const_iterator@Vgpu_technique_desc@desc@brook@@V?$allocator@Vgpu_technique_desc@desc@brook@@@std@@@0@@Z 00402c70 f i reducetostream.obj
 0001:00001c80       ??$_Checked_base@V?$_Vector_const_iterator@Vgpu_input_desc@desc@brook@@V?$allocator@Vgpu_input_desc@desc@brook@@@std@@@std@@@std@@YAPBVgpu_input_desc@desc@brook@@AAV?$_Vector_const_iterator@Vgpu_input_desc@desc@brook@@V?$allocator@Vgpu_input_desc@desc@brook@@@std@@@0@@Z 00402c80 f i reducetostream.obj
 0001:00001c90       ??$_Checked_base@V?$_Vector_const_iterator@Vgpu_pass_desc@desc@brook@@V?$allocator@Vgpu_pass_desc@desc@brook@@@std@@@std@@@std@@YAPBVgpu_pass_desc@desc@brook@@AAV?$_Vector_const_iterator@Vgpu_pass_desc@desc@brook@@V?$allocator@Vgpu_pass_desc@desc@brook@@@std@@@0@@Z 00402c90 f i reducetostream.obj
 0001:00001ca0       ??$unchecked_copy@PAVgpu_input_desc@desc@brook@@PAV123@@stdext@@YAPAVgpu_input_desc@desc@brook@@PAV123@00@Z 00402ca0 f i reducetostream.obj
 0001:00001ce0       ??$unchecked_uninitialized_copy@PAVgpu_input_desc@desc@brook@@PAV123@V?$allocator@Vgpu_input_desc@desc@brook@@@std@@@stdext@@YAPAVgpu_input_desc@desc@brook@@PAV123@00AAV?$allocator@Vgpu_input_desc@desc@brook@@@std@@@Z 00402ce0 f i reducetostream.obj
 0001:00001d10       ??1?$basic_string@DU?$char_traits@D@std@@V?$allocator@D@2@@std@@QAE@XZ 00402d10 f i reducetostream.obj
 0001:00001d40       ?swizzle1@?$vec@M$03@@QBE?AV?$vec@M$00@@H@Z 00402d40 f i reducetostream.obj
 0001:00001d50       ?end@?$vector@Vgpu_input_desc@desc@brook@@V?$allocator@Vgpu_input_desc@desc@brook@@@std@@@std@@QAE?AV?$_Vector_iterator@Vgpu_input_desc@desc@brook@@V?$allocator@Vgpu_input_desc@desc@brook@@@std@@@2@XZ 00402d50 f i reducetostream.obj
 0001:00001d80       ?end@?$vector@Vgpu_pass_desc@desc@brook@@V?$allocator@Vgpu_pass_desc@desc@brook@@@std@@@std@@QAE?AV?$_Vector_iterator@Vgpu_pass_desc@desc@brook@@V?$allocator@Vgpu_pass_desc@desc@brook@@@std@@@2@XZ 00402d80 f i reducetostream.obj
 0001:00001db0       ?_Grow@?$basic_string@DU?$char_traits@D@std@@V?$allocator@D@2@@std@@IAE_NI_N@Z 00402db0 f i reducetostream.obj
 0001:00001e70       ?begin@?$vector@Vgpu_input_desc@desc@brook@@V?$allocator@Vgpu_input_desc@desc@brook@@@std@@@std@@QAE?AV?$_Vector_iterator@Vgpu_input_desc@desc@brook@@V?$allocator@Vgpu_input_desc@desc@brook@@@std@@@2@XZ 00402e70 f i reducetostream.obj
 0001:00001ea0       ?begin@?$vector@Vgpu_pass_desc@desc@brook@@V?$allocator@Vgpu_pass_desc@desc@brook@@@std@@@std@@QAE?AV?$_Vector_iterator@Vgpu_pass_desc@desc@brook@@V?$allocator@Vgpu_pass_desc@desc@brook@@@std@@@2@XZ 00402ea0 f i reducetostream.obj
 0001:00001ed0       ??$?HV?$vec@M$00@@@?$vec@M$00@@QBE?AV0@ABV0@@Z 00402ed0 f i reducetostream.obj
 0001:00001f10       ??$?HV?$vec@M$03@@@?$vec@M$03@@QBE?AV0@ABV0@@Z 00402f10 f i reducetostream.obj
 0001:00001fd0       ??$unchecked_uninitialized_fill_n@PAVgpu_input_desc@desc@brook@@IV123@V?$allocator@Vgpu_input_desc@desc@brook@@@std@@@stdext@@YAXPAVgpu_input_desc@desc@brook@@IABV123@AAV?$allocator@Vgpu_input_desc@desc@brook@@@std@@@Z 00402fd0 f i reducetostream.obj
 0001:00002000       ??$_Destroy_range@Vgpu_input_desc@desc@brook@@V?$allocator@Vgpu_input_desc@desc@brook@@@std@@@std@@YAXPAVgpu_input_desc@desc@brook@@0AAV?$allocator@Vgpu_input_desc@desc@brook@@@0@@Z 00403000 f i reducetostream.obj
 0001:00002010       ??$_Unchecked_move_backward@PAVgpu_input_desc@desc@brook@@PAV123@@stdext@@YAPAVgpu_input_desc@desc@brook@@PAV123@00@Z 00403010 f i reducetostream.obj
 0001:00002050       ??$unchecked_uninitialized_copy@V?$_Vector_const_iterator@Vgpu_input_desc@desc@brook@@V?$allocator@Vgpu_input_desc@desc@brook@@@std@@@std@@PAVgpu_input_desc@desc@brook@@V?$allocator@Vgpu_input_desc@desc@brook@@@2@@stdext@@YAPAVgpu_input_desc@desc@brook@@V?$_Vector_const_iterator@Vgpu_input_desc@desc@brook@@V?$allocator@Vgpu_input_desc@desc@brook@@@std@@@std@@0PAV123@AAV?$allocator@Vgpu_input_desc@desc@brook@@@5@@Z 00403050 f i reducetostream.obj
 0001:00002080       ??$_Uninit_move@PAVgpu_input_desc@desc@brook@@PAV123@V?$allocator@Vgpu_input_desc@desc@brook@@@std@@U_Undefined_move_tag@5@@std@@YAPAVgpu_input_desc@desc@brook@@PAV123@00AAV?$allocator@Vgpu_input_desc@desc@brook@@@0@U_Undefined_move_tag@0@U_Range_checked_iterator_tag@0@@Z 00403080 f i reducetostream.obj
 0001:000020a0       ??$_Ucopy@PAVgpu_input_desc@desc@brook@@@?$vector@Vgpu_input_desc@desc@brook@@V?$allocator@Vgpu_input_desc@desc@brook@@@std@@@std@@IAEPAVgpu_input_desc@desc@brook@@PAV234@00@Z 004030a0 f i reducetostream.obj
 0001:000020d0       ??1logic_error@std@@UAE@XZ 004030d0 f i reducetostream.obj
 0001:00002110       ?c_str@?$basic_string@DU?$char_traits@D@std@@V?$allocator@D@2@@std@@QBEPBDXZ 00403110 f i reducetostream.obj
 0001:00002120       ?what@logic_error@std@@UBEPBDXZ 00403120 f i reducetostream.obj
 0001:00002130       ??_Elogic_error@std@@UAEPAXI@Z 00403130 f i reducetostream.obj
 0001:00002130       ??_Glogic_error@std@@UAEPAXI@Z 00403130 f i reducetostream.obj
 0001:00002180       ?__foo_cpu_inner@@YAXABV?$vec@M$03@@0ABV?$__BrtArray@V?$vec@M$00@@@@AAV1@@Z 00403180 f   reducetostream.obj
 0001:000022d0       ?__foo_cpu@@YAXPAVKernel@brook@@ABV?$vector@PAXV?$allocator@PAX@std@@@std@@@Z 004032d0 f   reducetostream.obj
 0001:00002520       ?foo@@YAXVstream@brook@@Ufloat4@@00@Z 00403520 f   reducetostream.obj
 0001:000026e0       ?foo@@YAXVstream@brook@@Ufloat4@@0AAU3@@Z 004036e0 f   reducetostream.obj
 0001:00002890       ?__SUM_cpu_inner@@YAXABV?$vec@M$03@@AAV1@@Z 00403890 f   reducetostream.obj
 0001:00002940       ?__SUM_cpu@@YAXPAVKernel@brook@@ABV?$vector@PAXV?$allocator@PAX@std@@@std@@@Z 00403940 f   reducetostream.obj
 0001:00002aa0       ?SUM@@YAXVstream@brook@@0@Z 00403aa0 f   reducetostream.obj
 0001:00002c30       ?SUM@@YAXVstream@brook@@AAUfloat4@@@Z 00403c30 f   reducetostream.obj
 0001:00002db0       ?bane@@YAHXZ               00403db0 f   reducetostream.obj
 0001:00002f90       _main                      00403f90 f   reducetostream.obj
 0001:00003690       ?assign@?$basic_string@DU?$char_traits@D@std@@V?$allocator@D@2@@std@@QAEAAV12@ABV12@II@Z 00404690 f i reducetostream.obj
 0001:00003770       ?_Ufill@?$vector@Vgpu_input_desc@desc@brook@@V?$allocator@Vgpu_input_desc@desc@brook@@@std@@@std@@IAEPAVgpu_input_desc@desc@brook@@PAV345@IABV345@@Z 00404770 f i reducetostream.obj
 0001:000037b0       ?assign@?$basic_string@DU?$char_traits@D@std@@V?$allocator@D@2@@std@@QAEAAV12@PBDI@Z 004047b0 f i reducetostream.obj
 0001:00003880       ?_Destroy@?$vector@Vgpu_input_desc@desc@brook@@V?$allocator@Vgpu_input_desc@desc@brook@@@std@@@std@@IAEXPAVgpu_input_desc@desc@brook@@0@Z 00404880 f i reducetostream.obj
 0001:00003890       ??$_Ucopy@V?$_Vector_const_iterator@Vgpu_input_desc@desc@brook@@V?$allocator@Vgpu_input_desc@desc@brook@@@std@@@std@@@?$vector@Vgpu_input_desc@desc@brook@@V?$allocator@Vgpu_input_desc@desc@brook@@@std@@@std@@IAEPAVgpu_input_desc@desc@brook@@V?$_Vector_const_iterator@Vgpu_input_desc@desc@brook@@V?$allocator@Vgpu_input_desc@desc@brook@@@std@@@1@0PAV234@@Z 00404890 f i reducetostream.obj
 0001:000038c0       ??$_Unchecked_uninitialized_move@PAVgpu_input_desc@desc@brook@@PAV123@V?$allocator@Vgpu_input_desc@desc@brook@@@std@@@stdext@@YAPAVgpu_input_desc@desc@brook@@PAV123@00AAV?$allocator@Vgpu_input_desc@desc@brook@@@std@@@Z 004048c0 f i reducetostream.obj
 0001:000038f0       ?erase@?$vector@Vgpu_input_desc@desc@brook@@V?$allocator@Vgpu_input_desc@desc@brook@@@std@@@std@@QAE?AV?$_Vector_iterator@Vgpu_input_desc@desc@brook@@V?$allocator@Vgpu_input_desc@desc@brook@@@std@@@2@V32@0@Z 004048f0 f i reducetostream.obj
 0001:00003960       ??0?$basic_string@DU?$char_traits@D@std@@V?$allocator@D@2@@std@@QAE@ABV01@@Z 00404960 f i reducetostream.obj
 0001:00003990       ?assign@?$basic_string@DU?$char_traits@D@std@@V?$allocator@D@2@@std@@QAEAAV12@PBD@Z 00404990 f i reducetostream.obj
 0001:000039c0       ?_Tidy@?$vector@Vgpu_input_desc@desc@brook@@V?$allocator@Vgpu_input_desc@desc@brook@@@std@@@std@@IAEXXZ 004049c0 f i reducetostream.obj
 0001:000039f0       ??$_Umove@PAVgpu_input_desc@desc@brook@@@?$vector@Vgpu_input_desc@desc@brook@@V?$allocator@Vgpu_input_desc@desc@brook@@@std@@@std@@IAEPAVgpu_input_desc@desc@brook@@PAV234@00@Z 004049f0 f i reducetostream.obj
 0001:00003a20       ?clear@?$vector@Vgpu_input_desc@desc@brook@@V?$allocator@Vgpu_input_desc@desc@brook@@@std@@@std@@QAEXXZ 00404a20 f i reducetostream.obj
 0001:00003a60       ??0logic_error@std@@QAE@ABV?$basic_string@DU?$char_traits@D@std@@V?$allocator@D@2@@1@@Z 00404a60 f i reducetostream.obj
 0001:00003ad0       ??0length_error@std@@QAE@ABV?$basic_string@DU?$char_traits@D@std@@V?$allocator@D@2@@1@@Z 00404ad0 f i reducetostream.obj
 0001:00003af0       ??1length_error@std@@UAE@XZ 00404af0 f i reducetostream.obj
 0001:00003b30       ??_Glength_error@std@@UAEPAXI@Z 00404b30 f i reducetostream.obj
 0001:00003b30       ??_Elength_error@std@@UAEPAXI@Z 00404b30 f i reducetostream.obj
 0001:00003b80       ??0?$basic_string@DU?$char_traits@D@std@@V?$allocator@D@2@@std@@QAE@PBD@Z 00404b80 f i reducetostream.obj
 0001:00003bc0       ??1?$vector@Vgpu_input_desc@desc@brook@@V?$allocator@Vgpu_input_desc@desc@brook@@@std@@@std@@QAE@XZ 00404bc0 f i reducetostream.obj
 0001:00003bf0       ?_Xlen@?$vector@Vgpu_input_desc@desc@brook@@V?$allocator@Vgpu_input_desc@desc@brook@@@std@@@std@@KAXXZ 00404bf0 f i reducetostream.obj
 0001:00003c70       ??0logic_error@std@@QAE@ABV01@@Z 00404c70 f i reducetostream.obj
 0001:00003cf0       ?_Xlen@?$vector@Vgpu_pass_desc@desc@brook@@V?$allocator@Vgpu_pass_desc@desc@brook@@@std@@@std@@KAXXZ 00404cf0 f i reducetostream.obj
 0001:00003d70       ?_Xlen@?$vector@Vgpu_technique_desc@desc@brook@@V?$allocator@Vgpu_technique_desc@desc@brook@@@std@@@std@@KAXXZ 00404d70 f i reducetostream.obj
 0001:00003df0       ??0length_error@std@@QAE@ABV01@@Z 00404df0 f i reducetostream.obj
 0001:00003e10       ??1gpu_pass_desc@desc@brook@@QAE@XZ 00404e10 f i reducetostream.obj
 0001:00003e80       ?_Buy@?$vector@Vgpu_input_desc@desc@brook@@V?$allocator@Vgpu_input_desc@desc@brook@@@std@@@std@@IAE_NI@Z 00404e80 f i reducetostream.obj
 0001:00003ed0       ?_Buy@?$vector@Vgpu_pass_desc@desc@brook@@V?$allocator@Vgpu_pass_desc@desc@brook@@@std@@@std@@IAE_NI@Z 00404ed0 f i reducetostream.obj
 0001:00003f20       ?_Buy@?$vector@Vgpu_technique_desc@desc@brook@@V?$allocator@Vgpu_technique_desc@desc@brook@@@std@@@std@@IAE_NI@Z 00404f20 f i reducetostream.obj
 0001:00003f80       ?_Insert_n@?$vector@Vgpu_input_desc@desc@brook@@V?$allocator@Vgpu_input_desc@desc@brook@@@std@@@std@@IAEXV?$_Vector_iterator@Vgpu_input_desc@desc@brook@@V?$allocator@Vgpu_input_desc@desc@brook@@@std@@@2@IABVgpu_input_desc@desc@brook@@@Z 00404f80 f i reducetostream.obj
 0001:000041e0       ??0?$vector@Vgpu_input_desc@desc@brook@@V?$allocator@Vgpu_input_desc@desc@brook@@@std@@@std@@QAE@ABV01@@Z 004051e0 f i reducetostream.obj
 0001:000042d0       ??4?$vector@Vgpu_input_desc@desc@brook@@V?$allocator@Vgpu_input_desc@desc@brook@@@std@@@std@@QAEAAV01@ABV01@@Z 004052d0 f i reducetostream.obj
 0001:00004400       ??_Ggpu_pass_desc@desc@brook@@QAEPAXI@Z 00405400 f i reducetostream.obj
 0001:00004420       ??0?$vector@Vgpu_input_desc@desc@brook@@V?$allocator@Vgpu_input_desc@desc@brook@@@std@@@std@@QAE@XZ 00405420 f i reducetostream.obj
 0001:00004430       ??0?$vector@Vgpu_pass_desc@desc@brook@@V?$allocator@Vgpu_pass_desc@desc@brook@@@std@@@std@@QAE@XZ 00405430 f i reducetostream.obj
 0001:00004440       ??0?$vector@Vgpu_technique_desc@desc@brook@@V?$allocator@Vgpu_technique_desc@desc@brook@@@std@@@std@@QAE@XZ 00405440 f i reducetostream.obj
 0001:00004450       ?insert@?$vector@Vgpu_input_desc@desc@brook@@V?$allocator@Vgpu_input_desc@desc@brook@@@std@@@std@@QAE?AV?$_Vector_iterator@Vgpu_input_desc@desc@brook@@V?$allocator@Vgpu_input_desc@desc@brook@@@std@@@2@V32@ABVgpu_input_desc@desc@brook@@@Z 00405450 f i reducetostream.obj
 0001:000044e0       ??0gpu_pass_desc@desc@brook@@QAE@ABV012@@Z 004054e0 f i reducetostream.obj
 0001:00004570       ??4gpu_pass_desc@desc@brook@@QAEAAV012@ABV012@@Z 00405570 f i reducetostream.obj
 0001:000045c0       ??$_Construct@Vgpu_pass_desc@desc@brook@@V123@@std@@YAXPAVgpu_pass_desc@desc@brook@@ABV123@@Z 004055c0 f i reducetostream.obj
 0001:00004620       ??$_Destroy@Vgpu_pass_desc@desc@brook@@@std@@YAXPAVgpu_pass_desc@desc@brook@@@Z 00405620 f i reducetostream.obj
 0001:00004630       ??$_Copy_backward_opt@PAVgpu_pass_desc@desc@brook@@PAV123@Uforward_iterator_tag@std@@@std@@YAPAVgpu_pass_desc@desc@brook@@PAV123@00Uforward_iterator_tag@0@U_Nonscalar_ptr_iterator_tag@0@U_Range_checked_iterator_tag@0@@Z 00405630 f i reducetostream.obj
 0001:00004690       ??$_Copy_opt@PAVgpu_pass_desc@desc@brook@@PAV123@Uforward_iterator_tag@std@@@std@@YAPAVgpu_pass_desc@desc@brook@@PAV123@00Uforward_iterator_tag@0@U_Nonscalar_ptr_iterator_tag@0@U_Range_checked_iterator_tag@0@@Z 00405690 f i reducetostream.obj
 0001:000046f0       ??0gpu_pass_desc@desc@brook@@QAE@PBD@Z 004056f0 f i reducetostream.obj
 0001:00004760       ?push_back@?$vector@Vgpu_input_desc@desc@brook@@V?$allocator@Vgpu_input_desc@desc@brook@@@std@@@std@@QAEXABVgpu_input_desc@desc@brook@@@Z 00405760 f i reducetostream.obj
 0001:000047f0       ??$_Fill@PAVgpu_pass_desc@desc@brook@@V123@@std@@YAXPAVgpu_pass_desc@desc@brook@@0ABV123@@Z 004057f0 f i reducetostream.obj
 0001:00004850       ?construct@?$allocator@Vgpu_pass_desc@desc@brook@@@std@@QAEXPAVgpu_pass_desc@desc@brook@@ABV345@@Z 00405850 f i reducetostream.obj
 0001:00004870       ?destroy@?$allocator@Vgpu_pass_desc@desc@brook@@@std@@QAEXPAVgpu_pass_desc@desc@brook@@@Z 00405870 f i reducetostream.obj
 0001:00004880       ??$_Copy_backward_opt@PAVgpu_pass_desc@desc@brook@@PAV123@@std@@YAPAVgpu_pass_desc@desc@brook@@PAV123@00Urandom_access_iterator_tag@0@U_Nonscalar_ptr_iterator_tag@0@U_Range_checked_iterator_tag@0@@Z 00405880 f i reducetostream.obj
 0001:000048e0       ??$_Uninit_copy@PBVgpu_pass_desc@desc@brook@@PAV123@V?$allocator@Vgpu_pass_desc@desc@brook@@@std@@@std@@YAPAVgpu_pass_desc@desc@brook@@PBV123@0PAV123@AAV?$allocator@Vgpu_pass_desc@desc@brook@@@0@U_Nonscalar_ptr_iterator_tag@0@U_Range_checked_iterator_tag@0@@Z 004058e0 f i reducetostream.obj
 0001:00004980       ??$_Copy_opt@PAVgpu_pass_desc@desc@brook@@PAV123@@std@@YAPAVgpu_pass_desc@desc@brook@@PAV123@00Urandom_access_iterator_tag@0@U_Nonscalar_ptr_iterator_tag@0@U_Range_checked_iterator_tag@0@@Z 00405980 f i reducetostream.obj
 0001:000049e0       ??$_Uninit_copy@PAVgpu_pass_desc@desc@brook@@PAV123@V?$allocator@Vgpu_pass_desc@desc@brook@@@std@@@std@@YAPAVgpu_pass_desc@desc@brook@@PAV123@00AAV?$allocator@Vgpu_pass_desc@desc@brook@@@0@U_Nonscalar_ptr_iterator_tag@0@U_Range_checked_iterator_tag@0@@Z 004059e0 f i reducetostream.obj
 0001:00004a80       ?constant@gpu_pass_desc@desc@brook@@QAEAAV123@HH@Z 00405a80 f i reducetostream.obj
 0001:00004ab0       ?sampler@gpu_pass_desc@desc@brook@@QAEAAV123@HH@Z 00405ab0 f i reducetostream.obj
 0001:00004ae0       ?interpolant@gpu_pass_desc@desc@brook@@QAEAAV123@HH@Z 00405ae0 f i reducetostream.obj
 0001:00004b10       ?output@gpu_pass_desc@desc@brook@@QAEAAV123@HH@Z 00405b10 f i reducetostream.obj
 0001:00004b40       ??$fill@PAVgpu_pass_desc@desc@brook@@V123@@std@@YAXPAVgpu_pass_desc@desc@brook@@0ABV123@@Z 00405b40 f i reducetostream.obj
 0001:00004b50       ??$_Uninit_fill_n@PAVgpu_pass_desc@desc@brook@@IV123@V?$allocator@Vgpu_pass_desc@desc@brook@@@std@@@std@@YAXPAVgpu_pass_desc@desc@brook@@IABV123@AAV?$allocator@Vgpu_pass_desc@desc@brook@@@0@U_Nonscalar_ptr_iterator_tag@0@U_Range_checked_iterator_tag@0@@Z 00405b50 f i reducetostream.obj
 0001:00004bf0       ??$_Destroy_range@Vgpu_pass_desc@desc@brook@@V?$allocator@Vgpu_pass_desc@desc@brook@@@std@@@std@@YAXPAVgpu_pass_desc@desc@brook@@0AAV?$allocator@Vgpu_pass_desc@desc@brook@@@0@U_Nonscalar_ptr_iterator_tag@0@@Z 00405bf0 f i reducetostream.obj
 0001:00004c20       ??$_Move_backward_opt@PAVgpu_pass_desc@desc@brook@@PAV123@Urandom_access_iterator_tag@std@@U_Undefined_move_tag@5@@std@@YAPAVgpu_pass_desc@desc@brook@@PAV123@00Urandom_access_iterator_tag@0@U_Undefined_move_tag@0@U_Range_checked_iterator_tag@0@@Z 00405c20 f i reducetostream.obj
 0001:00004c40       ??$unchecked_uninitialized_copy@V?$_Vector_const_iterator@Vgpu_pass_desc@desc@brook@@V?$allocator@Vgpu_pass_desc@desc@brook@@@std@@@std@@PAVgpu_pass_desc@desc@brook@@V?$allocator@Vgpu_pass_desc@desc@brook@@@2@@stdext@@YAPAVgpu_pass_desc@desc@brook@@V?$_Vector_const_iterator@Vgpu_pass_desc@desc@brook@@V?$allocator@Vgpu_pass_desc@desc@brook@@@std@@@std@@0PAV123@AAV?$allocator@Vgpu_pass_desc@desc@brook@@@5@@Z 00405c40 f i reducetostream.obj
 0001:00004c70       ??$unchecked_copy@PAVgpu_pass_desc@desc@brook@@PAV123@@stdext@@YAPAVgpu_pass_desc@desc@brook@@PAV123@00@Z 00405c70 f i reducetostream.obj
 0001:00004ca0       ??$unchecked_uninitialized_copy@PAVgpu_pass_desc@desc@brook@@PAV123@V?$allocator@Vgpu_pass_desc@desc@brook@@@std@@@stdext@@YAPAVgpu_pass_desc@desc@brook@@PAV123@00AAV?$allocator@Vgpu_pass_desc@desc@brook@@@std@@@Z 00405ca0 f i reducetostream.obj
 0001:00004cd0       ??$unchecked_uninitialized_fill_n@PAVgpu_pass_desc@desc@brook@@IV123@V?$allocator@Vgpu_pass_desc@desc@brook@@@std@@@stdext@@YAXPAVgpu_pass_desc@desc@brook@@IABV123@AAV?$allocator@Vgpu_pass_desc@desc@brook@@@std@@@Z 00405cd0 f i reducetostream.obj
 0001:00004d00       ??$_Destroy_range@Vgpu_pass_desc@desc@brook@@V?$allocator@Vgpu_pass_desc@desc@brook@@@std@@@std@@YAXPAVgpu_pass_desc@desc@brook@@0AAV?$allocator@Vgpu_pass_desc@desc@brook@@@0@@Z 00405d00 f i reducetostream.obj
 0001:00004d30       ??$_Unchecked_move_backward@PAVgpu_pass_desc@desc@brook@@PAV123@@stdext@@YAPAVgpu_pass_desc@desc@brook@@PAV123@00@Z 00405d30 f i reducetostream.obj
 0001:00004d60       ??$_Ucopy@V?$_Vector_const_iterator@Vgpu_pass_desc@desc@brook@@V?$allocator@Vgpu_pass_desc@desc@brook@@@std@@@std@@@?$vector@Vgpu_pass_desc@desc@brook@@V?$allocator@Vgpu_pass_desc@desc@brook@@@std@@@std@@IAEPAVgpu_pass_desc@desc@brook@@V?$_Vector_const_iterator@Vgpu_pass_desc@desc@brook@@V?$allocator@Vgpu_pass_desc@desc@brook@@@std@@@1@0PAV234@@Z 00405d60 f i reducetostream.obj
 0001:00004d90       ??$_Uninit_move@PAVgpu_pass_desc@desc@brook@@PAV123@V?$allocator@Vgpu_pass_desc@desc@brook@@@std@@U_Undefined_move_tag@5@@std@@YAPAVgpu_pass_desc@desc@brook@@PAV123@00AAV?$allocator@Vgpu_pass_desc@desc@brook@@@0@U_Undefined_move_tag@0@U_Range_checked_iterator_tag@0@@Z 00405d90 f i reducetostream.obj
 0001:00004db0       ??$_Ucopy@PAVgpu_pass_desc@desc@brook@@@?$vector@Vgpu_pass_desc@desc@brook@@V?$allocator@Vgpu_pass_desc@desc@brook@@@std@@@std@@IAEPAVgpu_pass_desc@desc@brook@@PAV234@00@Z 00405db0 f i reducetostream.obj
 0001:00004de0       ?_Ufill@?$vector@Vgpu_pass_desc@desc@brook@@V?$allocator@Vgpu_pass_desc@desc@brook@@@std@@@std@@IAEPAVgpu_pass_desc@desc@brook@@PAV345@IABV345@@Z 00405de0 f i reducetostream.obj
 0001:00004e20       ?_Destroy@?$vector@Vgpu_pass_desc@desc@brook@@V?$allocator@Vgpu_pass_desc@desc@brook@@@std@@@std@@IAEXPAVgpu_pass_desc@desc@brook@@0@Z 00405e20 f i reducetostream.obj
 0001:00004e50       ??$_Unchecked_uninitialized_move@PAVgpu_pass_desc@desc@brook@@PAV123@V?$allocator@Vgpu_pass_desc@desc@brook@@@std@@@stdext@@YAPAVgpu_pass_desc@desc@brook@@PAV123@00AAV?$allocator@Vgpu_pass_desc@desc@brook@@@std@@@Z 00405e50 f i reducetostream.obj
 0001:00004e80       ?erase@?$vector@Vgpu_pass_desc@desc@brook@@V?$allocator@Vgpu_pass_desc@desc@brook@@@std@@@std@@QAE?AV?$_Vector_iterator@Vgpu_pass_desc@desc@brook@@V?$allocator@Vgpu_pass_desc@desc@brook@@@std@@@2@V32@0@Z 00405e80 f i reducetostream.obj
 0001:00004f00       ?_Tidy@?$vector@Vgpu_pass_desc@desc@brook@@V?$allocator@Vgpu_pass_desc@desc@brook@@@std@@@std@@IAEXXZ 00405f00 f i reducetostream.obj
 0001:00004f50       ??0?$vector@Vgpu_pass_desc@desc@brook@@V?$allocator@Vgpu_pass_desc@desc@brook@@@std@@@std@@QAE@ABV01@@Z 00405f50 f i reducetostream.obj
 0001:00005020       ??$_Umove@PAVgpu_pass_desc@desc@brook@@@?$vector@Vgpu_pass_desc@desc@brook@@V?$allocator@Vgpu_pass_desc@desc@brook@@@std@@@std@@IAEPAVgpu_pass_desc@desc@brook@@PAV234@00@Z 00406020 f i reducetostream.obj
 0001:00005050       ?clear@?$vector@Vgpu_pass_desc@desc@brook@@V?$allocator@Vgpu_pass_desc@desc@brook@@@std@@@std@@QAEXXZ 00406050 f i reducetostream.obj
 0001:00005090       ??1?$vector@Vgpu_pass_desc@desc@brook@@V?$allocator@Vgpu_pass_desc@desc@brook@@@std@@@std@@QAE@XZ 00406090 f i reducetostream.obj
 0001:000050a0       ?_Insert_n@?$vector@Vgpu_pass_desc@desc@brook@@V?$allocator@Vgpu_pass_desc@desc@brook@@@std@@@std@@IAEXV?$_Vector_iterator@Vgpu_pass_desc@desc@brook@@V?$allocator@Vgpu_pass_desc@desc@brook@@@std@@@2@IABVgpu_pass_desc@desc@brook@@@Z 004060a0 f i reducetostream.obj
 0001:000053a0       ??0gpu_technique_desc@desc@brook@@QAE@ABV012@@Z 004063a0 f i reducetostream.obj
 0001:000053d0       ??4?$vector@Vgpu_pass_desc@desc@brook@@V?$allocator@Vgpu_pass_desc@desc@brook@@@std@@@std@@QAEAAV01@ABV01@@Z 004063d0 f i reducetostream.obj
 0001:00005550       ??$_Construct@Vgpu_technique_desc@desc@brook@@V123@@std@@YAXPAVgpu_technique_desc@desc@brook@@ABV123@@Z 00406550 f i reducetostream.obj
 0001:000055d0       ??0gpu_technique_desc@desc@brook@@QAE@XZ 004065d0 f i reducetostream.obj
 0001:000055f0       ??1gpu_technique_desc@desc@brook@@QAE@XZ 004065f0 f i reducetostream.obj
 0001:00005600       ?insert@?$vector@Vgpu_pass_desc@desc@brook@@V?$allocator@Vgpu_pass_desc@desc@brook@@@std@@@std@@QAE?AV?$_Vector_iterator@Vgpu_pass_desc@desc@brook@@V?$allocator@Vgpu_pass_desc@desc@brook@@@std@@@2@V32@ABVgpu_pass_desc@desc@brook@@@Z 00406600 f i reducetostream.obj
 0001:000056b0       ??4gpu_technique_desc@desc@brook@@QAEAAV012@ABV012@@Z 004066b0 f i reducetostream.obj
 0001:000056e0       ?construct@?$allocator@Vgpu_technique_desc@desc@brook@@@std@@QAEXPAVgpu_technique_desc@desc@brook@@ABV345@@Z 004066e0 f i reducetostream.obj
 0001:00005700       ??_Ggpu_technique_desc@desc@brook@@QAEPAXI@Z 00406700 f i reducetostream.obj
 0001:00005730       ??$_Copy_backward_opt@PAVgpu_technique_desc@desc@brook@@PAV123@Uforward_iterator_tag@std@@@std@@YAPAVgpu_technique_desc@desc@brook@@PAV123@00Uforward_iterator_tag@0@U_Nonscalar_ptr_iterator_tag@0@U_Range_checked_iterator_tag@0@@Z 00406730 f i reducetostream.obj
 0001:00005780       ?push_back@?$vector@Vgpu_pass_desc@desc@brook@@V?$allocator@Vgpu_pass_desc@desc@brook@@@std@@@std@@QAEXABVgpu_pass_desc@desc@brook@@@Z 00406780 f i reducetostream.obj
 0001:00005820       ??$_Fill@PAVgpu_technique_desc@desc@brook@@V123@@std@@YAXPAVgpu_technique_desc@desc@brook@@0ABV123@@Z 00406820 f i reducetostream.obj
 0001:00005870       ??$_Copy_backward_opt@PAVgpu_technique_desc@desc@brook@@PAV123@@std@@YAPAVgpu_technique_desc@desc@brook@@PAV123@00Urandom_access_iterator_tag@0@U_Nonscalar_ptr_iterator_tag@0@U_Range_checked_iterator_tag@0@@Z 00406870 f i reducetostream.obj
 0001:000058e0       ??$_Destroy@Vgpu_technique_desc@desc@brook@@@std@@YAXPAVgpu_technique_desc@desc@brook@@@Z 004068e0 f i reducetostream.obj
 0001:000058f0       ?pass@gpu_technique_desc@desc@brook@@QAEAAV123@ABVgpu_pass_desc@23@@Z 004068f0 f i reducetostream.obj
 0001:00005910       ??$fill@PAVgpu_technique_desc@desc@brook@@V123@@std@@YAXPAVgpu_technique_desc@desc@brook@@0ABV123@@Z 00406910 f i reducetostream.obj
 0001:00005920       ??$_Move_backward_opt@PAVgpu_technique_desc@desc@brook@@PAV123@Urandom_access_iterator_tag@std@@U_Undefined_move_tag@5@@std@@YAPAVgpu_technique_desc@desc@brook@@PAV123@00Urandom_access_iterator_tag@0@U_Undefined_move_tag@0@U_Range_checked_iterator_tag@0@@Z 00406920 f i reducetostream.obj
 0001:00005940       ?destroy@?$allocator@Vgpu_technique_desc@desc@brook@@@std@@QAEXPAVgpu_technique_desc@desc@brook@@@Z 00406940 f i reducetostream.obj
 0001:00005950       ??$_Uninit_copy@PBVgpu_technique_desc@desc@brook@@PAV123@V?$allocator@Vgpu_technique_desc@desc@brook@@@std@@@std@@YAPAVgpu_technique_desc@desc@brook@@PBV123@0PAV123@AAV?$allocator@Vgpu_technique_desc@desc@brook@@@0@U_Nonscalar_ptr_iterator_tag@0@U_Range_checked_iterator_tag@0@@Z 00406950 f i reducetostream.obj
 0001:000059e0       ??$_Uninit_copy@PAVgpu_technique_desc@desc@brook@@PAV123@V?$allocator@Vgpu_technique_desc@desc@brook@@@std@@@std@@YAPAVgpu_technique_desc@desc@brook@@PAV123@00AAV?$allocator@Vgpu_technique_desc@desc@brook@@@0@U_Nonscalar_ptr_iterator_tag@0@U_Range_checked_iterator_tag@0@@Z 004069e0 f i reducetostream.obj
 0001:00005a70       ??$_Unchecked_move_backward@PAVgpu_technique_desc@desc@brook@@PAV123@@stdext@@YAPAVgpu_technique_desc@desc@brook@@PAV123@00@Z 00406a70 f i reducetostream.obj
 0001:00005aa0       ??$unchecked_uninitialized_copy@V?$_Vector_const_iterator@Vgpu_technique_desc@desc@brook@@V?$allocator@Vgpu_technique_desc@desc@brook@@@std@@@std@@PAVgpu_technique_desc@desc@brook@@V?$allocator@Vgpu_technique_desc@desc@brook@@@2@@stdext@@YAPAVgpu_technique_desc@desc@brook@@V?$_Vector_const_iterator@Vgpu_technique_desc@desc@brook@@V?$allocator@Vgpu_technique_desc@desc@brook@@@std@@@std@@0PAV123@AAV?$allocator@Vgpu_technique_desc@desc@brook@@@5@@Z 00406aa0 f i reducetostream.obj
 0001:00005ad0       ??$_Uninit_fill_n@PAVgpu_technique_desc@desc@brook@@IV123@V?$allocator@Vgpu_technique_desc@desc@brook@@@std@@@std@@YAXPAVgpu_technique_desc@desc@brook@@IABV123@AAV?$allocator@Vgpu_technique_desc@desc@brook@@@0@U_Nonscalar_ptr_iterator_tag@0@U_Range_checked_iterator_tag@0@@Z 00406ad0 f i reducetostream.obj
 0001:00005b60       ??$_Destroy_range@Vgpu_technique_desc@desc@brook@@V?$allocator@Vgpu_technique_desc@desc@brook@@@std@@@std@@YAXPAVgpu_technique_desc@desc@brook@@0AAV?$allocator@Vgpu_technique_desc@desc@brook@@@0@U_Nonscalar_ptr_iterator_tag@0@@Z 00406b60 f i reducetostream.obj
 0001:00005c50       ??$unchecked_uninitialized_copy@PAVgpu_technique_desc@desc@brook@@PAV123@V?$allocator@Vgpu_technique_desc@desc@brook@@@std@@@stdext@@YAPAVgpu_technique_desc@desc@brook@@PAV123@00AAV?$allocator@Vgpu_technique_desc@desc@brook@@@std@@@Z 00406c50 f i reducetostream.obj
 0001:00005c80       ??$_Ucopy@V?$_Vector_const_iterator@Vgpu_technique_desc@desc@brook@@V?$allocator@Vgpu_technique_desc@desc@brook@@@std@@@std@@@?$vector@Vgpu_technique_desc@desc@brook@@V?$allocator@Vgpu_technique_desc@desc@brook@@@std@@@std@@IAEPAVgpu_technique_desc@desc@brook@@V?$_Vector_const_iterator@Vgpu_technique_desc@desc@brook@@V?$allocator@Vgpu_technique_desc@desc@brook@@@std@@@1@0PAV234@@Z 00406c80 f i reducetostream.obj
 0001:00005cb0       ??$unchecked_uninitialized_fill_n@PAVgpu_technique_desc@desc@brook@@IV123@V?$allocator@Vgpu_technique_desc@desc@brook@@@std@@@stdext@@YAXPAVgpu_technique_desc@desc@brook@@IABV123@AAV?$allocator@Vgpu_technique_desc@desc@brook@@@std@@@Z 00406cb0 f i reducetostream.obj
 0001:00005ce0       ??$_Destroy_range@Vgpu_technique_desc@desc@brook@@V?$allocator@Vgpu_technique_desc@desc@brook@@@std@@@std@@YAXPAVgpu_technique_desc@desc@brook@@0AAV?$allocator@Vgpu_technique_desc@desc@brook@@@0@@Z 00406ce0 f i reducetostream.obj
 0001:00005d00       ??$_Uninit_move@PAVgpu_technique_desc@desc@brook@@PAV123@V?$allocator@Vgpu_technique_desc@desc@brook@@@std@@U_Undefined_move_tag@5@@std@@YAPAVgpu_technique_desc@desc@brook@@PAV123@00AAV?$allocator@Vgpu_technique_desc@desc@brook@@@0@U_Undefined_move_tag@0@U_Range_checked_iterator_tag@0@@Z 00406d00 f i reducetostream.obj
 0001:00005d20       ?_Ufill@?$vector@Vgpu_technique_desc@desc@brook@@V?$allocator@Vgpu_technique_desc@desc@brook@@@std@@@std@@IAEPAVgpu_technique_desc@desc@brook@@PAV345@IABV345@@Z 00406d20 f i reducetostream.obj
 0001:00005d60       ?_Destroy@?$vector@Vgpu_technique_desc@desc@brook@@V?$allocator@Vgpu_technique_desc@desc@brook@@@std@@@std@@IAEXPAVgpu_technique_desc@desc@brook@@0@Z 00406d60 f i reducetostream.obj
 0001:00005d80       ??$_Unchecked_uninitialized_move@PAVgpu_technique_desc@desc@brook@@PAV123@V?$allocator@Vgpu_technique_desc@desc@brook@@@std@@@stdext@@YAPAVgpu_technique_desc@desc@brook@@PAV123@00AAV?$allocator@Vgpu_technique_desc@desc@brook@@@std@@@Z 00406d80 f i reducetostream.obj
 0001:00005db0       ?_Tidy@?$vector@Vgpu_technique_desc@desc@brook@@V?$allocator@Vgpu_technique_desc@desc@brook@@@std@@@std@@IAEXXZ 00406db0 f i reducetostream.obj
 0001:00005df0       ??$_Umove@PAVgpu_technique_desc@desc@brook@@@?$vector@Vgpu_technique_desc@desc@brook@@V?$allocator@Vgpu_technique_desc@desc@brook@@@std@@@std@@IAEPAVgpu_technique_desc@desc@brook@@PAV234@00@Z 00406df0 f i reducetostream.obj
 0001:00005e20       ??0?$vector@Vgpu_technique_desc@desc@brook@@V?$allocator@Vgpu_technique_desc@desc@brook@@@std@@@std@@QAE@ABV01@@Z 00406e20 f i reducetostream.obj
 0001:00005ef0       ??1?$vector@Vgpu_technique_desc@desc@brook@@V?$allocator@Vgpu_technique_desc@desc@brook@@@std@@@std@@QAE@XZ 00406ef0 f i reducetostream.obj
 0001:00005f30       ?_Insert_n@?$vector@Vgpu_technique_desc@desc@brook@@V?$allocator@Vgpu_technique_desc@desc@brook@@@std@@@std@@IAEXV?$_Vector_iterator@Vgpu_technique_desc@desc@brook@@V?$allocator@Vgpu_technique_desc@desc@brook@@@std@@@2@IABVgpu_technique_desc@desc@brook@@@Z 00406f30 f i reducetostream.obj
 0001:00006260       ??0gpu_kernel_desc@desc@brook@@QAE@XZ 00407260 f i reducetostream.obj
 0001:00006270       ??1gpu_kernel_desc@desc@brook@@QAE@XZ 00407270 f i reducetostream.obj
 0001:000062b0       ??0gpu_kernel_desc@desc@brook@@QAE@ABV012@@Z 004072b0 f i reducetostream.obj
 0001:000062d0       ?insert@?$vector@Vgpu_technique_desc@desc@brook@@V?$allocator@Vgpu_technique_desc@desc@brook@@@std@@@std@@QAE?AV?$_Vector_iterator@Vgpu_technique_desc@desc@brook@@V?$allocator@Vgpu_technique_desc@desc@brook@@@std@@@2@V32@ABVgpu_technique_desc@desc@brook@@@Z 004072d0 f i reducetostream.obj
 0001:00006390       ?push_back@?$vector@Vgpu_technique_desc@desc@brook@@V?$allocator@Vgpu_technique_desc@desc@brook@@@std@@@std@@QAEXABVgpu_technique_desc@desc@brook@@@Z 00407390 f i reducetostream.obj
 0001:00006440       ?technique@gpu_kernel_desc@desc@brook@@QAEAAV123@ABVgpu_technique_desc@23@@Z 00407440 f i reducetostream.obj
 0001:00006460       ?to_int_type@?$char_traits@D@std@@SAHABD@Z 00407460 f i brook:brt.obj
 0001:00006470       ?eq_int_type@?$char_traits@D@std@@SA_NABH0@Z 00407470 f i brook:brt.obj
 0001:00006490       ?eof@?$char_traits@D@std@@SAHXZ 00407490 f i brook:brt.obj
 0001:000064a0       ?rdstate@ios_base@std@@QBEHXZ 004074a0 f i brook:brt.obj
 0001:000064b0       ?good@ios_base@std@@QBE_NXZ 004074b0 f i brook:brt.obj
 0001:000064c0       ?fail@ios_base@std@@QBE_NXZ 004074c0 f i brook:brt.obj
 0001:000064d0       ?flags@ios_base@std@@QBEHXZ 004074d0 f i brook:brt.obj
 0001:000064e0       ?width@ios_base@std@@QBEHXZ 004074e0 f i brook:brt.obj
 0001:000064f0       ?width@ios_base@std@@QAEHH@Z 004074f0 f i brook:brt.obj
 0001:00006500       _fabsf                     00407500 f i brook:brt.obj
 0001:00006510       _floorf                    00407510 f i brook:brt.obj
 0001:00006530       ?fabs@@YAMM@Z              00407530 f i brook:brt.obj
 0001:00006540       ?floor@@YAMM@Z             00407540 f i brook:brt.obj
 0001:00006560       ?acquireReference@StreamInterface@brook@@QAEXXZ 00407560 f i brook:brt.obj
 0001:00006570       ?releaseReference@StreamInterface@brook@@QAEXXZ 00407570 f i brook:brt.obj
 0001:00006580       ??Biter@brook@@QBEPAVIter@1@XZ 00407580 f i brook:brt.obj
 0001:000065a0       ??0LogWriter@internal@brook@@QAE@H@Z 004075a0 f i brook:brt.obj
 0001:000065d0       ??1LogWriter@internal@brook@@QAE@XZ 004075d0 f i brook:brt.obj
 0001:000065e0       ??BLogWriter@internal@brook@@QAE_NXZ 004075e0 f i brook:brt.obj
 0001:000065f0       ??DLogWriter@internal@brook@@QAEAAV?$basic_ostream@DU?$char_traits@D@std@@@std@@XZ 004075f0 f i brook:brt.obj
 0001:00006600       ?finite_flt@@YAMM@Z        00407600 f i brook:brt.obj
 0001:00006630       ?isnan_flt@@YAMM@Z         00407630 f i brook:brt.obj
 0001:00006680       ?GetInstanceRef@Runtime@brook@@CAAAPAV12@XZ 00407680 f   brook:brt.obj
 0001:00006690       ?getIndexedFieldRenderData@StreamInterface@brook@@UAEPAXI@Z 00407690 f   brook:brt.obj
 0001:000066a0       ?synchronizeRenderData@StreamInterface@brook@@UAEXXZ 004076a0 f   brook:brt.obj
 0001:000066b0       ?getElementSize@brook@@YAIW4StreamType@1@@Z 004076b0 f   brook:brt.obj
 0001:00006730       ?getElementSize@StreamInterface@brook@@QBEIXZ 00407730 f   brook:brt.obj
 0001:00006770       ?readItem@StreamInterface@brook@@UAEXPAXPAI@Z 00407770 f   brook:brt.obj
 0001:000067c0       ?fetchItemPtr@StreamInterface@brook@@UAEPAXPAXPAI@Z 004077c0 f   brook:brt.obj
 0001:00006840       ??0stream@brook@@QAE@XZ    00407840 f   brook:brt.obj
 0001:00006850       ??0stream@brook@@QAE@ABV01@@Z 00407850 f   brook:brt.obj
 0001:00006870       ??4stream@brook@@QAEAAV01@ABV01@@Z 00407870 f   brook:brt.obj
 0001:000068a0       ??1stream@brook@@QAE@XZ    004078a0 f   brook:brt.obj
 0001:000068c0       ?getSentinel@brook@@YAMXZ  004078c0 f   brook:brt.obj
 0001:000068d0       ??_Gstream@brook@@QAEPAXI@Z 004078d0 f i brook:brt.obj
 0001:00006900       ?streamPrint@@YAXPAVStreamInterface@brook@@_N@Z 00407900 f   brook:brt.obj
 0001:00006b30       ?__streamGatherOrScatterOp@@YAXPAVStreamInterface@brook@@00P6AXPAX1@Z_N@Z 00407b30 f   brook:brt.obj
 0001:00006e80       ??6?$basic_ostream@DU?$char_traits@D@std@@@std@@QAEAAV01@P6AAAV01@AAV01@@Z@Z 00407e80 f i brook:brt.obj
 0001:00006e90       ?rdbuf@?$basic_ios@DU?$char_traits@D@std@@@std@@QBEPAV?$basic_streambuf@DU?$char_traits@D@std@@@2@XZ 00407e90 f i brook:brt.obj
 0001:00006ea0       ?size@?$vector@W4StreamType@brook@@V?$allocator@W4StreamType@brook@@@std@@@std@@QBEIXZ 00407ea0 f i brook:brt.obj
 0001:00006ec0       ??A?$vector@W4StreamType@brook@@V?$allocator@W4StreamType@brook@@@std@@@std@@QAEAAW4StreamType@brook@@I@Z 00407ec0 f i brook:brt.obj
 0001:00006ef0       ?size@?$vector@IV?$allocator@I@std@@@std@@QBEIXZ 00407ef0 f i brook:brt.obj
 0001:00006f10       ??A?$vector@IV?$allocator@I@std@@@std@@QAEAAII@Z 00407f10 f i brook:brt.obj
 0001:00006f40       ?size@?$vector@PAVstream@brook@@V?$allocator@PAVstream@brook@@@std@@@std@@QBEIXZ 00407f40 f i brook:brt.obj
 0001:00006f60       ?empty@?$vector@PAVstream@brook@@V?$allocator@PAVstream@brook@@@std@@@std@@QBE_NXZ 00407f60 f i brook:brt.obj
 0001:00006f90       ??A?$vector@PAVstream@brook@@V?$allocator@PAVstream@brook@@@std@@@std@@QAEAAPAVstream@brook@@I@Z 00407f90 f i brook:brt.obj
 0001:00006fc0       ?fill@?$basic_ios@DU?$char_traits@D@std@@@std@@QBEDXZ 00407fc0 f i brook:brt.obj
 0001:00006fd0       ?pubsync@?$basic_streambuf@DU?$char_traits@D@std@@@std@@QAEHXZ 00407fd0 f i brook:brt.obj
 0001:00006fe0       ?_Unlock@?$basic_streambuf@DU?$char_traits@D@std@@@std@@QAEXXZ 00407fe0 f i brook:brt.obj
 0001:00006ff0       ?_Pnavail@?$basic_streambuf@DU?$char_traits@D@std@@@std@@IBEHXZ 00407ff0 f i brook:brt.obj
 0001:00007010       ?capacity@?$vector@W4StreamType@brook@@V?$allocator@W4StreamType@brook@@@std@@@std@@QBEIXZ 00408010 f i brook:brt.obj
 0001:00007030       ??0?$allocator@W4StreamType@brook@@@std@@QAE@XZ 00408030 f i brook:brt.obj
 0001:00007040       ?capacity@?$vector@IV?$allocator@I@std@@@std@@QBEIXZ 00408040 f i brook:brt.obj
 0001:00007060       ??0?$allocator@I@std@@QAE@XZ 00408060 f i brook:brt.obj
 0001:00007070       ?capacity@?$vector@MV?$allocator@M@std@@@std@@QBEIXZ 00408070 f i brook:brt.obj
 0001:00007090       ?size@?$vector@MV?$allocator@M@std@@@std@@QBEIXZ 00408090 f i brook:brt.obj
 0001:000070b0       ??0?$allocator@M@std@@QAE@XZ 004080b0 f i brook:brt.obj
 0001:000070c0       ?capacity@?$vector@PAVstream@brook@@V?$allocator@PAVstream@brook@@@std@@@std@@QBEIXZ 004080c0 f i brook:brt.obj
 0001:000070e0       ??0?$allocator@PAVstream@brook@@@std@@QAE@XZ 004080e0 f i brook:brt.obj
 0001:000070f0       ??Bsentry@?$basic_ostream@DU?$char_traits@D@std@@@std@@QBE_NXZ 004080f0 f i brook:brt.obj
 0001:00007100       ?tie@?$basic_ios@DU?$char_traits@D@std@@@std@@QBEPAV?$basic_ostream@DU?$char_traits@D@std@@@2@XZ 00408100 f i brook:brt.obj
 0001:00007110       ?_Lock@?$basic_streambuf@DU?$char_traits@D@std@@@std@@QAEXXZ 00408110 f i brook:brt.obj
 0001:00007120       ?_Pninc@?$basic_streambuf@DU?$char_traits@D@std@@@std@@IAEPADXZ 00408120 f i brook:brt.obj
 0001:00007140       ??0?$allocator@W4StreamType@brook@@@std@@QAE@ABV01@@Z 00408140 f i brook:brt.obj
 0001:00007150       ?deallocate@?$allocator@W4StreamType@brook@@@std@@QAEXPAW4StreamType@brook@@I@Z 00408150 f i brook:brt.obj
 0001:00007160       ??0?$allocator@I@std@@QAE@ABV01@@Z 00408160 f i brook:brt.obj
 0001:00007170       ?deallocate@?$allocator@I@std@@QAEXPAII@Z 00408170 f i brook:brt.obj
 0001:00007180       ??0?$allocator@M@std@@QAE@ABV01@@Z 00408180 f i brook:brt.obj
 0001:00007190       ?deallocate@?$allocator@M@std@@QAEXPAMI@Z 00408190 f i brook:brt.obj
 0001:000071a0       ??0?$allocator@PAVstream@brook@@@std@@QAE@ABV01@@Z 004081a0 f i brook:brt.obj
 0001:000071b0       ?deallocate@?$allocator@PAVstream@brook@@@std@@QAEXPAPAVstream@brook@@I@Z 004081b0 f i brook:brt.obj
 0001:000071c0       ??0_Sentry_base@?$basic_ostream@DU?$char_traits@D@std@@@std@@QAE@AAV12@@Z 004081c0 f i brook:brt.obj
 0001:000071f0       ??1_Sentry_base@?$basic_ostream@DU?$char_traits@D@std@@@std@@QAE@XZ 004081f0 f i brook:brt.obj
 0001:00007210       ??D?$_Vector_const_iterator@PAVstream@brook@@V?$allocator@PAVstream@brook@@@std@@@std@@QBEABQAVstream@brook@@XZ 00408210 f i brook:brt.obj
 0001:00007240       ?max_size@?$allocator@W4StreamType@brook@@@std@@QBEIXZ 00408240 f i brook:brt.obj
 0001:00007250       ?max_size@?$allocator@I@std@@QBEIXZ 00408250 f i brook:brt.obj
 0001:00007260       ?max_size@?$allocator@M@std@@QBEIXZ 00408260 f i brook:brt.obj
 0001:00007270       ?max_size@?$allocator@PAVstream@brook@@@std@@QBEIXZ 00408270 f i brook:brt.obj
 0001:00007280       ??G?$_Vector_const_iterator@W4StreamType@brook@@V?$allocator@W4StreamType@brook@@@std@@@std@@QBEHABV01@@Z 00408280 f i brook:brt.obj
 0001:000072b0       ??G?$_Vector_const_iterator@IV?$allocator@I@std@@@std@@QBEHABV01@@Z 004082b0 f i brook:brt.obj
 0001:000072e0       ??G?$_Vector_const_iterator@MV?$allocator@M@std@@@std@@QBEHABV01@@Z 004082e0 f i brook:brt.obj
 0001:00007310       ??G?$_Vector_const_iterator@PAVstream@brook@@V?$allocator@PAVstream@brook@@@std@@@std@@QBEHABV01@@Z 00408310 f i brook:brt.obj
 0001:00007340       ??0?$_Ranit@W4StreamType@brook@@HPBW412@ABW412@@std@@QAE@XZ 00408340 f i brook:brt.obj
 0001:00007350       ??0?$_Ranit@IHPBIABI@std@@QAE@XZ 00408350 f i brook:brt.obj
 0001:00007360       ??0?$_Ranit@MHPBMABM@std@@QAE@XZ 00408360 f i brook:brt.obj
 0001:00007370       ??0?$_Ranit@PAVstream@brook@@HPBQAV12@ABQAV12@@std@@QAE@XZ 00408370 f i brook:brt.obj
 0001:00007380       ??Y?$_Vector_const_iterator@W4StreamType@brook@@V?$allocator@W4StreamType@brook@@@std@@@std@@QAEAAV01@H@Z 00408380 f i brook:brt.obj
 0001:000073c0       ??Y?$_Vector_const_iterator@IV?$allocator@I@std@@@std@@QAEAAV01@H@Z 004083c0 f i brook:brt.obj
 0001:00007400       ??Y?$_Vector_const_iterator@MV?$allocator@M@std@@@std@@QAEAAV01@H@Z 00408400 f i brook:brt.obj
 0001:00007440       ??Y?$_Vector_const_iterator@PAVstream@brook@@V?$allocator@PAVstream@brook@@@std@@@std@@QAEAAV01@H@Z 00408440 f i brook:brt.obj
 0001:00007480       ??$_Allocate@W4StreamType@brook@@@std@@YAPAW4StreamType@brook@@IPAW412@@Z 00408480 f i brook:brt.obj
 0001:000074e0       ??$_Allocate@I@std@@YAPAIIPAI@Z 004084e0 f i brook:brt.obj
 0001:00007540       ??$_Allocate@M@std@@YAPAMIPAM@Z 00408540 f i brook:brt.obj
 0001:000075a0       ??$_Allocate@PAVstream@brook@@@std@@YAPAPAVstream@brook@@IPAPAV12@@Z 004085a0 f i brook:brt.obj
 0001:00007600       ?sputn@?$basic_streambuf@DU?$char_traits@D@std@@@std@@QAEHPBDH@Z 00408600 f i brook:brt.obj
 0001:00007610       ??$_Ptr_cat@PAW4StreamType@brook@@PAW412@@std@@YA?AU_Nonscalar_ptr_iterator_tag@0@AAPAW4StreamType@brook@@0@Z 00408610 f i brook:brt.obj
 0001:00007620       ??$_Ptr_cat@PAIPAI@std@@YA?AU_Scalar_ptr_iterator_tag@0@AAPAI0@Z 00408620 f i brook:brt.obj
 0001:00007630       ??$_Ptr_cat@PAMPAM@std@@YA?AU_Scalar_ptr_iterator_tag@0@AAPAM0@Z 00408630 f i brook:brt.obj
 0001:00007640       ??$_Ptr_cat@PAPAVstream@brook@@PAPAV12@@std@@YA?AU_Scalar_ptr_iterator_tag@0@AAPAPAVstream@brook@@0@Z 00408640 f i brook:brt.obj
 0001:00007650       ??$_Destroy_range@PAVstream@brook@@V?$allocator@PAVstream@brook@@@std@@@std@@YAXPAPAVstream@brook@@0AAV?$allocator@PAVstream@brook@@@0@U_Scalar_ptr_iterator_tag@0@@Z 00408650 f i brook:brt.obj
 0001:00007660       ??$_Fill@PAW4StreamType@brook@@W412@@std@@YAXPAW4StreamType@brook@@0ABW412@@Z 00408660 f i brook:brt.obj
 0001:00007680       ??$_Iter_random@PAW4StreamType@brook@@PAW412@@std@@YA?AUrandom_access_iterator_tag@0@ABQAW4StreamType@brook@@0@Z 00408680 f i brook:brt.obj
 0001:00007690       ??$_Move_cat@PAW4StreamType@brook@@@std@@YA?AU_Undefined_move_tag@0@ABQAW4StreamType@brook@@@Z 00408690 f i brook:brt.obj
 0001:000076a0       ??$_Destroy_range@IV?$allocator@I@std@@@std@@YAXPAI0AAV?$allocator@I@0@U_Scalar_ptr_iterator_tag@0@@Z 004086a0 f i brook:brt.obj
 0001:000076b0       ??$_Fill@PAII@std@@YAXPAI0ABI@Z 004086b0 f i brook:brt.obj
 0001:000076d0       ??$_Iter_random@PAIPAI@std@@YA?AUrandom_access_iterator_tag@0@ABQAI0@Z 004086d0 f i brook:brt.obj
 0001:000076e0       ??$_Move_cat@PAI@std@@YA?AU_Undefined_move_tag@0@ABQAI@Z 004086e0 f i brook:brt.obj
 0001:000076f0       ??$_Destroy_range@MV?$allocator@M@std@@@std@@YAXPAM0AAV?$allocator@M@0@U_Scalar_ptr_iterator_tag@0@@Z 004086f0 f i brook:brt.obj
 0001:00007700       ??$_Fill@PAMM@std@@YAXPAM0ABM@Z 00408700 f i brook:brt.obj
 0001:00007720       ??$_Iter_random@PAMPAM@std@@YA?AUrandom_access_iterator_tag@0@ABQAM0@Z 00408720 f i brook:brt.obj
 0001:00007730       ??$_Move_cat@PAM@std@@YA?AU_Undefined_move_tag@0@ABQAM@Z 00408730 f i brook:brt.obj
 0001:00007740       ??$_Fill@PAPAVstream@brook@@PAV12@@std@@YAXPAPAVstream@brook@@0ABQAV12@@Z 00408740 f i brook:brt.obj
 0001:00007760       ??$_Iter_random@PAPAVstream@brook@@PAPAV12@@std@@YA?AUrandom_access_iterator_tag@0@ABQAPAVstream@brook@@0@Z 00408760 f i brook:brt.obj
 0001:00007770       ??$_Move_cat@PAPAVstream@brook@@@std@@YA?AU_Undefined_move_tag@0@ABQAPAVstream@brook@@@Z 00408770 f i brook:brt.obj
 0001:00007780       ??$_Checked_base@PAW4StreamType@brook@@@std@@YAPAW4StreamType@brook@@AAPAW412@U_Unchanged_checked_iterator_base_type_tag@0@@Z 00408780 f i brook:brt.obj
 0001:00007790       ??$_Checked_base@PAI@std@@YAPAIAAPAIU_Unchanged_checked_iterator_base_type_tag@0@@Z 00408790 f i brook:brt.obj
 0001:000077a0       ??$_Copy_backward_opt@PAIPAIUrandom_access_iterator_tag@std@@@std@@YAPAIPAI00Urandom_access_iterator_tag@0@U_Scalar_ptr_iterator_tag@0@U_Range_checked_iterator_tag@0@@Z 004087a0 f i brook:brt.obj
 0001:000077d0       ??$_Checked_base@PAM@std@@YAPAMAAPAMU_Unchanged_checked_iterator_base_type_tag@0@@Z 004087d0 f i brook:brt.obj
 0001:000077e0       ??$_Copy_backward_opt@PAMPAMUrandom_access_iterator_tag@std@@@std@@YAPAMPAM00Urandom_access_iterator_tag@0@U_Scalar_ptr_iterator_tag@0@U_Range_checked_iterator_tag@0@@Z 004087e0 f i brook:brt.obj
 0001:00007810       ??$_Checked_base@PAPAVstream@brook@@@std@@YAPAPAVstream@brook@@AAPAPAV12@U_Unchanged_checked_iterator_base_type_tag@0@@Z 00408810 f i brook:brt.obj
 0001:00007820       ??$_Copy_backward_opt@PAPAVstream@brook@@PAPAV12@Urandom_access_iterator_tag@std@@@std@@YAPAPAVstream@brook@@PAPAV12@00Urandom_access_iterator_tag@0@U_Scalar_ptr_iterator_tag@0@U_Range_checked_iterator_tag@0@@Z 00408820 f i brook:brt.obj
 0001:00007850       ??$_Construct@W4StreamType@brook@@W412@@std@@YAXPAW4StreamType@brook@@ABW412@@Z 00408850 f i brook:brt.obj
 0001:00007870       ??$_Destroy@W4StreamType@brook@@@std@@YAXPAW4StreamType@brook@@@Z 00408870 f i brook:brt.obj
 0001:00007880       ??$_Iter_cat@PAI@std@@YA?AUrandom_access_iterator_tag@0@ABQAI@Z 00408880 f i brook:brt.obj
 0001:00007890       ??$_Iter_cat@PAM@std@@YA?AUrandom_access_iterator_tag@0@ABQAM@Z 00408890 f i brook:brt.obj
 0001:000078a0       ??$_Iter_cat@PAPAVstream@brook@@@std@@YA?AUrandom_access_iterator_tag@0@ABQAPAVstream@brook@@@Z 004088a0 f i brook:brt.obj
 0001:000078b0       ??$_Copy_backward_opt@PAW4StreamType@brook@@PAW412@Uforward_iterator_tag@std@@@std@@YAPAW4StreamType@brook@@PAW412@00Uforward_iterator_tag@0@U_Nonscalar_ptr_iterator_tag@0@U_Range_checked_iterator_tag@0@@Z 004088b0 f i brook:brt.obj
 0001:000078e0       ??$_Fill_n@PAIII@std@@YAXPAIIABIU_Range_checked_iterator_tag@0@@Z 004088e0 f i brook:brt.obj
 0001:00007910       ??$_Fill_n@PAMIM@std@@YAXPAMIABMU_Range_checked_iterator_tag@0@@Z 00408910 f i brook:brt.obj
 0001:00007930       ??$_Fill_n@PAPAVstream@brook@@IPAV12@@std@@YAXPAPAVstream@brook@@IABQAV12@U_Range_checked_iterator_tag@0@@Z 00408930 f i brook:brt.obj
 0001:00007960       ??$_Uninit_copy@PAIPAIV?$allocator@I@std@@@std@@YAPAIPAI00AAV?$allocator@I@0@U_Scalar_ptr_iterator_tag@0@U_Range_checked_iterator_tag@0@@Z 00408960 f i brook:brt.obj
 0001:00007990       ??$_Uninit_copy@PAMPAMV?$allocator@M@std@@@std@@YAPAMPAM00AAV?$allocator@M@0@U_Scalar_ptr_iterator_tag@0@U_Range_checked_iterator_tag@0@@Z 00408990 f i brook:brt.obj
 0001:000079c0       ??$_Uninit_copy@PAPAVstream@brook@@PAPAV12@V?$allocator@PAVstream@brook@@@std@@@std@@YAPAPAVstream@brook@@PAPAV12@00AAV?$allocator@PAVstream@brook@@@0@U_Scalar_ptr_iterator_tag@0@U_Range_checked_iterator_tag@0@@Z 004089c0 f i brook:brt.obj
 0001:000079f0       ?finalize@brook@@YAXXZ     004089f0 f   brook:brt.obj
 0001:00007a10       ?computeIndexOf@StreamInterface@brook@@QAE?AV?$vec@M$03@@I@Z 00408a10 f   brook:brt.obj
 0001:00007b00       ??A?$vector@MV?$allocator@M@std@@@std@@QAEAAMI@Z 00408b00 f i brook:brt.obj
 0001:00007b30       ?sputc@?$basic_streambuf@DU?$char_traits@D@std@@@std@@QAEHD@Z 00408b30 f i brook:brt.obj
 0001:00007b70       ??0?$_Vector_val@W4StreamType@brook@@V?$allocator@W4StreamType@brook@@@std@@@std@@IAE@V?$allocator@W4StreamType@brook@@@1@@Z 00408b70 f i brook:brt.obj
 0001:00007b80       ??0?$_Vector_val@IV?$allocator@I@std@@@std@@IAE@V?$allocator@I@1@@Z 00408b80 f i brook:brt.obj
 0001:00007b90       ??0?$_Vector_val@MV?$allocator@M@std@@@std@@IAE@V?$allocator@M@1@@Z 00408b90 f i brook:brt.obj
 0001:00007ba0       ??0?$_Vector_val@PAVstream@brook@@V?$allocator@PAVstream@brook@@@std@@@std@@IAE@V?$allocator@PAVstream@brook@@@1@@Z 00408ba0 f i brook:brt.obj
 0001:00007bb0       ??D?$_Vector_iterator@PAVstream@brook@@V?$allocator@PAVstream@brook@@@std@@@std@@QBEAAPAVstream@brook@@XZ 00408bb0 f i brook:brt.obj
 0001:00007be0       ?max_size@?$vector@W4StreamType@brook@@V?$allocator@W4StreamType@brook@@@std@@@std@@QBEIXZ 00408be0 f i brook:brt.obj
 0001:00007bf0       ?allocate@?$allocator@W4StreamType@brook@@@std@@QAEPAW4StreamType@brook@@I@Z 00408bf0 f i brook:brt.obj
 0001:00007c10       ?max_size@?$vector@IV?$allocator@I@std@@@std@@QBEIXZ 00408c10 f i brook:brt.obj
 0001:00007c20       ?allocate@?$allocator@I@std@@QAEPAII@Z 00408c20 f i brook:brt.obj
 0001:00007c40       ?max_size@?$vector@MV?$allocator@M@std@@@std@@QBEIXZ 00408c40 f i brook:brt.obj
 0001:00007c50       ?allocate@?$allocator@M@std@@QAEPAMI@Z 00408c50 f i brook:brt.obj
 0001:00007c70       ?max_size@?$vector@PAVstream@brook@@V?$allocator@PAVstream@brook@@@std@@@std@@QBEIXZ 00408c70 f i brook:brt.obj
 0001:00007c80       ?allocate@?$allocator@PAVstream@brook@@@std@@QAEPAPAVstream@brook@@I@Z 00408c80 f i brook:brt.obj
 0001:00007ca0       ??G?$_Vector_iterator@W4StreamType@brook@@V?$allocator@W4StreamType@brook@@@std@@@std@@QBEHABV?$_Vector_const_iterator@W4StreamType@brook@@V?$allocator@W4StreamType@brook@@@std@@@1@@Z 00408ca0 f i brook:brt.obj
 0001:00007cd0       ??G?$_Vector_iterator@IV?$allocator@I@std@@@std@@QBEHABV?$_Vector_const_iterator@IV?$allocator@I@std@@@1@@Z 00408cd0 f i brook:brt.obj
 0001:00007d00       ??G?$_Vector_iterator@MV?$allocator@M@std@@@std@@QBEHABV?$_Vector_const_iterator@MV?$allocator@M@std@@@1@@Z 00408d00 f i brook:brt.obj
 0001:00007d30       ??G?$_Vector_iterator@PAVstream@brook@@V?$allocator@PAVstream@brook@@@std@@@std@@QBEHABV?$_Vector_const_iterator@PAVstream@brook@@V?$allocator@PAVstream@brook@@@std@@@1@@Z 00408d30 f i brook:brt.obj
 0001:00007d60       ??Y?$_Vector_iterator@W4StreamType@brook@@V?$allocator@W4StreamType@brook@@@std@@@std@@QAEAAV01@H@Z 00408d60 f i brook:brt.obj
 0001:00007da0       ??0?$_Vector_const_iterator@W4StreamType@brook@@V?$allocator@W4StreamType@brook@@@std@@@std@@QAE@PAW4StreamType@brook@@PBU_Container_base@1@@Z 00408da0 f i brook:brt.obj
 0001:00007de0       ??Y?$_Vector_iterator@IV?$allocator@I@std@@@std@@QAEAAV01@H@Z 00408de0 f i brook:brt.obj
 0001:00007e20       ??0?$_Vector_const_iterator@IV?$allocator@I@std@@@std@@QAE@PAIPBU_Container_base@1@@Z 00408e20 f i brook:brt.obj
 0001:00007e60       ??Y?$_Vector_iterator@MV?$allocator@M@std@@@std@@QAEAAV01@H@Z 00408e60 f i brook:brt.obj
 0001:00007ea0       ??0?$_Vector_const_iterator@MV?$allocator@M@std@@@std@@QAE@PAMPBU_Container_base@1@@Z 00408ea0 f i brook:brt.obj
 0001:00007ee0       ??Y?$_Vector_iterator@PAVstream@brook@@V?$allocator@PAVstream@brook@@@std@@@std@@QAEAAV01@H@Z 00408ee0 f i brook:brt.obj
 0001:00007f20       ??0?$_Vector_const_iterator@PAVstream@brook@@V?$allocator@PAVstream@brook@@@std@@@std@@QAE@PAPAVstream@brook@@PBU_Container_base@1@@Z 00408f20 f i brook:brt.obj
 0001:00007f60       ??$_Destroy_range@PAVstream@brook@@V?$allocator@PAVstream@brook@@@std@@@std@@YAXPAPAVstream@brook@@0AAV?$allocator@PAVstream@brook@@@0@@Z 00408f60 f i brook:brt.obj
 0001:00007f70       ??$_Destroy_range@IV?$allocator@I@std@@@std@@YAXPAI0AAV?$allocator@I@0@@Z 00408f70 f i brook:brt.obj
 0001:00007f80       ??$_Destroy_range@MV?$allocator@M@std@@@std@@YAXPAM0AAV?$allocator@M@0@@Z 00408f80 f i brook:brt.obj
 0001:00007f90       ??$_Checked_base@PAW4StreamType@brook@@@std@@YAPAW4StreamType@brook@@AAPAW412@@Z 00408f90 f i brook:brt.obj
 0001:00007fa0       ??$_Checked_base@PAI@std@@YAPAIAAPAI@Z 00408fa0 f i brook:brt.obj
 0001:00007fb0       ??$_Move_backward_opt@PAIPAIUrandom_access_iterator_tag@std@@U_Undefined_move_tag@2@@std@@YAPAIPAI00Urandom_access_iterator_tag@0@U_Undefined_move_tag@0@U_Range_checked_iterator_tag@0@@Z 00408fb0 f i brook:brt.obj
 0001:00007fe0       ??$_Checked_base@PAM@std@@YAPAMAAPAM@Z 00408fe0 f i brook:brt.obj
 0001:00007ff0       ??$_Move_backward_opt@PAMPAMUrandom_access_iterator_tag@std@@U_Undefined_move_tag@2@@std@@YAPAMPAM00Urandom_access_iterator_tag@0@U_Undefined_move_tag@0@U_Range_checked_iterator_tag@0@@Z 00408ff0 f i brook:brt.obj
 0001:00008020       ??$_Checked_base@PAPAVstream@brook@@@std@@YAPAPAVstream@brook@@AAPAPAV12@@Z 00409020 f i brook:brt.obj
 0001:00008030       ??$_Move_backward_opt@PAPAVstream@brook@@PAPAV12@Urandom_access_iterator_tag@std@@U_Undefined_move_tag@4@@std@@YAPAPAVstream@brook@@PAPAV12@00Urandom_access_iterator_tag@0@U_Undefined_move_tag@0@U_Range_checked_iterator_tag@0@@Z 00409030 f i brook:brt.obj
 0001:00008060       ?construct@?$allocator@W4StreamType@brook@@@std@@QAEXPAW4StreamType@brook@@ABW434@@Z 00409060 f i brook:brt.obj
 0001:00008080       ?destroy@?$allocator@W4StreamType@brook@@@std@@QAEXPAW4StreamType@brook@@@Z 00409080 f i brook:brt.obj
 0001:00008090       ??$_Copy_backward_opt@PAW4StreamType@brook@@PAW412@@std@@YAPAW4StreamType@brook@@PAW412@00Urandom_access_iterator_tag@0@U_Nonscalar_ptr_iterator_tag@0@U_Range_checked_iterator_tag@0@@Z 00409090 f i brook:brt.obj
 0001:000080d0       ??$_Fill_n@PAIII@std@@YAXPAIIABIUrandom_access_iterator_tag@0@U_Range_checked_iterator_tag@0@@Z 004090d0 f i brook:brt.obj
 0001:00008100       ??$_Fill_n@PAMIM@std@@YAXPAMIABMUrandom_access_iterator_tag@0@U_Range_checked_iterator_tag@0@@Z 00409100 f i brook:brt.obj
 0001:00008120       ??$_Fill_n@PAPAVstream@brook@@IPAV12@@std@@YAXPAPAVstream@brook@@IABQAV12@Urandom_access_iterator_tag@0@U_Range_checked_iterator_tag@0@@Z 00409120 f i brook:brt.obj
 0001:00008150       ??$unchecked_uninitialized_copy@PAIPAIV?$allocator@I@std@@@stdext@@YAPAIPAI00AAV?$allocator@I@std@@@Z 00409150 f i brook:brt.obj
 0001:00008180       ??$unchecked_uninitialized_copy@PAMPAMV?$allocator@M@std@@@stdext@@YAPAMPAM00AAV?$allocator@M@std@@@Z 00409180 f i brook:brt.obj
 0001:000081b0       ??$unchecked_uninitialized_copy@PAPAVstream@brook@@PAPAV12@V?$allocator@PAVstream@brook@@@std@@@stdext@@YAPAPAVstream@brook@@PAPAV12@00AAV?$allocator@PAVstream@brook@@@std@@@Z 004091b0 f i brook:brt.obj
 0001:000081e0       ??$_Uninit_copy@PAW4StreamType@brook@@PAW412@V?$allocator@W4StreamType@brook@@@std@@@std@@YAPAW4StreamType@brook@@PAW412@00AAV?$allocator@W4StreamType@brook@@@0@U_Nonscalar_ptr_iterator_tag@0@U_Range_checked_iterator_tag@0@@Z 004091e0 f i brook:brt.obj
 0001:00008210       _brookRuntimeCleanupCallback 00409210 f   brook:brt.obj
 0001:00008230       ?_Destroy@?$vector@PAVstream@brook@@V?$allocator@PAVstream@brook@@@std@@@std@@IAEXPAPAVstream@brook@@0@Z 00409230 f i brook:brt.obj
 0001:00008240       ?_Tidy@?$vector@PAVstream@brook@@V?$allocator@PAVstream@brook@@@std@@@std@@IAEXXZ 00409240 f i brook:brt.obj
 0001:00008270       ?_Destroy@?$vector@IV?$allocator@I@std@@@std@@IAEXPAI0@Z 00409270 f i brook:brt.obj
 0001:00008280       ?_Destroy@?$vector@MV?$allocator@M@std@@@std@@IAEXPAM0@Z 00409280 f i brook:brt.obj
 0001:00008290       ??0?$_Vector_iterator@W4StreamType@brook@@V?$allocator@W4StreamType@brook@@@std@@@std@@QAE@PAW4StreamType@brook@@PBU_Container_base@1@@Z 00409290 f i brook:brt.obj
 0001:000082d0       ??H?$_Vector_iterator@W4StreamType@brook@@V?$allocator@W4StreamType@brook@@@std@@@std@@QBE?AV01@H@Z 004092d0 f i brook:brt.obj
 0001:00008310       ??0?$_Vector_iterator@IV?$allocator@I@std@@@std@@QAE@PAIPBU_Container_base@1@@Z 00409310 f i brook:brt.obj
 0001:00008350       ??H?$_Vector_iterator@IV?$allocator@I@std@@@std@@QBE?AV01@H@Z 00409350 f i brook:brt.obj
 0001:00008390       ??0?$_Vector_iterator@MV?$allocator@M@std@@@std@@QAE@PAMPBU_Container_base@1@@Z 00409390 f i brook:brt.obj
 0001:000083d0       ??H?$_Vector_iterator@MV?$allocator@M@std@@@std@@QBE?AV01@H@Z 004093d0 f i brook:brt.obj
 0001:00008410       ??0?$_Vector_iterator@PAVstream@brook@@V?$allocator@PAVstream@brook@@@std@@@std@@QAE@PAPAVstream@brook@@PBU_Container_base@1@@Z 00409410 f i brook:brt.obj
 0001:00008450       ??H?$_Vector_iterator@PAVstream@brook@@V?$allocator@PAVstream@brook@@@std@@@std@@QBE?AV01@H@Z 00409450 f i brook:brt.obj
 0001:00008490       ??Z?$_Vector_iterator@PAVstream@brook@@V?$allocator@PAVstream@brook@@@std@@@std@@QAEAAV01@H@Z 00409490 f i brook:brt.obj
 0001:000084d0       ??$fill@PAW4StreamType@brook@@W412@@std@@YAXPAW4StreamType@brook@@0ABW412@@Z 004094d0 f i brook:brt.obj
 0001:000084f0       ??$fill@PAII@std@@YAXPAI0ABI@Z 004094f0 f i brook:brt.obj
 0001:00008510       ??$_Unchecked_move_backward@PAIPAI@stdext@@YAPAIPAI00@Z 00409510 f i brook:brt.obj
 0001:00008540       ??$fill@PAMM@std@@YAXPAM0ABM@Z 00409540 f i brook:brt.obj
 0001:00008560       ??$_Unchecked_move_backward@PAMPAM@stdext@@YAPAMPAM00@Z 00409560 f i brook:brt.obj
 0001:00008590       ??$fill@PAPAVstream@brook@@PAV12@@std@@YAXPAPAVstream@brook@@0ABQAV12@@Z 00409590 f i brook:brt.obj
 0001:000085b0       ??$_Unchecked_move_backward@PAPAVstream@brook@@PAPAV12@@stdext@@YAPAPAVstream@brook@@PAPAV12@00@Z 004095b0 f i brook:brt.obj
 0001:000085e0       ??$_Uninit_fill_n@PAW4StreamType@brook@@IW412@V?$allocator@W4StreamType@brook@@@std@@@std@@YAXPAW4StreamType@brook@@IABW412@AAV?$allocator@W4StreamType@brook@@@0@U_Nonscalar_ptr_iterator_tag@0@U_Range_checked_iterator_tag@0@@Z 004095e0 f i brook:brt.obj
 0001:00008610       ??$_Destroy_range@W4StreamType@brook@@V?$allocator@W4StreamType@brook@@@std@@@std@@YAXPAW4StreamType@brook@@0AAV?$allocator@W4StreamType@brook@@@0@U_Nonscalar_ptr_iterator_tag@0@@Z 00409610 f i brook:brt.obj
 0001:00008620       ??$_Move_backward_opt@PAW4StreamType@brook@@PAW412@Urandom_access_iterator_tag@std@@U_Undefined_move_tag@4@@std@@YAPAW4StreamType@brook@@PAW412@00Urandom_access_iterator_tag@0@U_Undefined_move_tag@0@U_Range_checked_iterator_tag@0@@Z 00409620 f i brook:brt.obj
 0001:00008660       ??$unchecked_fill_n@PAIII@stdext@@YAXPAIIABI@Z 00409660 f i brook:brt.obj
 0001:00008690       ??$unchecked_fill_n@PAMIM@stdext@@YAXPAMIABM@Z 00409690 f i brook:brt.obj
 0001:000086b0       ??$unchecked_fill_n@PAPAVstream@brook@@IPAV12@@stdext@@YAXPAPAVstream@brook@@IABQAV12@@Z 004096b0 f i brook:brt.obj
 0001:000086e0       ??$_Uninit_move@PAIPAIV?$allocator@I@std@@U_Undefined_move_tag@2@@std@@YAPAIPAI00AAV?$allocator@I@0@U_Undefined_move_tag@0@U_Range_checked_iterator_tag@0@@Z 004096e0 f i brook:brt.obj
 0001:00008710       ??$_Uninit_move@PAMPAMV?$allocator@M@std@@U_Undefined_move_tag@2@@std@@YAPAMPAM00AAV?$allocator@M@0@U_Undefined_move_tag@0@U_Range_checked_iterator_tag@0@@Z 00409710 f i brook:brt.obj
 0001:00008740       ??$_Uninit_move@PAPAVstream@brook@@PAPAV12@V?$allocator@PAVstream@brook@@@std@@U_Undefined_move_tag@4@@std@@YAPAPAVstream@brook@@PAPAV12@00AAV?$allocator@PAVstream@brook@@@0@U_Undefined_move_tag@0@U_Range_checked_iterator_tag@0@@Z 00409740 f i brook:brt.obj
 0001:00008770       ??$unchecked_uninitialized_copy@PAW4StreamType@brook@@PAW412@V?$allocator@W4StreamType@brook@@@std@@@stdext@@YAPAW4StreamType@brook@@PAW412@00AAV?$allocator@W4StreamType@brook@@@std@@@Z 00409770 f i brook:brt.obj
 0001:000087a0       ??1?$vector@PAVstream@brook@@V?$allocator@PAVstream@brook@@@std@@@std@@QAE@XZ 004097a0 f i brook:brt.obj
 0001:000087d0       ?pop_back@?$vector@PAVstream@brook@@V?$allocator@PAVstream@brook@@@std@@@std@@QAEXXZ 004097d0 f i brook:brt.obj
 0001:000087f0       ?end@?$vector@W4StreamType@brook@@V?$allocator@W4StreamType@brook@@@std@@@std@@QAE?AV?$_Vector_iterator@W4StreamType@brook@@V?$allocator@W4StreamType@brook@@@std@@@2@XZ 004097f0 f i brook:brt.obj
 0001:00008820       ?end@?$vector@IV?$allocator@I@std@@@std@@QAE?AV?$_Vector_iterator@IV?$allocator@I@std@@@2@XZ 00409820 f i brook:brt.obj
 0001:00008850       ?_Tidy@?$vector@IV?$allocator@I@std@@@std@@IAEXXZ 00409850 f i brook:brt.obj
 0001:00008880       ?end@?$vector@MV?$allocator@M@std@@@std@@QAE?AV?$_Vector_iterator@MV?$allocator@M@std@@@2@XZ 00409880 f i brook:brt.obj
 0001:000088b0       ?_Tidy@?$vector@MV?$allocator@M@std@@@std@@IAEXXZ 004098b0 f i brook:brt.obj
 0001:000088e0       ?end@?$vector@PAVstream@brook@@V?$allocator@PAVstream@brook@@@std@@@std@@QAE?AV?$_Vector_iterator@PAVstream@brook@@V?$allocator@PAVstream@brook@@@std@@@2@XZ 004098e0 f i brook:brt.obj
 0001:00008910       ??G?$_Vector_iterator@PAVstream@brook@@V?$allocator@PAVstream@brook@@@std@@@std@@QBE?AV01@H@Z 00409910 f i brook:brt.obj
 0001:00008950       ?begin@?$vector@W4StreamType@brook@@V?$allocator@W4StreamType@brook@@@std@@@std@@QAE?AV?$_Vector_iterator@W4StreamType@brook@@V?$allocator@W4StreamType@brook@@@std@@@2@XZ 00409950 f i brook:brt.obj
 0001:00008980       ?begin@?$vector@IV?$allocator@I@std@@@std@@QAE?AV?$_Vector_iterator@IV?$allocator@I@std@@@2@XZ 00409980 f i brook:brt.obj
 0001:000089b0       ?begin@?$vector@MV?$allocator@M@std@@@std@@QAE?AV?$_Vector_iterator@MV?$allocator@M@std@@@2@XZ 004099b0 f i brook:brt.obj
 0001:000089e0       ?begin@?$vector@PAVstream@brook@@V?$allocator@PAVstream@brook@@@std@@@std@@QAE?AV?$_Vector_iterator@PAVstream@brook@@V?$allocator@PAVstream@brook@@@std@@@2@XZ 004099e0 f i brook:brt.obj
 0001:00008a10       ??$unchecked_uninitialized_fill_n@PAW4StreamType@brook@@IW412@V?$allocator@W4StreamType@brook@@@std@@@stdext@@YAXPAW4StreamType@brook@@IABW412@AAV?$allocator@W4StreamType@brook@@@std@@@Z 00409a10 f i brook:brt.obj
 0001:00008a40       ??$_Destroy_range@W4StreamType@brook@@V?$allocator@W4StreamType@brook@@@std@@@std@@YAXPAW4StreamType@brook@@0AAV?$allocator@W4StreamType@brook@@@0@@Z 00409a40 f i brook:brt.obj
 0001:00008a50       ??$_Unchecked_move_backward@PAW4StreamType@brook@@PAW412@@stdext@@YAPAW4StreamType@brook@@PAW412@00@Z 00409a50 f i brook:brt.obj
 0001:00008a90       ??$_Uninit_fill_n@PAIIIV?$allocator@I@std@@@std@@YAXPAIIABIAAV?$allocator@I@0@U_Scalar_ptr_iterator_tag@0@U_Range_checked_iterator_tag@0@@Z 00409a90 f i brook:brt.obj
 0001:00008ac0       ??$_Uninit_fill_n@PAMIMV?$allocator@M@std@@@std@@YAXPAMIABMAAV?$allocator@M@0@U_Scalar_ptr_iterator_tag@0@U_Range_checked_iterator_tag@0@@Z 00409ac0 f i brook:brt.obj
 0001:00008ae0       ??$_Uninit_fill_n@PAPAVstream@brook@@IPAV12@V?$allocator@PAVstream@brook@@@std@@@std@@YAXPAPAVstream@brook@@IABQAV12@AAV?$allocator@PAVstream@brook@@@0@U_Scalar_ptr_iterator_tag@0@U_Range_checked_iterator_tag@0@@Z 00409ae0 f i brook:brt.obj
 0001:00008b10       ??$_Unchecked_uninitialized_move@PAIPAIV?$allocator@I@std@@@stdext@@YAPAIPAI00AAV?$allocator@I@std@@@Z 00409b10 f i brook:brt.obj
 0001:00008b40       ??$_Unchecked_uninitialized_move@PAMPAMV?$allocator@M@std@@@stdext@@YAPAMPAM00AAV?$allocator@M@std@@@Z 00409b40 f i brook:brt.obj
 0001:00008b70       ??$_Unchecked_uninitialized_move@PAPAVstream@brook@@PAPAV12@V?$allocator@PAVstream@brook@@@std@@@stdext@@YAPAPAVstream@brook@@PAPAV12@00AAV?$allocator@PAVstream@brook@@@std@@@Z 00409b70 f i brook:brt.obj
 0001:00008ba0       ??$_Uninit_move@PAW4StreamType@brook@@PAW412@V?$allocator@W4StreamType@brook@@@std@@U_Undefined_move_tag@4@@std@@YAPAW4StreamType@brook@@PAW412@00AAV?$allocator@W4StreamType@brook@@@0@U_Undefined_move_tag@0@U_Range_checked_iterator_tag@0@@Z 00409ba0 f i brook:brt.obj
 0001:00008bc0       ??1runtime_error@std@@UAE@XZ 00409bc0 f i brook:brt.obj
 0001:00008c00       ?what@runtime_error@std@@UBEPBDXZ 00409c00 f i brook:brt.obj
 0001:00008c10       ??_Eruntime_error@std@@UAEPAXI@Z 00409c10 f i brook:brt.obj
 0001:00008c10       ??_Gruntime_error@std@@UAEPAXI@Z 00409c10 f i brook:brt.obj
 0001:00008c60       ??1?$vector@IV?$allocator@I@std@@@std@@QAE@XZ 00409c60 f i brook:brt.obj
 0001:00008c90       ??1?$vector@MV?$allocator@M@std@@@std@@QAE@XZ 00409c90 f i brook:brt.obj
 0001:00008cc0       ?back@?$vector@PAVstream@brook@@V?$allocator@PAVstream@brook@@@std@@@std@@QAEAAPAVstream@brook@@XZ 00409cc0 f i brook:brt.obj
 0001:00008d10       ?_Ufill@?$vector@W4StreamType@brook@@V?$allocator@W4StreamType@brook@@@std@@@std@@IAEPAW4StreamType@brook@@PAW434@IABW434@@Z 00409d10 f i brook:brt.obj
 0001:00008d50       ?_Destroy@?$vector@W4StreamType@brook@@V?$allocator@W4StreamType@brook@@@std@@@std@@IAEXPAW4StreamType@brook@@0@Z 00409d50 f i brook:brt.obj
 0001:00008d60       ??$unchecked_uninitialized_fill_n@PAIIIV?$allocator@I@std@@@stdext@@YAXPAIIABIAAV?$allocator@I@std@@@Z 00409d60 f i brook:brt.obj
 0001:00008d90       ??$unchecked_uninitialized_fill_n@PAMIMV?$allocator@M@std@@@stdext@@YAXPAMIABMAAV?$allocator@M@std@@@Z 00409d90 f i brook:brt.obj
 0001:00008db0       ??$unchecked_uninitialized_fill_n@PAPAVstream@brook@@IPAV12@V?$allocator@PAVstream@brook@@@std@@@stdext@@YAXPAPAVstream@brook@@IABQAV12@AAV?$allocator@PAVstream@brook@@@std@@@Z 00409db0 f i brook:brt.obj
 0001:00008de0       ??$_Umove@PAI@?$vector@IV?$allocator@I@std@@@std@@IAEPAIPAI00@Z 00409de0 f i brook:brt.obj
 0001:00008e10       ??$_Umove@PAM@?$vector@MV?$allocator@M@std@@@std@@IAEPAMPAM00@Z 00409e10 f i brook:brt.obj
 0001:00008e40       ??$_Umove@PAPAVstream@brook@@@?$vector@PAVstream@brook@@V?$allocator@PAVstream@brook@@@std@@@std@@IAEPAPAVstream@brook@@PAPAV23@00@Z 00409e40 f i brook:brt.obj
 0001:00008e70       ??$_Unchecked_uninitialized_move@PAW4StreamType@brook@@PAW412@V?$allocator@W4StreamType@brook@@@std@@@stdext@@YAPAW4StreamType@brook@@PAW412@00AAV?$allocator@W4StreamType@brook@@@std@@@Z 00409e70 f i brook:brt.obj
 0001:00008ea0       ??1StreamSentinels@brook@@QAE@XZ 00409ea0 f i brook:brt.obj
 0001:00008fc0       ?_Tidy@?$vector@W4StreamType@brook@@V?$allocator@W4StreamType@brook@@@std@@@std@@IAEXXZ 00409fc0 f i brook:brt.obj
 0001:00008ff0       ?_Ufill@?$vector@IV?$allocator@I@std@@@std@@IAEPAIPAIIABI@Z 00409ff0 f i brook:brt.obj
 0001:00009020       ?_Ufill@?$vector@MV?$allocator@M@std@@@std@@IAEPAMPAMIABM@Z 0040a020 f i brook:brt.obj
 0001:00009050       ?_Ufill@?$vector@PAVstream@brook@@V?$allocator@PAVstream@brook@@@std@@@std@@IAEPAPAVstream@brook@@PAPAV34@IABQAV34@@Z 0040a050 f i brook:brt.obj
 0001:00009080       ??$_Umove@PAW4StreamType@brook@@@?$vector@W4StreamType@brook@@V?$allocator@W4StreamType@brook@@@std@@@std@@IAEPAW4StreamType@brook@@PAW423@00@Z 0040a080 f i brook:brt.obj
 0001:000090b0       ??0runtime_error@std@@QAE@ABV?$basic_string@DU?$char_traits@D@std@@V?$allocator@D@2@@1@@Z 0040a0b0 f i brook:brt.obj
 0001:00009120       ??0failure@ios_base@std@@QAE@ABV?$basic_string@DU?$char_traits@D@std@@V?$allocator@D@2@@2@@Z 0040a120 f i brook:brt.obj
 0001:00009140       ??1failure@ios_base@std@@UAE@XZ 0040a140 f i brook:brt.obj
 0001:00009180       ??_Efailure@ios_base@std@@UAEPAXI@Z 0040a180 f i brook:brt.obj
 0001:00009180       ??_Gfailure@ios_base@std@@UAEPAXI@Z 0040a180 f i brook:brt.obj
 0001:000091d0       ??1?$vector@W4StreamType@brook@@V?$allocator@W4StreamType@brook@@@std@@@std@@QAE@XZ 0040a1d0 f i brook:brt.obj
 0001:00009200       ?_Xlen@?$vector@W4StreamType@brook@@V?$allocator@W4StreamType@brook@@@std@@@std@@KAXXZ 0040a200 f i brook:brt.obj
 0001:00009280       ?_Xlen@?$vector@IV?$allocator@I@std@@@std@@KAXXZ 0040a280 f i brook:brt.obj
 0001:00009300       ?_Xlen@?$vector@MV?$allocator@M@std@@@std@@KAXXZ 0040a300 f i brook:brt.obj
 0001:00009380       ?_Xlen@?$vector@PAVstream@brook@@V?$allocator@PAVstream@brook@@@std@@@std@@KAXXZ 0040a380 f i brook:brt.obj
 0001:00009400       ?clear@ios_base@std@@QAEXH_N@Z 0040a400 f i brook:brt.obj
 0001:00009530       ??0runtime_error@std@@QAE@ABV01@@Z 0040a530 f i brook:brt.obj
 0001:000095b0       ??0failure@ios_base@std@@QAE@ABV012@@Z 0040a5b0 f i brook:brt.obj
 0001:000095d0       ?clear@?$basic_ios@DU?$char_traits@D@std@@@std@@QAEXH_N@Z 0040a5d0 f i brook:brt.obj
 0001:000095f0       ?_Buy@?$vector@W4StreamType@brook@@V?$allocator@W4StreamType@brook@@@std@@@std@@IAE_NI@Z 0040a5f0 f i brook:brt.obj
 0001:00009640       ?_Buy@?$vector@IV?$allocator@I@std@@@std@@IAE_NI@Z 0040a640 f i brook:brt.obj
 0001:00009690       ?_Buy@?$vector@MV?$allocator@M@std@@@std@@IAE_NI@Z 0040a690 f i brook:brt.obj
 0001:000096e0       ?_Buy@?$vector@PAVstream@brook@@V?$allocator@PAVstream@brook@@@std@@@std@@IAE_NI@Z 0040a6e0 f i brook:brt.obj
 0001:00009730       ?_Insert_n@?$vector@W4StreamType@brook@@V?$allocator@W4StreamType@brook@@@std@@@std@@IAEXV?$_Vector_iterator@W4StreamType@brook@@V?$allocator@W4StreamType@brook@@@std@@@2@IABW4StreamType@brook@@@Z 0040a730 f i brook:brt.obj
 0001:00009980       ?_Insert_n@?$vector@IV?$allocator@I@std@@@std@@IAEXV?$_Vector_iterator@IV?$allocator@I@std@@@2@IABI@Z 0040a980 f i brook:brt.obj
 0001:00009b40       ?_Insert_n@?$vector@MV?$allocator@M@std@@@std@@IAEXV?$_Vector_iterator@MV?$allocator@M@std@@@2@IABM@Z 0040ab40 f i brook:brt.obj
 0001:00009d00       ?_Insert_n@?$vector@PAVstream@brook@@V?$allocator@PAVstream@brook@@@std@@@std@@IAEXV?$_Vector_iterator@PAVstream@brook@@V?$allocator@PAVstream@brook@@@std@@@2@IABQAVstream@brook@@@Z 0040ad00 f i brook:brt.obj
 0001:00009ec0       ?setstate@?$basic_ios@DU?$char_traits@D@std@@@std@@QAEXH_N@Z 0040aec0 f i brook:brt.obj
 0001:00009ef0       ??0?$vector@W4StreamType@brook@@V?$allocator@W4StreamType@brook@@@std@@@std@@QAE@XZ 0040aef0 f i brook:brt.obj
 0001:00009f00       ??0?$vector@IV?$allocator@I@std@@@std@@QAE@XZ 0040af00 f i brook:brt.obj
 0001:00009f10       ??0?$vector@MV?$allocator@M@std@@@std@@QAE@XZ 0040af10 f i brook:brt.obj
 0001:00009f20       ??0?$vector@PAVstream@brook@@V?$allocator@PAVstream@brook@@@std@@@std@@QAE@XZ 0040af20 f i brook:brt.obj
 0001:00009f30       ?insert@?$vector@W4StreamType@brook@@V?$allocator@W4StreamType@brook@@@std@@@std@@QAE?AV?$_Vector_iterator@W4StreamType@brook@@V?$allocator@W4StreamType@brook@@@std@@@2@V32@ABW4StreamType@brook@@@Z 0040af30 f i brook:brt.obj
 0001:00009fc0       ?insert@?$vector@IV?$allocator@I@std@@@std@@QAE?AV?$_Vector_iterator@IV?$allocator@I@std@@@2@V32@ABI@Z 0040afc0 f i brook:brt.obj
 0001:0000a050       ?insert@?$vector@MV?$allocator@M@std@@@std@@QAE?AV?$_Vector_iterator@MV?$allocator@M@std@@@2@V32@ABM@Z 0040b050 f i brook:brt.obj
 0001:0000a0e0       ?insert@?$vector@PAVstream@brook@@V?$allocator@PAVstream@brook@@@std@@@std@@QAE?AV?$_Vector_iterator@PAVstream@brook@@V?$allocator@PAVstream@brook@@@std@@@2@V32@ABQAVstream@brook@@@Z 0040b0e0 f i brook:brt.obj
 0001:0000a170       ??0StreamSentinels@brook@@QAE@XZ 0040b170 f i brook:brt.obj
 0001:0000a180       ?flush@?$basic_ostream@DU?$char_traits@D@std@@@std@@QAEAAV12@XZ 0040b180 f i brook:brt.obj
 0001:0000a1d0       ?push_back@?$vector@W4StreamType@brook@@V?$allocator@W4StreamType@brook@@@std@@@std@@QAEXABW4StreamType@brook@@@Z 0040b1d0 f i brook:brt.obj
 0001:0000a260       ?push_back@?$vector@IV?$allocator@I@std@@@std@@QAEXABI@Z 0040b260 f i brook:brt.obj
 0001:0000a2d0       ?push_back@?$vector@MV?$allocator@M@std@@@std@@QAEXABM@Z 0040b2d0 f i brook:brt.obj
 0001:0000a340       ?push_back@?$vector@PAVstream@brook@@V?$allocator@PAVstream@brook@@@std@@@std@@QAEXABQAVstream@brook@@@Z 0040b340 f i brook:brt.obj
 0001:0000a3b0       ??0sentry@?$basic_ostream@DU?$char_traits@D@std@@@std@@QAE@AAV12@@Z 0040b3b0 f i brook:brt.obj
 0001:0000a440       ?_Osfx@?$basic_ostream@DU?$char_traits@D@std@@@std@@QAEXXZ 0040b440 f i brook:brt.obj
 0001:0000a4a0       ?readItem@@YAXPAVStreamInterface@brook@@PAXZZ 0040b4a0 f   brook:brt.obj
 0001:0000a5b0       ??1sentry@?$basic_ostream@DU?$char_traits@D@std@@@std@@QAE@XZ 0040b5b0 f i brook:brt.obj
 0001:0000a620       ??$?6U?$char_traits@D@std@@@std@@YAAAV?$basic_ostream@DU?$char_traits@D@std@@@0@AAV10@PBD@Z 0040b620 f i brook:brt.obj
 0001:0000a830       ?put@?$basic_ostream@DU?$char_traits@D@std@@@std@@QAEAAV12@D@Z 0040b830 f i brook:brt.obj
 0001:0000a950       ?endl@std@@YAAAV?$basic_ostream@DU?$char_traits@D@std@@@1@AAV21@@Z 0040b950 f i brook:brt.obj
 0001:0000a970       ?CreateInstance@Runtime@brook@@CAPAV12@PBDPAX_N@Z 0040b970 f   brook:brt.obj
 0001:0000ae70       ?GetInstance@Runtime@brook@@SAPAV12@PBDPAX_N@Z 0040be70 f   brook:brt.obj
 0001:0000aec0       ??0stream@brook@@QAA@PBW4StreamType@1@ZZ 0040bec0 f   brook:brt.obj
 0001:0000b0b0       ??0stream@brook@@QAE@QBIIPBW4StreamType@1@_N@Z 0040c0b0 f   brook:brt.obj
 0001:0000b1d0       ??0stream@brook@@QAE@ABViter@1@@Z 0040c1d0 f   brook:brt.obj
 0001:0000b290       ??0iter@brook@@QAA@W4StreamType@1@ZZ 0040c290 f   brook:brt.obj
 0001:0000b560       ??0kernel@brook@@QAE@QAPBX@Z 0040c560 f   brook:brt.obj
 0001:0000b5c0       ?sentinelStream@brook@@YAPAVstream@1@H@Z 0040c5c0 f   brook:brt.obj
 0001:0000b8f0       ?streamEnableWriteMask@@YAXXZ 0040c8f0 f   brook:brt.obj
 0001:0000b940       ?streamDisableWriteMask@@YAXXZ 0040c940 f   brook:brt.obj
 0001:0000b990       ?streamSetWriteMask@@YAXAAVstream@brook@@@Z 0040c990 f   brook:brt.obj
 0001:0000b9e0       ?streamBeginWriteQuery@@YAXXZ 0040c9e0 f   brook:brt.obj
 0001:0000ba30       ?streamEndWriteQuery@@YAHXZ 0040ca30 f   brook:brt.obj
 0001:0000ba80       ?initialize@brook@@YAXPBDPAX@Z 0040ca80 f   brook:brt.obj
 0001:0000bac0       ?finish@brook@@YAXXZ       0040cac0 f   brook:brt.obj
 0001:0000bb10       ?unbind@brook@@YAXXZ       0040cb10 f   brook:brt.obj
 0001:0000bb60       ?bind@brook@@YAXXZ         0040cb60 f   brook:brt.obj
 0001:0000bbb0       ?createRuntime@brook@@YAPAVRuntime@1@_N@Z 0040cbb0 f   brook:brt.obj
 0001:0000bc00       ?assign@?$char_traits@D@std@@SAPADPADID@Z 0040cc00 f i brook:logger.obj
 0001:0000bc20       ?_Getctype@_Locinfo@std@@QBE?AU_Ctypevec@@XZ 0040cc20 f i brook:logger.obj
 0001:0000bc50       ??Bid@locale@std@@QAEIXZ   0040cc50 f i brook:logger.obj
 0001:0000bc90       ?_Incref@facet@locale@std@@QAEXXZ 0040cc90 f i brook:logger.obj
 0001:0000bcc0       ?_Decref@facet@locale@std@@QAEPAV123@XZ 0040ccc0 f i brook:logger.obj
 0001:0000bd00       ?_Register@facet@locale@std@@QAEXXZ 0040cd00 f i brook:logger.obj
 0001:0000bd10       ??1facet@locale@std@@UAE@XZ 0040cd10 f i brook:logger.obj
 0001:0000bd20       ??0facet@locale@std@@IAE@I@Z 0040cd20 f i brook:logger.obj
 0001:0000bd40       ??0locale@std@@QAE@XZ      0040cd40 f i brook:logger.obj
 0001:0000bd80       ??0locale@std@@QAE@ABV01@@Z 0040cd80 f i brook:logger.obj
 0001:0000bdc0       ??1locale@std@@QAE@XZ      0040cdc0 f i brook:logger.obj
 0001:0000be10       ?_Getfacet@locale@std@@QBEPBVfacet@12@I@Z 0040ce10 f i brook:logger.obj
 0001:0000be50       ??_Gfacet@locale@std@@UAEPAXI@Z 0040ce50 f i brook:logger.obj
 0001:0000be50       ??_Efacet@locale@std@@UAEPAXI@Z 0040ce50 f i brook:logger.obj
 0001:0000be70       ??0codecvt_base@std@@QAE@I@Z 0040ce70 f i brook:logger.obj
 0001:0000be90       ?always_noconv@codecvt_base@std@@QBE_NXZ 0040ce90 f i brook:logger.obj
 0001:0000bea0       ??1codecvt_base@std@@UAE@XZ 0040cea0 f i brook:logger.obj
 0001:0000beb0       ?do_always_noconv@codecvt_base@std@@MBE_NXZ 0040ceb0 f i brook:logger.obj
 0001:0000bec0       ?do_max_length@codecvt_base@std@@MBEHXZ 0040cec0 f i brook:logger.obj
 0001:0000bed0       ?do_encoding@codecvt_base@std@@MBEHXZ 0040ced0 f i brook:logger.obj
 0001:0000bee0       ??_Gcodecvt_base@std@@UAEPAXI@Z 0040cee0 f i brook:logger.obj
 0001:0000bee0       ??_Ecodecvt_base@std@@UAEPAXI@Z 0040cee0 f i brook:logger.obj
 0001:0000bf00       ??0ctype_base@std@@QAE@I@Z 0040cf00 f i brook:logger.obj
 0001:0000bf20       ??1ctype_base@std@@UAE@XZ  0040cf20 f i brook:logger.obj
 0001:0000bf30       ??_Ectype_base@std@@UAEPAXI@Z 0040cf30 f i brook:logger.obj
 0001:0000bf30       ??_Gctype_base@std@@UAEPAXI@Z 0040cf30 f i brook:logger.obj
 0001:0000bf50       ?widen@?$ctype@D@std@@QBEDD@Z 0040cf50 f i brook:logger.obj
 0001:0000bf60       ?_Init@?$ctype@D@std@@IAEXABV_Locinfo@2@@Z 0040cf60 f i brook:logger.obj
 0001:0000bf90       ?_Tidy@?$ctype@D@std@@IAEXXZ 0040cf90 f i brook:logger.obj
 0001:0000bfc0       ?getloc@ios_base@std@@QBE?AVlocale@2@XZ 0040cfc0 f i brook:logger.obj
 0001:0000c000       ??1ios_base@std@@UAE@XZ    0040d000 f i brook:logger.obj
 0001:0000c010       ??0ios_base@std@@IAE@XZ    0040d010 f i brook:logger.obj
 0001:0000c020       ??_Eios_base@std@@UAEPAXI@Z 0040d020 f i brook:logger.obj
 0001:0000c020       ??_Gios_base@std@@UAEPAXI@Z 0040d020 f i brook:logger.obj
 0001:0000c050       ??0Logger@internal@brook@@AAE@XZ 0040d050 f   brook:logger.obj
 0001:0000c0b0       ??1?$basic_ostream@DU?$char_traits@D@std@@@std@@UAE@XZ 0040d0b0 f i brook:logger.obj
 0001:0000c0c0       ??1?$basic_ios@DU?$char_traits@D@std@@@std@@UAE@XZ 0040d0c0 f i brook:logger.obj
 0001:0000c0d0       ??_Glocale@std@@QAEPAXI@Z  0040d0d0 f i brook:logger.obj
 0001:0000c140       ??_D?$basic_ostream@DU?$char_traits@D@std@@@std@@QAEXXZ 0040d140 f i brook:logger.obj
 0001:0000c160       ??0?$basic_ios@DU?$char_traits@D@std@@@std@@IAE@XZ 0040d160 f i brook:logger.obj
 0001:0000c170       ??_E?$basic_ios@DU?$char_traits@D@std@@@std@@UAEPAXI@Z 0040d170 f i brook:logger.obj
 0001:0000c170       ??_G?$basic_ios@DU?$char_traits@D@std@@@std@@UAEPAXI@Z 0040d170 f i brook:logger.obj
 0001:0000c1a0       ?setg@?$basic_streambuf@DU?$char_traits@D@std@@@std@@IAEXPAD00@Z 0040d1a0 f i brook:logger.obj
 0001:0000c1c0       ?getloc@?$basic_streambuf@DU?$char_traits@D@std@@@std@@QBE?AVlocale@2@XZ 0040d1c0 f i brook:logger.obj
 0001:0000c200       ?_Init@?$basic_streambuf@DU?$char_traits@D@std@@@std@@IAEXPAPAD0PAH001@Z 0040d200 f i brook:logger.obj
 0001:0000c230       ??D?$_String_const_iterator@DU?$char_traits@D@std@@V?$allocator@D@2@@std@@QBEABDXZ 0040d230 f i brook:logger.obj
 0001:0000c270       ?unshift@?$codecvt@DDH@std@@QBEHAAHPAD1AAPAD@Z 0040d270 f i brook:logger.obj
 0001:0000c280       ?setp@?$basic_streambuf@DU?$char_traits@D@std@@@std@@IAEXPAD0@Z 0040d280 f i brook:logger.obj
 0001:0000c2a0       ??0?$_Ranit_base@DHPBDABDU_Iterator_base@std@@@std@@QAE@XZ 0040d2a0 f i brook:logger.obj
 0001:0000c2b0       ?_Init@?$codecvt@DDH@std@@IAEXABV_Locinfo@2@@Z 0040d2b0 f i brook:logger.obj
 0001:0000c2c0       ??1?$basic_streambuf@DU?$char_traits@D@std@@@std@@UAE@XZ 0040d2c0 f i brook:logger.obj
 0001:0000c340       ?to_char_type@?$char_traits@D@std@@SADABH@Z 0040d340 f i brook:logger.obj
 0001:0000c350       ?overflow@?$basic_streambuf@DU?$char_traits@D@std@@@std@@MAEHH@Z 0040d350 f i brook:logger.obj
 0001:0000c360       ?pbackfail@?$basic_streambuf@DU?$char_traits@D@std@@@std@@MAEHH@Z 0040d360 f i brook:logger.obj
 0001:0000c370       ?showmanyc@?$basic_streambuf@DU?$char_traits@D@std@@@std@@MAEHXZ 0040d370 f i brook:logger.obj
 0001:0000c380       ?underflow@?$basic_streambuf@DU?$char_traits@D@std@@@std@@MAEHXZ 0040d380 f i brook:logger.obj
 0001:0000c390       ?xsgetn@?$basic_streambuf@DU?$char_traits@D@std@@@std@@MAEHPADH@Z 0040d390 f i brook:logger.obj
 0001:0000c3b0       ?setbuf@?$basic_streambuf@DU?$char_traits@D@std@@@std@@MAEPAV12@PADH@Z 0040d3b0 f i brook:logger.obj
 0001:0000c3c0       ?sync@?$basic_streambuf@DU?$char_traits@D@std@@@std@@MAEHXZ 0040d3c0 f i brook:logger.obj
 0001:0000c3d0       ?imbue@?$basic_streambuf@DU?$char_traits@D@std@@@std@@MAEXABVlocale@2@@Z 0040d3d0 f i brook:logger.obj
 0001:0000c3e0       ?gptr@?$basic_streambuf@DU?$char_traits@D@std@@@std@@IBEPADXZ 0040d3e0 f i brook:logger.obj
 0001:0000c3f0       ?pptr@?$basic_streambuf@DU?$char_traits@D@std@@@std@@IBEPADXZ 0040d3f0 f i brook:logger.obj
 0001:0000c400       ?gbump@?$basic_streambuf@DU?$char_traits@D@std@@@std@@IAEXH@Z 0040d400 f i brook:logger.obj
 0001:0000c420       ?_Gninc@?$basic_streambuf@DU?$char_traits@D@std@@@std@@IAEPADXZ 0040d420 f i brook:logger.obj
 0001:0000c440       ?_Gnavail@?$basic_streambuf@DU?$char_traits@D@std@@@std@@IBEHXZ 0040d440 f i brook:logger.obj
 0001:0000c460       ?pbump@?$basic_streambuf@DU?$char_traits@D@std@@@std@@IAEXH@Z 0040d460 f i brook:logger.obj
 0001:0000c480       ??0?$fpos@H@std@@QAE@J@Z   0040d480 f i brook:logger.obj
 0001:0000c4a0       ?uflow@?$basic_streambuf@DU?$char_traits@D@std@@@std@@MAEHXZ 0040d4a0 f i brook:logger.obj
 0001:0000c4d0       ?seekoff@?$basic_streambuf@DU?$char_traits@D@std@@@std@@MAE?AV?$fpos@H@2@JHH@Z 0040d4d0 f i brook:logger.obj
 0001:0000c4f0       ?seekpos@?$basic_streambuf@DU?$char_traits@D@std@@@std@@MAE?AV?$fpos@H@2@V32@H@Z 0040d4f0 f i brook:logger.obj
 0001:0000c510       ??_G?$basic_ostream@DU?$char_traits@D@std@@@std@@UAEPAXI@Z 0040d510 f i brook:logger.obj
 0001:0000c510       ??_E?$basic_ostream@DU?$char_traits@D@std@@@std@@UAEPAXI@Z 0040d510 f i brook:logger.obj
 0001:0000c550       ??_E?$basic_streambuf@DU?$char_traits@D@std@@@std@@UAEPAXI@Z 0040d550 f i brook:logger.obj
 0001:0000c550       ??_G?$basic_streambuf@DU?$char_traits@D@std@@@std@@UAEPAXI@Z 0040d550 f i brook:logger.obj
 0001:0000c570       ??D?$_String_iterator@DU?$char_traits@D@std@@V?$allocator@D@2@@std@@QBEAADXZ 0040d570 f i brook:logger.obj
 0001:0000c5b0       ?_Chassign@?$basic_string@DU?$char_traits@D@std@@V?$allocator@D@2@@std@@IAEXIID@Z 0040d5b0 f i brook:logger.obj
 0001:0000c610       ?_Init@?$basic_streambuf@DU?$char_traits@D@std@@@std@@IAEXXZ 0040d610 f i brook:logger.obj
 0001:0000c670       ??0?$_String_const_iterator@DU?$char_traits@D@std@@V?$allocator@D@2@@std@@QAE@PBDPBU_Container_base@1@@Z 0040d670 f i brook:logger.obj
 0001:0000c6d0       ?_Xsgetn_s@?$basic_streambuf@DU?$char_traits@D@std@@@std@@MAEHPADIH@Z 0040d6d0 f i brook:logger.obj
 0001:0000c770       ?xsputn@?$basic_streambuf@DU?$char_traits@D@std@@@std@@MAEHPBDH@Z 0040d770 f i brook:logger.obj
 0001:0000c810       ?_Init@?$basic_filebuf@DU?$char_traits@D@std@@@std@@IAEXPAU_iobuf@@W4_Initfl@12@@Z 0040d810 f i brook:logger.obj
 0001:0000c860       ?_Initcvt@?$basic_filebuf@DU?$char_traits@D@std@@@std@@IAEXPAV?$codecvt@DDH@2@@Z 0040d860 f i brook:logger.obj
 0001:0000c890       ??0?$basic_streambuf@DU?$char_traits@D@std@@@std@@IAE@XZ 0040d890 f i brook:logger.obj
 0001:0000c940       ??0?$_String_iterator@DU?$char_traits@D@std@@V?$allocator@D@2@@std@@QAE@PADPBU_Container_base@1@@Z 0040d940 f i brook:logger.obj
 0001:0000c960       ??0?$basic_string@DU?$char_traits@D@std@@V?$allocator@D@2@@std@@QAE@XZ 0040d960 f i brook:logger.obj
 0001:0000c980       ?begin@?$basic_string@DU?$char_traits@D@std@@V?$allocator@D@2@@std@@QAE?AV?$_String_iterator@DU?$char_traits@D@std@@V?$allocator@D@2@@2@XZ 0040d980 f i brook:logger.obj
 0001:0000c9c0       ??0?$basic_filebuf@DU?$char_traits@D@std@@@std@@QAE@PAU_iobuf@@@Z 0040d9c0 f i brook:logger.obj
 0001:0000ca20       ?not_eof@?$char_traits@D@std@@SAHABH@Z 0040da20 f i brook:logger.obj
 0001:0000ca40       ??$_Fgetc@D@std@@YA_NAADPAU_iobuf@@@Z 0040da40 f i brook:logger.obj
 0001:0000ca60       ??$_Fputc@D@std@@YA_NDPAU_iobuf@@@Z 0040da60 f i brook:logger.obj
 0001:0000ca80       ??$_Ungetc@D@std@@YA_NABDPAU_iobuf@@@Z 0040da80 f i brook:logger.obj
 0001:0000caa0       ?sync@?$basic_filebuf@DU?$char_traits@D@std@@@std@@MAEHXZ 0040daa0 f i brook:logger.obj
 0001:0000cad0       ?eback@?$basic_streambuf@DU?$char_traits@D@std@@@std@@IBEPADXZ 0040dad0 f i brook:logger.obj
 0001:0000cae0       ?egptr@?$basic_streambuf@DU?$char_traits@D@std@@@std@@IBEPADXZ 0040dae0 f i brook:logger.obj
 0001:0000caf0       ?epptr@?$basic_streambuf@DU?$char_traits@D@std@@@std@@IBEPADXZ 0040daf0 f i brook:logger.obj
 0001:0000cb00       ?_Gndec@?$basic_streambuf@DU?$char_traits@D@std@@@std@@IAEPADXZ 0040db00 f i brook:logger.obj
 0001:0000cb20       ??0?$fpos@H@std@@QAE@H_J@Z 0040db20 f i brook:logger.obj
 0001:0000cb40       ?state@?$fpos@H@std@@QBEHXZ 0040db40 f i brook:logger.obj
 0001:0000cb50       ?seekpos@?$fpos@H@std@@QBE_JXZ 0040db50 f i brook:logger.obj
 0001:0000cb60       ??B?$fpos@H@std@@QBEJXZ    0040db60 f i brook:logger.obj
 0001:0000cb70       ?in@?$codecvt@DDH@std@@QBEHAAHPBD1AAPBDPAD3AAPAD@Z 0040db70 f i brook:logger.obj
 0001:0000cb80       ?out@?$codecvt@DDH@std@@QBEHAAHPBD1AAPBDPAD3AAPAD@Z 0040db80 f i brook:logger.obj
 0001:0000cb90       ?pbackfail@?$basic_filebuf@DU?$char_traits@D@std@@@std@@MAEHH@Z 0040db90 f i brook:logger.obj
 0001:0000cc00       ?underflow@?$basic_filebuf@DU?$char_traits@D@std@@@std@@MAEHXZ 0040dc00 f i brook:logger.obj
 0001:0000cc50       ?setbuf@?$basic_filebuf@DU?$char_traits@D@std@@@std@@MAEPAV?$basic_streambuf@DU?$char_traits@D@std@@@2@PADH@Z 0040dc50 f i brook:logger.obj
 0001:0000cce0       ??1_Locinfo@std@@QAE@XZ    0040dce0 f i brook:logger.obj
 0001:0000cdc0       ?append@?$basic_string@DU?$char_traits@D@std@@V?$allocator@D@2@@std@@QAEAAV12@ID@Z 0040ddc0 f i brook:logger.obj
 0001:0000ce70       ?assign@?$basic_string@DU?$char_traits@D@std@@V?$allocator@D@2@@std@@QAEAAV12@ID@Z 0040de70 f i brook:logger.obj
 0001:0000cf00       ?uflow@?$basic_filebuf@DU?$char_traits@D@std@@@std@@MAEHXZ 0040df00 f i brook:logger.obj
 0001:0000d260       ??0?$basic_string@DU?$char_traits@D@std@@V?$allocator@D@2@@std@@QAE@ID@Z 0040e260 f i brook:logger.obj
 0001:0000d290       ?_Endwrite@?$basic_filebuf@DU?$char_traits@D@std@@@std@@IAE_NXZ 0040e290 f i brook:logger.obj
 0001:0000d5b0       ?overflow@?$basic_filebuf@DU?$char_traits@D@std@@@std@@MAEHH@Z 0040e5b0 f i brook:logger.obj
 0001:0000d990       ?seekoff@?$basic_filebuf@DU?$char_traits@D@std@@@std@@MAE?AV?$fpos@H@2@JHH@Z 0040e990 f i brook:logger.obj
 0001:0000da70       ?seekpos@?$basic_filebuf@DU?$char_traits@D@std@@@std@@MAE?AV?$fpos@H@2@V32@H@Z 0040ea70 f i brook:logger.obj
 0001:0000db60       ?close@?$basic_filebuf@DU?$char_traits@D@std@@@std@@QAEPAV12@XZ 0040eb60 f i brook:logger.obj
 0001:0000dbb0       ??0_Locinfo@std@@QAE@PBD@Z 0040ebb0 f i brook:logger.obj
 0001:0000dc80       ??0?$ctype@D@std@@QAE@PBF_NI@Z 0040ec80 f i brook:logger.obj
 0001:0000dd80       ?do_tolower@?$ctype@D@std@@MBEDD@Z 0040ed80 f i brook:logger.obj
 0001:0000dda0       ?do_tolower@?$ctype@D@std@@MBEPBDPADPBD@Z 0040eda0 f i brook:logger.obj
 0001:0000ddd0       ?do_toupper@?$ctype@D@std@@MBEDD@Z 0040edd0 f i brook:logger.obj
 0001:0000ddf0       ?do_toupper@?$ctype@D@std@@MBEPBDPADPBD@Z 0040edf0 f i brook:logger.obj
 0001:0000de20       ?do_widen@?$ctype@D@std@@MBEDD@Z 0040ee20 f i brook:logger.obj
 0001:0000de30       ?do_widen@?$ctype@D@std@@MBEPBDPBD0PAD@Z 0040ee30 f i brook:logger.obj
 0001:0000de60       ?_Do_widen_s@?$ctype@D@std@@MBEPBDPBD0PADI@Z 0040ee60 f i brook:logger.obj
 0001:0000dea0       ?do_narrow@?$ctype@D@std@@MBEDDD@Z 0040eea0 f i brook:logger.obj
 0001:0000deb0       ?do_narrow@?$ctype@D@std@@MBEPBDPBD0DPAD@Z 0040eeb0 f i brook:logger.obj
 0001:0000dee0       ?_Do_narrow_s@?$ctype@D@std@@MBEPBDPBD0DPADI@Z 0040eee0 f i brook:logger.obj
 0001:0000df20       ??1?$ctype@D@std@@MAE@XZ   0040ef20 f i brook:logger.obj
 0001:0000df60       ??_E?$ctype@D@std@@MAEPAXI@Z 0040ef60 f i brook:logger.obj
 0001:0000df60       ??_G?$ctype@D@std@@MAEPAXI@Z 0040ef60 f i brook:logger.obj
 0001:0000dfb0       ?_Getcat@?$ctype@D@std@@SAIPAPBVfacet@locale@2@@Z 0040efb0 f i brook:logger.obj
 0001:0000e030       ?clear@ios_base@std@@QAEXH@Z 0040f030 f i brook:logger.obj
 0001:0000e040       ?_Init@ios_base@std@@IAEXXZ 0040f040 f i brook:logger.obj
 0001:0000e0c0       ??1?$basic_filebuf@DU?$char_traits@D@std@@@std@@UAE@XZ 0040f0c0 f i brook:logger.obj
 0001:0000e130       ??_G?$basic_filebuf@DU?$char_traits@D@std@@@std@@UAEPAXI@Z 0040f130 f i brook:logger.obj
 0001:0000e130       ??_E?$basic_filebuf@DU?$char_traits@D@std@@@std@@UAEPAXI@Z 0040f130 f i brook:logger.obj
 0001:0000e150       ??$use_facet@V?$ctype@D@std@@@std@@YAABV?$ctype@D@0@ABVlocale@0@@Z 0040f150 f i brook:logger.obj
 0001:0000e280       ??0?$codecvt@DDH@std@@QAE@I@Z 0040f280 f i brook:logger.obj
 0001:0000e310       ??1?$codecvt@DDH@std@@MAE@XZ 0040f310 f i brook:logger.obj
 0001:0000e320       ?do_in@?$codecvt@DDH@std@@MBEHAAHPBD1AAPBDPAD3AAPAD@Z 0040f320 f i brook:logger.obj
 0001:0000e340       ?do_out@?$codecvt@DDH@std@@MBEHAAHPBD1AAPBDPAD3AAPAD@Z 0040f340 f i brook:logger.obj
 0001:0000e360       ?do_unshift@?$codecvt@DDH@std@@MBEHAAHPAD1AAPAD@Z 0040f360 f i brook:logger.obj
 0001:0000e380       ?do_length@?$codecvt@DDH@std@@MBEHABHPBD1I@Z 0040f380 f i brook:logger.obj
 0001:0000e3a0       ??_G?$codecvt@DDH@std@@MAEPAXI@Z 0040f3a0 f i brook:logger.obj
 0001:0000e3a0       ??_E?$codecvt@DDH@std@@MAEPAXI@Z 0040f3a0 f i brook:logger.obj
 0001:0000e3c0       ?widen@?$basic_ios@DU?$char_traits@D@std@@@std@@QBEDD@Z 0040f3c0 f i brook:logger.obj
 0001:0000e480       ?_Getcat@?$codecvt@DDH@std@@SAIPAPBVfacet@locale@2@@Z 0040f480 f i brook:logger.obj
 0001:0000e4f0       ?init@?$basic_ios@DU?$char_traits@D@std@@@std@@IAEXPAV?$basic_streambuf@DU?$char_traits@D@std@@@2@_N@Z 0040f4f0 f i brook:logger.obj
 0001:0000e550       ??$use_facet@V?$codecvt@DDH@std@@@std@@YAABV?$codecvt@DDH@0@ABVlocale@0@@Z 0040f550 f i brook:logger.obj
 0001:0000e680       ?flush@std@@YAAAV?$basic_ostream@DU?$char_traits@D@std@@@1@AAV21@@Z 0040f680 f i brook:logger.obj
 0001:0000e690       ??1Logger@internal@brook@@AAE@XZ 0040f690 f   brook:logger.obj
 0001:0000e6c0       ?imbue@?$basic_filebuf@DU?$char_traits@D@std@@@std@@MAEXABVlocale@2@@Z 0040f6c0 f i brook:logger.obj
 0001:0000e700       ??0?$basic_ostream@DU?$char_traits@D@std@@@std@@QAE@PAV?$basic_streambuf@DU?$char_traits@D@std@@@1@_N@Z 0040f700 f i brook:logger.obj
 0001:0000e790       ?open@?$basic_filebuf@DU?$char_traits@D@std@@@std@@QAEPAV12@PBDHH@Z 0040f790 f i brook:logger.obj
 0001:0000e8b0       ?getInstance@Logger@internal@brook@@CAAAV123@XZ 0040f8b0 f   brook:logger.obj
 0001:0000e8e0       ?isEnabled@Logger@internal@brook@@SA_NH@Z 0040f8e0 f   brook:logger.obj
 0001:0000e920       ?setLevel@Logger@internal@brook@@SAXH@Z 0040f920 f   brook:logger.obj
 0001:0000e960       ?setStream@Logger@internal@brook@@SAXAAV?$basic_ostream@DU?$char_traits@D@std@@@std@@_N@Z 0040f960 f   brook:logger.obj
 0001:0000e9d0       ??0?$basic_ofstream@DU?$char_traits@D@std@@@std@@QAE@PBDHH@Z 0040f9d0 f i brook:logger.obj
 0001:0000eb10       ??1?$basic_ofstream@DU?$char_traits@D@std@@@std@@UAE@XZ 0040fb10 f i brook:logger.obj
 0001:0000eb80       ??_D?$basic_ofstream@DU?$char_traits@D@std@@@std@@QAEXXZ 0040fb80 f i brook:logger.obj
 0001:0000eba0       ??_G?$basic_ofstream@DU?$char_traits@D@std@@@std@@UAEPAXI@Z 0040fba0 f i brook:logger.obj
 0001:0000eba0       ??_E?$basic_ofstream@DU?$char_traits@D@std@@@std@@UAEPAXI@Z 0040fba0 f i brook:logger.obj
 0001:0000ebe0       ?getStream@Logger@internal@brook@@SAAAV?$basic_ostream@DU?$char_traits@D@std@@@std@@XZ 0040fbe0 f   brook:logger.obj
 0001:0000ecd0       ?printPrefix@Logger@internal@brook@@SAXXZ 0040fcd0 f   brook:logger.obj
 0001:0000ed20       ?printSuffix@Logger@internal@brook@@SAXXZ 0040fd20 f   brook:logger.obj
 0001:0000ed40       ??0StreamInterface@brook@@IAE@XZ 0040fd40 f i brook:cpuruntime.obj
 0001:0000ed50       ??1StreamInterface@brook@@MAE@XZ 0040fd50 f i brook:cpuruntime.obj
 0001:0000ed60       ?getDimension@StreamInterface@brook@@UBEIXZ 0040fd60 f i brook:cpuruntime.obj
 0001:0000ed70       ?getDomainMin@StreamInterface@brook@@UBEPBIXZ 0040fd70 f i brook:cpuruntime.obj
 0001:0000ed80       ?getDomainMax@StreamInterface@brook@@UBEPBIXZ 0040fd80 f i brook:cpuruntime.obj
 0001:0000ed90       ?getTotalSize@StreamInterface@brook@@UBEIXZ 0040fd90 f i brook:cpuruntime.obj
 0001:0000edd0       ?fetchElem@StreamInterface@brook@@UAEPAXQBI0I@Z 0040fdd0 f i brook:cpuruntime.obj
 0001:0000ede0       ?isCPU@StreamInterface@brook@@UBE_NXZ 0040fde0 f i brook:cpuruntime.obj
 0001:0000edf0       ??_GStreamInterface@brook@@MAEPAXI@Z 0040fdf0 f i brook:cpuruntime.obj
 0001:0000edf0       ??_EStreamInterface@brook@@MAEPAXI@Z 0040fdf0 f i brook:cpuruntime.obj
 0001:0000ee10       ??0Iter@brook@@QAE@W4StreamType@1@@Z 0040fe10 f i brook:cpuruntime.obj
 0001:0000ee30       ?getFieldCount@Iter@brook@@UBEIXZ 0040fe30 f i brook:cpuruntime.obj
 0001:0000ee40       ?getIndexedFieldType@Iter@brook@@UBE?AW4StreamType@2@I@Z 0040fe40 f i brook:cpuruntime.obj
 0001:0000ee50       ??1Iter@brook@@MAE@XZ      0040fe50 f i brook:cpuruntime.obj
 0001:0000ee60       ??_EIter@brook@@MAEPAXI@Z  0040fe60 f i brook:cpuruntime.obj
 0001:0000ee60       ??_GIter@brook@@MAEPAXI@Z  0040fe60 f i brook:cpuruntime.obj
 0001:0000ee80       ??0Runtime@brook@@QAE@XZ   0040fe80 f i brook:cpuruntime.obj
 0001:0000ee90       ??1Runtime@brook@@UAE@XZ   0040fe90 f i brook:cpuruntime.obj
 0001:0000eea0       ?createWriteQuery@Runtime@brook@@UAEPAVIWriteQuery@2@XZ 0040fea0 f i brook:cpuruntime.obj
 0001:0000eeb0       ?createWriteMask@Runtime@brook@@UAEPAVIWriteMask@2@HH@Z 0040feb0 f i brook:cpuruntime.obj
 0001:0000eec0       ?hackEnableWriteMask@Runtime@brook@@UAEXXZ 0040fec0 f i brook:cpuruntime.obj
 0001:0000eee0       ?hackDisableWriteMask@Runtime@brook@@UAEXXZ 0040fee0 f i brook:cpuruntime.obj
 0001:0000ef00       ?hackSetWriteMask@Runtime@brook@@UAEXPAVStream@2@@Z 0040ff00 f i brook:cpuruntime.obj
 0001:0000ef20       ?hackBeginWriteQuery@Runtime@brook@@UAEXXZ 0040ff20 f i brook:cpuruntime.obj
 0001:0000ef40       ?hackEndWriteQuery@Runtime@brook@@UAEHXZ 0040ff40 f i brook:cpuruntime.obj
 0001:0000ef60       ??_ERuntime@brook@@UAEPAXI@Z 0040ff60 f i brook:cpuruntime.obj
 0001:0000ef60       ??_GRuntime@brook@@UAEPAXI@Z 0040ff60 f i brook:cpuruntime.obj
 0001:0000ef80       ??0CPUIter@brook@@QAE@W4StreamType@1@IQBIQBM@Z 0040ff80 f i brook:cpuruntime.obj
 0001:0000f010       ??1CPUIter@brook@@MAE@XZ   00410010 f i brook:cpuruntime.obj
 0001:0000f070       ?getData@CPUIter@brook@@UAEPAXI@Z 00410070 f i brook:cpuruntime.obj
 0001:0000f080       ?releaseData@CPUIter@brook@@UAEXI@Z 00410080 f i brook:cpuruntime.obj
 0001:0000f090       ?getExtents@CPUIter@brook@@UBEPBIXZ 00410090 f i brook:cpuruntime.obj
 0001:0000f0a0       ?getDomainMin@CPUIter@brook@@UBEPBIXZ 004100a0 f i brook:cpuruntime.obj
 0001:0000f0b0       ?getDomainMax@CPUIter@brook@@UBEPBIXZ 004100b0 f i brook:cpuruntime.obj
 0001:0000f0c0       ?getDimension@CPUIter@brook@@UBEIXZ 004100c0 f i brook:cpuruntime.obj
 0001:0000f0d0       ?getTotalSize@CPUIter@brook@@UBEIXZ 004100d0 f i brook:cpuruntime.obj
 0001:0000f0e0       ?fetchElem@CPUIter@brook@@UAEPAXQBI0I@Z 004100e0 f i brook:cpuruntime.obj
 0001:0000f0f0       ?isCPU@CPUIter@brook@@UBE_NXZ 004100f0 f i brook:cpuruntime.obj
 0001:0000f100       ??_ECPUIter@brook@@MAEPAXI@Z 00410100 f i brook:cpuruntime.obj
 0001:0000f100       ??_GCPUIter@brook@@MAEPAXI@Z 00410100 f i brook:cpuruntime.obj
 0001:0000f120       ??0CPURuntime@brook@@QAE@XZ 00410120 f   brook:cpuruntime.obj
 0001:0000f130       ??1CPURuntime@brook@@UAE@XZ 00410130 f i brook:cpuruntime.obj
 0001:0000f140       ?finish@CPURuntime@brook@@UAEXXZ 00410140 f i brook:cpuruntime.obj
 0001:0000f150       ?unbind@CPURuntime@brook@@UAEXXZ 00410150 f i brook:cpuruntime.obj
 0001:0000f160       ?bind@CPURuntime@brook@@UAEXXZ 00410160 f i brook:cpuruntime.obj
 0001:0000f170       ??_GCPURuntime@brook@@UAEPAXI@Z 00410170 f i brook:cpuruntime.obj
 0001:0000f170       ??_ECPURuntime@brook@@UAEPAXI@Z 00410170 f i brook:cpuruntime.obj
 0001:0000f190       ?CreateKernel@CPURuntime@brook@@UAEPAVKernel@2@QAPBX@Z 00410190 f   brook:cpuruntime.obj
 0001:0000f200       ?CreateStream@CPURuntime@brook@@UAEPAVStream@2@IQBW4StreamType@2@IQBI_N@Z 00410200 f   brook:cpuruntime.obj
 0001:0000f280       ?CreateIter@CPURuntime@brook@@UAEPAVIter@2@W4StreamType@2@IQBIQBM@Z 00410280 f   brook:cpuruntime.obj
 0001:0000f300       ?_Getcvt@_Locinfo@std@@QBE?AU_Cvtvec@@XZ 00410300 f i brook:oglruntime.obj
 0001:0000f320       ??0OGLRuntime@brook@@IAE@XZ 00410320 f i brook:oglruntime.obj
 0001:0000f340       ??1OGLRuntime@brook@@UAE@XZ 00410340 f i brook:oglruntime.obj
 0001:0000f350       ?create@OGLRuntime@brook@@SAPAV12@PAX@Z 00410350 f   brook:oglruntime.obj
 0001:0000f3f0       ??_GOGLWindow@brook@@QAEPAXI@Z 004103f0 f i brook:oglruntime.obj
 0001:0000f410       ?put@?$num_put@DV?$ostreambuf_iterator@DU?$char_traits@D@std@@@std@@@std@@QBE?AV?$ostreambuf_iterator@DU?$char_traits@D@std@@@2@V32@AAVios_base@2@DJ@Z 00410410 f i brook:oglruntime.obj
 0001:0000f450       ?failed@?$ostreambuf_iterator@DU?$char_traits@D@std@@@std@@QBE_NXZ 00410450 f i brook:oglruntime.obj
 0001:0000f460       ??0?$_Iterator_with_base@Uoutput_iterator_tag@std@@XXXXU_Iterator_base@2@@std@@QAE@XZ 00410460 f i brook:oglruntime.obj
 0001:0000f470       ?_Init@?$num_put@DV?$ostreambuf_iterator@DU?$char_traits@D@std@@@std@@@std@@IAEXABV_Locinfo@2@@Z 00410470 f i brook:oglruntime.obj
 0001:0000f490       ??_EOGLRuntime@brook@@UAEPAXI@Z 00410490 f i brook:oglruntime.obj
 0001:0000f490       ??_GOGLRuntime@brook@@UAEPAXI@Z 00410490 f i brook:oglruntime.obj
 0001:0000f4b0       ??0?$_Outit_with_base@U_Iterator_base@std@@@std@@QAE@XZ 004104b0 f i brook:oglruntime.obj
 0001:0000f4c0       ??0?$ostreambuf_iterator@DU?$char_traits@D@std@@@std@@QAE@PAV?$basic_streambuf@DU?$char_traits@D@std@@@1@@Z 004104c0 f i brook:oglruntime.obj
 0001:0000f4e0       ??0?$num_put@DV?$ostreambuf_iterator@DU?$char_traits@D@std@@@std@@@std@@QAE@I@Z 004104e0 f i brook:oglruntime.obj
 0001:0000f580       ?_Getlconv@_Locinfo@std@@QBEPBUlconv@@XZ 00410580 f i brook:oglruntime.obj
 0001:0000f590       ?_Getfalse@_Locinfo@std@@QBEPBDXZ 00410590 f i brook:oglruntime.obj
 0001:0000f5a0       ?_Gettrue@_Locinfo@std@@QBEPBDXZ 004105a0 f i brook:oglruntime.obj
 0001:0000f5b0       ?precision@ios_base@std@@QBEHXZ 004105b0 f i brook:oglruntime.obj
 0001:0000f5c0       ??1?$num_put@DV?$ostreambuf_iterator@DU?$char_traits@D@std@@@std@@@std@@MAE@XZ 004105c0 f i brook:oglruntime.obj
 0001:0000f5d0       ??_E?$num_put@DV?$ostreambuf_iterator@DU?$char_traits@D@std@@@std@@@std@@MAEPAXI@Z 004105d0 f i brook:oglruntime.obj
 0001:0000f5d0       ??_G?$num_put@DV?$ostreambuf_iterator@DU?$char_traits@D@std@@@std@@@std@@MAEPAXI@Z 004105d0 f i brook:oglruntime.obj
 0001:0000f5f0       ?_Ffmt@?$num_put@DV?$ostreambuf_iterator@DU?$char_traits@D@std@@@std@@@std@@ABAPADPADDH@Z 004105f0 f i brook:oglruntime.obj
 0001:0000f660       ?_Ifmt@?$num_put@DV?$ostreambuf_iterator@DU?$char_traits@D@std@@@std@@@std@@ABAPADPADPBDH@Z 00410660 f i brook:oglruntime.obj
 0001:0000f700       ??A?$basic_string@DU?$char_traits@D@std@@V?$allocator@D@2@@std@@QAEAADI@Z 00410700 f i brook:oglruntime.obj
 0001:0000f730       ??D?$ostreambuf_iterator@DU?$char_traits@D@std@@@std@@QAEAAV01@XZ 00410730 f i brook:oglruntime.obj
 0001:0000f740       ??E?$ostreambuf_iterator@DU?$char_traits@D@std@@@std@@QAEAAV01@XZ 00410740 f i brook:oglruntime.obj
 0001:0000f750       ?decimal_point@?$numpunct@D@std@@QBEDXZ 00410750 f i brook:oglruntime.obj
 0001:0000f760       ?thousands_sep@?$numpunct@D@std@@QBEDXZ 00410760 f i brook:oglruntime.obj
 0001:0000f770       ?_Tidy@?$numpunct@D@std@@AAEXXZ 00410770 f i brook:oglruntime.obj
 0001:0000f7a0       ??$_Maklocchr@D@std@@YADDPADABU_Cvtvec@@@Z 004107a0 f i brook:oglruntime.obj
 0001:0000f7b0       ??$_Maklocstr@D@std@@YAPADPBDPADABU_Cvtvec@@@Z 004107b0 f i brook:oglruntime.obj
 0001:0000f800       ??4?$ostreambuf_iterator@DU?$char_traits@D@std@@@std@@QAEAAV01@D@Z 00410800 f i brook:oglruntime.obj
 0001:0000f850       ?_Init@?$numpunct@D@std@@IAEXABV_Locinfo@2@@Z 00410850 f i brook:oglruntime.obj
 0001:0000f930       ?_Put@?$num_put@DV?$ostreambuf_iterator@DU?$char_traits@D@std@@@std@@@std@@ABA?AV?$ostreambuf_iterator@DU?$char_traits@D@std@@@2@V32@PBDI@Z 00410930 f i brook:oglruntime.obj
 0001:0000f9b0       ?_Rep@?$num_put@DV?$ostreambuf_iterator@DU?$char_traits@D@std@@@std@@@std@@ABA?AV?$ostreambuf_iterator@DU?$char_traits@D@std@@@2@V32@DI@Z 004109b0 f i brook:oglruntime.obj
 0001:0000fa20       ?_Putc@?$num_put@DV?$ostreambuf_iterator@DU?$char_traits@D@std@@@std@@@std@@ABA?AV?$ostreambuf_iterator@DU?$char_traits@D@std@@@2@V32@PBDI@Z 00410a20 f i brook:oglruntime.obj
 0001:0000faa0       ?_Putgrouped@?$num_put@DV?$ostreambuf_iterator@DU?$char_traits@D@std@@@std@@@std@@ABA?AV?$ostreambuf_iterator@DU?$char_traits@D@std@@@2@V32@PBDID@Z 00410aa0 f i brook:oglruntime.obj
 0001:0000fb70       ?falsename@?$numpunct@D@std@@QBE?AV?$basic_string@DU?$char_traits@D@std@@V?$allocator@D@2@@2@XZ 00410b70 f i brook:oglruntime.obj
 0001:0000fb90       ?truename@?$numpunct@D@std@@QBE?AV?$basic_string@DU?$char_traits@D@std@@V?$allocator@D@2@@2@XZ 00410b90 f i brook:oglruntime.obj
 0001:0000fbb0       ?insert@?$basic_string@DU?$char_traits@D@std@@V?$allocator@D@2@@std@@QAEAAV12@IID@Z 00410bb0 f i brook:oglruntime.obj
 0001:0000fcb0       ?grouping@?$numpunct@D@std@@QBE?AV?$basic_string@DU?$char_traits@D@std@@V?$allocator@D@2@@2@XZ 00410cb0 f i brook:oglruntime.obj
 0001:0000fcd0       ?append@?$basic_string@DU?$char_traits@D@std@@V?$allocator@D@2@@std@@QAEAAV12@ABV12@II@Z 00410cd0 f i brook:oglruntime.obj
 0001:0000fdd0       ?assign@?$basic_string@DU?$char_traits@D@std@@V?$allocator@D@2@@std@@QAEAAV12@ABV12@@Z 00410dd0 f i brook:oglruntime.obj
 0001:0000fdf0       ?append@?$basic_string@DU?$char_traits@D@std@@V?$allocator@D@2@@std@@QAEAAV12@PBDI@Z 00410df0 f i brook:oglruntime.obj
 0001:0000fee0       ??0?$numpunct@D@std@@QAE@I@Z 00410ee0 f i brook:oglruntime.obj
 0001:0000ffa0       ?do_decimal_point@?$numpunct@D@std@@MBEDXZ 00410fa0 f i brook:oglruntime.obj
 0001:0000ffb0       ?do_thousands_sep@?$numpunct@D@std@@MBEDXZ 00410fb0 f i brook:oglruntime.obj
 0001:0000ffc0       ??1?$numpunct@D@std@@MAE@XZ 00410fc0 f i brook:oglruntime.obj
 0001:0000fff0       ??_G?$numpunct@D@std@@MAEPAXI@Z 00410ff0 f i brook:oglruntime.obj
 0001:0000fff0       ??_E?$numpunct@D@std@@MAEPAXI@Z 00410ff0 f i brook:oglruntime.obj
 0001:00010040       ?do_grouping@?$numpunct@D@std@@MBE?AV?$basic_string@DU?$char_traits@D@std@@V?$allocator@D@2@@2@XZ 00411040 f i brook:oglruntime.obj
 0001:00010090       ?do_falsename@?$numpunct@D@std@@MBE?AV?$basic_string@DU?$char_traits@D@std@@V?$allocator@D@2@@2@XZ 00411090 f i brook:oglruntime.obj
 0001:000100e0       ?do_truename@?$numpunct@D@std@@MBE?AV?$basic_string@DU?$char_traits@D@std@@V?$allocator@D@2@@2@XZ 004110e0 f i brook:oglruntime.obj
 0001:00010130       ?_Getcat@?$num_put@DV?$ostreambuf_iterator@DU?$char_traits@D@std@@@std@@@std@@SAIPAPBVfacet@locale@2@@Z 00411130 f i brook:oglruntime.obj
 0001:000101a0       ?_Getcat@?$numpunct@D@std@@SAIPAPBVfacet@locale@2@@Z 004111a0 f i brook:oglruntime.obj
 0001:00010210       ??$use_facet@V?$num_put@DV?$ostreambuf_iterator@DU?$char_traits@D@std@@@std@@@std@@@std@@YAABV?$num_put@DV?$ostreambuf_iterator@DU?$char_traits@D@std@@@std@@@0@ABVlocale@0@@Z 00411210 f i brook:oglruntime.obj
 0001:00010340       ??$use_facet@V?$numpunct@D@std@@@std@@YAABV?$numpunct@D@0@ABVlocale@0@@Z 00411340 f i brook:oglruntime.obj
 0001:00010470       ?do_put@?$num_put@DV?$ostreambuf_iterator@DU?$char_traits@D@std@@@std@@@std@@MBE?AV?$ostreambuf_iterator@DU?$char_traits@D@std@@@2@V32@AAVios_base@2@D_N@Z 00411470 f i brook:oglruntime.obj
 0001:000106a0       ?_Fput@?$num_put@DV?$ostreambuf_iterator@DU?$char_traits@D@std@@@std@@@std@@ABA?AV?$ostreambuf_iterator@DU?$char_traits@D@std@@@2@V32@AAVios_base@2@DPBDIIII@Z 004116a0 f i brook:oglruntime.obj
 0001:00010d30       ?_Iput@?$num_put@DV?$ostreambuf_iterator@DU?$char_traits@D@std@@@std@@@std@@ABA?AV?$ostreambuf_iterator@DU?$char_traits@D@std@@@2@V32@AAVios_base@2@DPADI@Z 00411d30 f i brook:oglruntime.obj
 0001:00011060       ??6?$basic_ostream@DU?$char_traits@D@std@@@std@@QAEAAV01@H@Z 00412060 f i brook:oglruntime.obj
 0001:000111b0       ?do_put@?$num_put@DV?$ostreambuf_iterator@DU?$char_traits@D@std@@@std@@@std@@MBE?AV?$ostreambuf_iterator@DU?$char_traits@D@std@@@2@V32@AAVios_base@2@DJ@Z 004121b0 f i brook:oglruntime.obj
 0001:00011240       ?do_put@?$num_put@DV?$ostreambuf_iterator@DU?$char_traits@D@std@@@std@@@std@@MBE?AV?$ostreambuf_iterator@DU?$char_traits@D@std@@@2@V32@AAVios_base@2@DK@Z 00412240 f i brook:oglruntime.obj
 0001:000112d0       ?do_put@?$num_put@DV?$ostreambuf_iterator@DU?$char_traits@D@std@@@std@@@std@@MBE?AV?$ostreambuf_iterator@DU?$char_traits@D@std@@@2@V32@AAVios_base@2@D_J@Z 004122d0 f i brook:oglruntime.obj
 0001:00011360       ?do_put@?$num_put@DV?$ostreambuf_iterator@DU?$char_traits@D@std@@@std@@@std@@MBE?AV?$ostreambuf_iterator@DU?$char_traits@D@std@@@2@V32@AAVios_base@2@D_K@Z 00412360 f i brook:oglruntime.obj
 0001:000113f0       ?do_put@?$num_put@DV?$ostreambuf_iterator@DU?$char_traits@D@std@@@std@@@std@@MBE?AV?$ostreambuf_iterator@DU?$char_traits@D@std@@@2@V32@AAVios_base@2@DN@Z 004123f0 f i brook:oglruntime.obj
 0001:000115f0       ?do_put@?$num_put@DV?$ostreambuf_iterator@DU?$char_traits@D@std@@@std@@@std@@MBE?AV?$ostreambuf_iterator@DU?$char_traits@D@std@@@2@V32@AAVios_base@2@DO@Z 004125f0 f i brook:oglruntime.obj
 0001:000117f0       ?do_put@?$num_put@DV?$ostreambuf_iterator@DU?$char_traits@D@std@@@std@@@std@@MBE?AV?$ostreambuf_iterator@DU?$char_traits@D@std@@@2@V32@AAVios_base@2@DPBX@Z 004127f0 f i brook:oglruntime.obj
 0001:00011870       ?GPUAssertImpl@@YAXPBDH0@Z 00412870 f i brook:oglruntime.obj
 0001:000118f0       ?initialize@OGLRuntime@brook@@MAE_NPAX@Z 004128f0 f   brook:oglruntime.obj
 0001:00011a50       ??1GPUContext@brook@@UAE@XZ 00412a50 f i brook:dx9runtime.obj
 0001:00011a60       ?getMaximumOutputCount@GPUContext@brook@@UBEIXZ 00412a60 f i brook:dx9runtime.obj
 0001:00011a70       ?getATLinearizeConstant@GPUContext@brook@@UAE?AUfloat4@@IIIPBI@Z 00412a70 f i brook:dx9runtime.obj
 0001:00011b20       ?getATReshapeConstant@GPUContext@brook@@UAE?AUfloat4@@IIIPBI@Z 00412b20 f i brook:dx9runtime.obj
 0001:00011b60       ?createWriteQuery@GPUContext@brook@@UAEPAVIWriteQuery@2@XZ 00412b60 f i brook:dx9runtime.obj
 0001:00011b70       ?createWriteMask@GPUContext@brook@@UAEPAVIWriteMask@2@HH@Z 00412b70 f i brook:dx9runtime.obj
 0001:00011b80       ??_GGPUContext@brook@@UAEPAXI@Z 00412b80 f i brook:dx9runtime.obj
 0001:00011b80       ??_EGPUContext@brook@@UAEPAXI@Z 00412b80 f i brook:dx9runtime.obj
 0001:00011ba0       ??0GPURuntimeDX9@brook@@AAE@XZ 00412ba0 f i brook:dx9runtime.obj
 0001:00011bc0       ??1GPURuntimeDX9@brook@@UAE@XZ 00412bc0 f i brook:dx9runtime.obj
 0001:00011bd0       ?getWidth@DX9Texture@brook@@QAEHXZ 00412bd0 f i brook:dx9runtime.obj
 0001:00011be0       ?getHeight@DX9Texture@brook@@QAEHXZ 00412be0 f i brook:dx9runtime.obj
 0001:00011bf0       ?getTextureHandle@DX9Texture@brook@@QAEPAUIDirect3DTexture9@@XZ 00412bf0 f i brook:dx9runtime.obj
 0001:00011c00       ?getSurfaceHandle@DX9Texture@brook@@QAEPAUIDirect3DSurface9@@XZ 00412c00 f i brook:dx9runtime.obj
 0001:00011c10       ??1GPUContextDX9@brook@@UAE@XZ 00412c10 f i brook:dx9runtime.obj
 0001:00011c20       ??0GPUContext@brook@@QAE@XZ 00412c20 f i brook:dx9runtime.obj
 0001:00011c30       ?isRenderTextureFormatValid@GPUContextDX9Impl@brook@@UAE_NW4_D3DFORMAT@@@Z 00412c30 f   brook:dx9runtime.obj
 0001:00011c60       ?getShaderFormatRank@GPUContextDX9Impl@brook@@UBEHPBD@Z 00412c60 f   brook:dx9runtime.obj
 0001:00011d00       ?getStreamIndexofConstant@GPUContextDX9Impl@brook@@UBE?AUfloat4@@PAX@Z 00412d00 f   brook:dx9runtime.obj
 0001:00011d30       ?getStreamGatherConstant@GPUContextDX9Impl@brook@@UBE?AUfloat4@@IPBI00@Z 00412d30 f   brook:dx9runtime.obj
 0001:00011e50       ?get1DInterpolant@GPUContextDX9Impl@brook@@UBEXABUfloat4@@0IAAUGPUInterpolant@2@@Z 00412e50 f   brook:dx9runtime.obj
 0001:00011f30       ?get2DInterpolant@GPUContextDX9Impl@brook@@UBEXABUfloat2@@0IIAAUGPUInterpolant@2@@Z 00412f30 f   brook:dx9runtime.obj
 0001:00012020       ?getStreamInterpolant@GPUContextDX9Impl@brook@@UBEXQAXIPBI1IIAAUGPUInterpolant@2@@Z 00413020 f   brook:dx9runtime.obj
 0001:00012290       ?getStreamOutputRegion@GPUContextDX9Impl@brook@@UBEXQAXIPBI1AAUGPURegion@2@@Z 00413290 f   brook:dx9runtime.obj
 0001:00012390       ?getStreamReduceOutputRegion@GPUContextDX9Impl@brook@@UBEXQAXIIIIAAUGPURegion@2@@Z 00413390 f   brook:dx9runtime.obj
 0001:00012470       ??_GDX9Texture@brook@@QAEPAXI@Z 00413470 f i brook:dx9runtime.obj
 0001:00012490       ?setTextureData@GPUContextDX9Impl@brook@@UAEXPAXPBMIIIPBI22_N@Z 00413490 f   brook:dx9runtime.obj
 0001:000124d0       ?getTextureData@GPUContextDX9Impl@brook@@UAEXPAXPAMIIIPBI22_N@Z 004134d0 f   brook:dx9runtime.obj
 0001:00012510       ?getTextureRenderData@GPUContextDX9Impl@brook@@UAEPAXPAX@Z 00413510 f   brook:dx9runtime.obj
 0001:00012520       ?synchronizeTextureRenderData@GPUContextDX9Impl@brook@@UAEXPAX@Z 00413520 f   brook:dx9runtime.obj
 0001:00012530       ?finish@GPUContextDX9Impl@brook@@UAEXXZ 00413530 f   brook:dx9runtime.obj
 0001:00012540       ?unbind@GPUContextDX9Impl@brook@@UAEXXZ 00413540 f   brook:dx9runtime.obj
 0001:00012550       ?bind@GPUContextDX9Impl@brook@@UAEXXZ 00413550 f   brook:dx9runtime.obj
 0001:00012560       ?createWriteQuery@GPUContextDX9Impl@brook@@UAEPAVIWriteQuery@2@XZ 00413560 f   brook:dx9runtime.obj
 0001:000125d0       ?createWriteMask@GPUContextDX9Impl@brook@@UAEPAVIWriteMask@2@HH@Z 004135d0 f   brook:dx9runtime.obj
 0001:00012650       ??0GPURegion@brook@@QAE@XZ 00413650 f i brook:dx9runtime.obj
 0001:00012660       ??0GPUInterpolant@brook@@QAE@XZ 00413660 f i brook:dx9runtime.obj
 0001:00012670       ?hackBeginWriteQuery@GPUContextDX9Impl@brook@@UAEXXZ 00413670 f   brook:dx9runtime.obj
 0001:00012690       ??0DX9Vertex@brook@@QAE@XZ 00413690 f i brook:dx9runtime.obj
 0001:000126a0       ?size@?$vector@PAVDX9Texture@brook@@V?$allocator@PAVDX9Texture@brook@@@std@@@std@@QBEIXZ 004136a0 f i brook:dx9runtime.obj
 0001:000126c0       ??0?$allocator@PAVDX9Texture@brook@@@std@@QAE@XZ 004136c0 f i brook:dx9runtime.obj
 0001:000126d0       ?put@?$num_put@DV?$ostreambuf_iterator@DU?$char_traits@D@std@@@std@@@std@@QBE?AV?$ostreambuf_iterator@DU?$char_traits@D@std@@@2@V32@AAVios_base@2@DK@Z 004136d0 f i brook:dx9runtime.obj
 0001:00012710       ?put@?$num_put@DV?$ostreambuf_iterator@DU?$char_traits@D@std@@@std@@@std@@QBE?AV?$ostreambuf_iterator@DU?$char_traits@D@std@@@2@V32@AAVios_base@2@DN@Z 00413710 f i brook:dx9runtime.obj
 0001:00012750       ??0?$allocator@PAVDX9Texture@brook@@@std@@QAE@ABV01@@Z 00413750 f i brook:dx9runtime.obj
 0001:00012760       ?deallocate@?$allocator@PAVDX9Texture@brook@@@std@@QAEXPAPAVDX9Texture@brook@@I@Z 00413760 f i brook:dx9runtime.obj
 0001:00012770       ?capacity@?$vector@PAVDX9Texture@brook@@V?$allocator@PAVDX9Texture@brook@@@std@@@std@@QBEIXZ 00413770 f i brook:dx9runtime.obj
 0001:00012790       ?max_size@?$allocator@PAVDX9Texture@brook@@@std@@QBEIXZ 00413790 f i brook:dx9runtime.obj
 0001:000127a0       ??Y?$_Vector_const_iterator@PAVDX9Texture@brook@@V?$allocator@PAVDX9Texture@brook@@@std@@@std@@QAEAAV01@H@Z 004137a0 f i brook:dx9runtime.obj
 0001:000127e0       ??8?$_Vector_const_iterator@PAVDX9Texture@brook@@V?$allocator@PAVDX9Texture@brook@@@std@@@std@@QBE_NABV01@@Z 004137e0 f i brook:dx9runtime.obj
 0001:00012810       ??0?$_Ranit@PAVDX9Texture@brook@@HPBQAV12@ABQAV12@@std@@QAE@XZ 00413810 f i brook:dx9runtime.obj
 0001:00012820       ??$_Allocate@PAVDX9Texture@brook@@@std@@YAPAPAVDX9Texture@brook@@IPAPAV12@@Z 00413820 f i brook:dx9runtime.obj
 0001:00012880       ??$_Iter_random@PAPAVDX9Texture@brook@@PAPAV12@@std@@YA?AUrandom_access_iterator_tag@0@ABQAPAVDX9Texture@brook@@0@Z 00413880 f i brook:dx9runtime.obj
 0001:00012890       ??$_Ptr_cat@PAPAVDX9Texture@brook@@PAPAV12@@std@@YA?AU_Scalar_ptr_iterator_tag@0@AAPAPAVDX9Texture@brook@@0@Z 00413890 f i brook:dx9runtime.obj
 0001:000128a0       ??$_Copy_opt@PAPAVDX9Texture@brook@@PAPAV12@Urandom_access_iterator_tag@std@@@std@@YAPAPAVDX9Texture@brook@@PAPAV12@00Urandom_access_iterator_tag@0@U_Scalar_ptr_iterator_tag@0@U_Range_checked_iterator_tag@0@@Z 004138a0 f i brook:dx9runtime.obj
 0001:000128e0       ??$_Destroy_range@PAVDX9Texture@brook@@V?$allocator@PAVDX9Texture@brook@@@std@@@std@@YAXPAPAVDX9Texture@brook@@0AAV?$allocator@PAVDX9Texture@brook@@@0@U_Scalar_ptr_iterator_tag@0@@Z 004138e0 f i brook:dx9runtime.obj
 0001:000128f0       ??$_Fill@PAPAVDX9Texture@brook@@PAV12@@std@@YAXPAPAVDX9Texture@brook@@0ABQAV12@@Z 004138f0 f i brook:dx9runtime.obj
 0001:00012910       ??$_Move_cat@PAPAVDX9Texture@brook@@@std@@YA?AU_Undefined_move_tag@0@ABQAPAVDX9Texture@brook@@@Z 00413910 f i brook:dx9runtime.obj
 0001:00012920       ??$_Checked_base@PAPAVDX9Texture@brook@@@std@@YAPAPAVDX9Texture@brook@@AAPAPAV12@U_Unchanged_checked_iterator_base_type_tag@0@@Z 00413920 f i brook:dx9runtime.obj
 0001:00012930       ??$_Copy_backward_opt@PAPAVDX9Texture@brook@@PAPAV12@Urandom_access_iterator_tag@std@@@std@@YAPAPAVDX9Texture@brook@@PAPAV12@00Urandom_access_iterator_tag@0@U_Scalar_ptr_iterator_tag@0@U_Range_checked_iterator_tag@0@@Z 00413930 f i brook:dx9runtime.obj
 0001:00012960       ??$_Iter_cat@PAPAVDX9Texture@brook@@@std@@YA?AUrandom_access_iterator_tag@0@ABQAPAVDX9Texture@brook@@@Z 00413960 f i brook:dx9runtime.obj
 0001:00012970       ??$_Uninit_copy@PAPAVDX9Texture@brook@@PAPAV12@V?$allocator@PAVDX9Texture@brook@@@std@@@std@@YAPAPAVDX9Texture@brook@@PAPAV12@00AAV?$allocator@PAVDX9Texture@brook@@@0@U_Scalar_ptr_iterator_tag@0@U_Range_checked_iterator_tag@0@@Z 00413970 f i brook:dx9runtime.obj
 0001:000129a0       ??$_Fill_n@PAPAVDX9Texture@brook@@IPAV12@@std@@YAXPAPAVDX9Texture@brook@@IABQAV12@U_Range_checked_iterator_tag@0@@Z 004139a0 f i brook:dx9runtime.obj
 0001:000129d0       ??_GGPURuntimeDX9@brook@@UAEPAXI@Z 004139d0 f i brook:dx9runtime.obj
 0001:000129d0       ??_EGPURuntimeDX9@brook@@UAEPAXI@Z 004139d0 f i brook:dx9runtime.obj
 0001:000129f0       ??0GPUContextDX9@brook@@QAE@XZ 004139f0 f i brook:dx9runtime.obj
 0001:00012a00       ??_GGPUContextDX9@brook@@UAEPAXI@Z 00413a00 f i brook:dx9runtime.obj
 0001:00012a00       ??_EGPUContextDX9@brook@@UAEPAXI@Z 00413a00 f i brook:dx9runtime.obj
 0001:00012a20       ?releaseTexture@GPUContextDX9Impl@brook@@UAEXPAX@Z 00413a20 f   brook:dx9runtime.obj
 0001:00012a40       ??A?$vector@PAVDX9Texture@brook@@V?$allocator@PAVDX9Texture@brook@@@std@@@std@@QAEAAPAVDX9Texture@brook@@I@Z 00413a40 f i brook:dx9runtime.obj
 0001:00012a70       ??0?$_Vector_val@PAVDX9Texture@brook@@V?$allocator@PAVDX9Texture@brook@@@std@@@std@@IAE@V?$allocator@PAVDX9Texture@brook@@@1@@Z 00413a70 f i brook:dx9runtime.obj
 0001:00012a80       ?max_size@?$vector@PAVDX9Texture@brook@@V?$allocator@PAVDX9Texture@brook@@@std@@@std@@QBEIXZ 00413a80 f i brook:dx9runtime.obj
 0001:00012a90       ?allocate@?$allocator@PAVDX9Texture@brook@@@std@@QAEPAPAVDX9Texture@brook@@I@Z 00413a90 f i brook:dx9runtime.obj
 0001:00012ab0       ??Y?$_Vector_iterator@PAVDX9Texture@brook@@V?$allocator@PAVDX9Texture@brook@@@std@@@std@@QAEAAV01@H@Z 00413ab0 f i brook:dx9runtime.obj
 0001:00012af0       ??9?$_Vector_const_iterator@PAVDX9Texture@brook@@V?$allocator@PAVDX9Texture@brook@@@std@@@std@@QBE_NABV01@@Z 00413af0 f i brook:dx9runtime.obj
 0001:00012b20       ??0?$_Vector_const_iterator@PAVDX9Texture@brook@@V?$allocator@PAVDX9Texture@brook@@@std@@@std@@QAE@PAPAVDX9Texture@brook@@PBU_Container_base@1@@Z 00413b20 f i brook:dx9runtime.obj
 0001:00012b60       ??$_Destroy_range@PAVDX9Texture@brook@@V?$allocator@PAVDX9Texture@brook@@@std@@@std@@YAXPAPAVDX9Texture@brook@@0AAV?$allocator@PAVDX9Texture@brook@@@0@@Z 00413b60 f i brook:dx9runtime.obj
 0001:00012b70       ??$_Checked_base@PAPAVDX9Texture@brook@@@std@@YAPAPAVDX9Texture@brook@@AAPAPAV12@@Z 00413b70 f i brook:dx9runtime.obj
 0001:00012b80       ??$_Move_backward_opt@PAPAVDX9Texture@brook@@PAPAV12@Urandom_access_iterator_tag@std@@U_Undefined_move_tag@4@@std@@YAPAPAVDX9Texture@brook@@PAPAV12@00Urandom_access_iterator_tag@0@U_Undefined_move_tag@0@U_Range_checked_iterator_tag@0@@Z 00413b80 f i brook:dx9runtime.obj
 0001:00012bb0       ??$unchecked_uninitialized_copy@PAPAVDX9Texture@brook@@PAPAV12@V?$allocator@PAVDX9Texture@brook@@@std@@@stdext@@YAPAPAVDX9Texture@brook@@PAPAV12@00AAV?$allocator@PAVDX9Texture@brook@@@std@@@Z 00413bb0 f i brook:dx9runtime.obj
 0001:00012be0       ??$_Fill_n@PAPAVDX9Texture@brook@@IPAV12@@std@@YAXPAPAVDX9Texture@brook@@IABQAV12@Urandom_access_iterator_tag@0@U_Range_checked_iterator_tag@0@@Z 00413be0 f i brook:dx9runtime.obj
 0001:00012c10       ?_Destroy@?$vector@PAVDX9Texture@brook@@V?$allocator@PAVDX9Texture@brook@@@std@@@std@@IAEXPAPAVDX9Texture@brook@@0@Z 00413c10 f i brook:dx9runtime.obj
 0001:00012c20       ??H?$_Vector_iterator@PAVDX9Texture@brook@@V?$allocator@PAVDX9Texture@brook@@@std@@@std@@QBE?AV01@H@Z 00413c20 f i brook:dx9runtime.obj
 0001:00012c60       ??0?$_Vector_iterator@PAVDX9Texture@brook@@V?$allocator@PAVDX9Texture@brook@@@std@@@std@@QAE@PAPAVDX9Texture@brook@@PBU_Container_base@1@@Z 00413c60 f i brook:dx9runtime.obj
 0001:00012ca0       ??$unchecked_copy@PAPAVDX9Texture@brook@@PAPAV12@@stdext@@YAPAPAVDX9Texture@brook@@PAPAV12@00@Z 00413ca0 f i brook:dx9runtime.obj
 0001:00012ce0       ??$fill@PAPAVDX9Texture@brook@@PAV12@@std@@YAXPAPAVDX9Texture@brook@@0ABQAV12@@Z 00413ce0 f i brook:dx9runtime.obj
 0001:00012d00       ??$_Unchecked_move_backward@PAPAVDX9Texture@brook@@PAPAV12@@stdext@@YAPAPAVDX9Texture@brook@@PAPAV12@00@Z 00413d00 f i brook:dx9runtime.obj
 0001:00012d30       ??$_Uninit_move@PAPAVDX9Texture@brook@@PAPAV12@V?$allocator@PAVDX9Texture@brook@@@std@@U_Undefined_move_tag@4@@std@@YAPAPAVDX9Texture@brook@@PAPAV12@00AAV?$allocator@PAVDX9Texture@brook@@@0@U_Undefined_move_tag@0@U_Range_checked_iterator_tag@0@@Z 00413d30 f i brook:dx9runtime.obj
 0001:00012d60       ??$unchecked_fill_n@PAPAVDX9Texture@brook@@IPAV12@@stdext@@YAXPAPAVDX9Texture@brook@@IABQAV12@@Z 00413d60 f i brook:dx9runtime.obj
 0001:00012d90       ?_Tidy@?$vector@PAVDX9Texture@brook@@V?$allocator@PAVDX9Texture@brook@@@std@@@std@@IAEXXZ 00413d90 f i brook:dx9runtime.obj
 0001:00012dc0       ?begin@?$vector@PAVDX9Texture@brook@@V?$allocator@PAVDX9Texture@brook@@@std@@@std@@QAE?AV?$_Vector_iterator@PAVDX9Texture@brook@@V?$allocator@PAVDX9Texture@brook@@@std@@@2@XZ 00413dc0 f i brook:dx9runtime.obj
 0001:00012df0       ?end@?$vector@PAVDX9Texture@brook@@V?$allocator@PAVDX9Texture@brook@@@std@@@std@@QAE?AV?$_Vector_iterator@PAVDX9Texture@brook@@V?$allocator@PAVDX9Texture@brook@@@std@@@2@XZ 00413df0 f i brook:dx9runtime.obj
 0001:00012e20       ?erase@?$vector@PAVDX9Texture@brook@@V?$allocator@PAVDX9Texture@brook@@@std@@@std@@QAE?AV?$_Vector_iterator@PAVDX9Texture@brook@@V?$allocator@PAVDX9Texture@brook@@@std@@@2@V32@0@Z 00413e20 f i brook:dx9runtime.obj
 0001:00012e80       ??$_Unchecked_uninitialized_move@PAPAVDX9Texture@brook@@PAPAV12@V?$allocator@PAVDX9Texture@brook@@@std@@@stdext@@YAPAPAVDX9Texture@brook@@PAPAV12@00AAV?$allocator@PAVDX9Texture@brook@@@std@@@Z 00413e80 f i brook:dx9runtime.obj
 0001:00012eb0       ??$_Uninit_fill_n@PAPAVDX9Texture@brook@@IPAV12@V?$allocator@PAVDX9Texture@brook@@@std@@@std@@YAXPAPAVDX9Texture@brook@@IABQAV12@AAV?$allocator@PAVDX9Texture@brook@@@0@U_Scalar_ptr_iterator_tag@0@U_Range_checked_iterator_tag@0@@Z 00413eb0 f i brook:dx9runtime.obj
 0001:00012ee0       ??1?$vector@PAVDX9Texture@brook@@V?$allocator@PAVDX9Texture@brook@@@std@@@std@@QAE@XZ 00413ee0 f i brook:dx9runtime.obj
 0001:00012f10       ??$_Umove@PAPAVDX9Texture@brook@@@?$vector@PAVDX9Texture@brook@@V?$allocator@PAVDX9Texture@brook@@@std@@@std@@IAEPAPAVDX9Texture@brook@@PAPAV23@00@Z 00413f10 f i brook:dx9runtime.obj
 0001:00012f40       ??$unchecked_uninitialized_fill_n@PAPAVDX9Texture@brook@@IPAV12@V?$allocator@PAVDX9Texture@brook@@@std@@@stdext@@YAXPAPAVDX9Texture@brook@@IABQAV12@AAV?$allocator@PAVDX9Texture@brook@@@std@@@Z 00413f40 f i brook:dx9runtime.obj
 0001:00012f70       ?_Ufill@?$vector@PAVDX9Texture@brook@@V?$allocator@PAVDX9Texture@brook@@@std@@@std@@IAEPAPAVDX9Texture@brook@@PAPAV34@IABQAV34@@Z 00413f70 f i brook:dx9runtime.obj
 0001:00012fa0       ?_Xlen@?$vector@PAVDX9Texture@brook@@V?$allocator@PAVDX9Texture@brook@@@std@@@std@@KAXXZ 00413fa0 f i brook:dx9runtime.obj
 0001:00013020       ?_Buy@?$vector@PAVDX9Texture@brook@@V?$allocator@PAVDX9Texture@brook@@@std@@@std@@IAE_NI@Z 00414020 f i brook:dx9runtime.obj
 0001:00013070       ?_Insert_n@?$vector@PAVDX9Texture@brook@@V?$allocator@PAVDX9Texture@brook@@@std@@@std@@IAEXV?$_Vector_iterator@PAVDX9Texture@brook@@V?$allocator@PAVDX9Texture@brook@@@std@@@2@IABQAVDX9Texture@brook@@@Z 00414070 f i brook:dx9runtime.obj
 0001:00013230       ??0?$vector@PAVDX9Texture@brook@@V?$allocator@PAVDX9Texture@brook@@@std@@@std@@QAE@XZ 00414230 f i brook:dx9runtime.obj
 0001:00013240       ?resize@?$vector@PAVDX9Texture@brook@@V?$allocator@PAVDX9Texture@brook@@@std@@@std@@QAEXIPAVDX9Texture@brook@@@Z 00414240 f i brook:dx9runtime.obj
 0001:00013300       ??0GPUContextDX9Impl@brook@@AAE@XZ 00414300 f   brook:dx9runtime.obj
 0001:00013350       ?getDevice@GPUContextDX9Impl@brook@@UAEPAUIDirect3DDevice9@@XZ 00414350 f i brook:dx9runtime.obj
 0001:00013360       ?isTextureExtentValid@GPUContextDX9Impl@brook@@UBE_NI@Z 00414360 f i brook:dx9runtime.obj
 0001:00013380       ?getPassthroughVertexShader@GPUContextDX9Impl@brook@@UAEPAXPBD@Z 00414380 f i brook:dx9runtime.obj
 0001:000133b0       ?getPassthroughPixelShader@GPUContextDX9Impl@brook@@UAEPAXPBD@Z 004143b0 f i brook:dx9runtime.obj
 0001:000133c0       ?setOutputDomainMode@GPUContextDX9Impl@brook@@UAEX_N@Z 004143c0 f i brook:dx9runtime.obj
 0001:000133d0       ?setAddressTranslationMode@GPUContextDX9Impl@brook@@UAEX_N@Z 004143d0 f i brook:dx9runtime.obj
 0001:000133e0       ?getMaximumOutputCount@GPUContextDX9Impl@brook@@UBEIXZ 004143e0 f i brook:dx9runtime.obj
 0001:000133f0       ??1GPUContextDX9Impl@brook@@UAE@XZ 004143f0 f i brook:dx9runtime.obj
 0001:00013420       ??_EGPUContextDX9Impl@brook@@UAEPAXI@Z 00414420 f i brook:dx9runtime.obj
 0001:00013420       ??_GGPUContextDX9Impl@brook@@UAEPAXI@Z 00414420 f i brook:dx9runtime.obj
 0001:00013470       ?resize@?$vector@PAVDX9Texture@brook@@V?$allocator@PAVDX9Texture@brook@@@std@@@std@@QAEXI@Z 00414470 f i brook:dx9runtime.obj
 0001:00013480       ?createPixelShader@GPUContextDX9Impl@brook@@UAEPAXPBD@Z 00414480 f   brook:dx9runtime.obj
 0001:00013560       ?createVertexShader@GPUContextDX9Impl@brook@@QAEPAXPBD@Z 00414560 f   brook:dx9runtime.obj
 0001:00013640       ??6?$basic_ostream@DU?$char_traits@D@std@@@std@@QAEAAV01@I@Z 00414640 f i brook:dx9runtime.obj
 0001:00013790       ??6?$basic_ostream@DU?$char_traits@D@std@@@std@@QAEAAV01@M@Z 00414790 f i brook:dx9runtime.obj
 0001:000138f0       ?hackEnableWriteMask@GPUContext@brook@@UAEXXZ 004148f0 f i brook:dx9runtime.obj
 0001:00013910       ?hackDisableWriteMask@GPUContext@brook@@UAEXXZ 00414910 f i brook:dx9runtime.obj
 0001:00013930       ?hackSetWriteMask@GPUContext@brook@@UAEXPAX@Z 00414930 f i brook:dx9runtime.obj
 0001:00013950       ?hackBeginWriteQuery@GPUContext@brook@@UAEXXZ 00414950 f i brook:dx9runtime.obj
 0001:00013970       ?hackEndWriteQuery@GPUContext@brook@@UAEHXZ 00414970 f i brook:dx9runtime.obj
 0001:00013990       ?initialize@GPUContextDX9Impl@brook@@AAE_NPAX@Z 00414990 f   brook:dx9runtime.obj
 0001:00013d70       ?getStreamReduceInterpolant@GPUContextDX9Impl@brook@@UBEXQAXIIIIIIAAUGPUInterpolant@2@@Z 00414d70 f   brook:dx9runtime.obj
 0001:00014080       ?createTexture2D@GPUContextDX9Impl@brook@@UAEPAXIIW4TextureFormat@GPUContext@2@_N@Z 00415080 f   brook:dx9runtime.obj
 0001:00014140       ?beginScene@GPUContextDX9Impl@brook@@UAEXXZ 00415140 f   brook:dx9runtime.obj
 0001:00014170       ?endScene@GPUContextDX9Impl@brook@@UAEXXZ 00415170 f   brook:dx9runtime.obj
 0001:00014210       ?bindConstant@GPUContextDX9Impl@brook@@UAEXPAXIABUfloat4@@@Z 00415210 f   brook:dx9runtime.obj
 0001:00014250       ?bindTexture@GPUContextDX9Impl@brook@@UAEXIPAX@Z 00415250 f   brook:dx9runtime.obj
 0001:000142f0       ?bindOutput@GPUContextDX9Impl@brook@@UAEXIPAX@Z 004152f0 f   brook:dx9runtime.obj
 0001:00014350       ?disableOutput@GPUContextDX9Impl@brook@@UAEXI@Z 00415350 f   brook:dx9runtime.obj
 0001:000143b0       ?bindPixelShader@GPUContextDX9Impl@brook@@UAEXPAX@Z 004153b0 f   brook:dx9runtime.obj
 0001:000143e0       ?bindVertexShader@GPUContextDX9Impl@brook@@UAEXPAX@Z 004153e0 f   brook:dx9runtime.obj
 0001:00014410       ?enableZTest@GPUContextDX9Impl@brook@@AAEXXZ 00415410 f   brook:dx9runtime.obj
 0001:00014450       ?disableZTest@GPUContextDX9Impl@brook@@AAEXXZ 00415450 f   brook:dx9runtime.obj
 0001:00014490       ?restoreZTest@GPUContextDX9Impl@brook@@AAEXXZ 00415490 f   brook:dx9runtime.obj
 0001:00014520       ?enableZWrite@GPUContextDX9Impl@brook@@AAEXXZ 00415520 f   brook:dx9runtime.obj
 0001:00014560       ?disableZWrite@GPUContextDX9Impl@brook@@AAEXXZ 00415560 f   brook:dx9runtime.obj
 0001:000145a0       ?hackEnableWriteMask@GPUContextDX9Impl@brook@@UAEXXZ 004155a0 f   brook:dx9runtime.obj
 0001:000145c0       ?hackDisableWriteMask@GPUContextDX9Impl@brook@@UAEXXZ 004155c0 f   brook:dx9runtime.obj
 0001:000145e0       ?hackSetWriteMask@GPUContextDX9Impl@brook@@UAEXPAX@Z 004155e0 f   brook:dx9runtime.obj
 0001:000148d0       ?hackEndWriteQuery@GPUContextDX9Impl@brook@@UAEHXZ 004158d0 f   brook:dx9runtime.obj
 0001:00014920       ?drawRectangle@GPUContextDX9Impl@brook@@UAEXABUGPURegion@2@PBUGPUInterpolant@2@I@Z 00415920 f   brook:dx9runtime.obj
 0001:00014ed0       ?create@GPUContextDX9Impl@brook@@SAPAV12@PAX@Z 00415ed0 f   brook:dx9runtime.obj
 0001:00014f70       ?create@GPURuntimeDX9@brook@@SAPAV12@PAX@Z 00415f70 f   brook:dx9runtime.obj
 0001:00015020       ??0Stream@brook@@QAE@XZ    00416020 f i brook:cpustream.obj
 0001:00015030       ?Domain@Stream@brook@@UAEPAV12@HH@Z 00416030 f i brook:cpustream.obj
 0001:00015040       ?Domain@Stream@brook@@UAEPAV12@ABUint2@@0@Z 00416040 f i brook:cpustream.obj
 0001:00015050       ?Domain@Stream@brook@@UAEPAV12@ABUint3@@0@Z 00416050 f i brook:cpustream.obj
 0001:00015060       ?Domain@Stream@brook@@UAEPAV12@ABUint4@@0@Z 00416060 f i brook:cpustream.obj
 0001:00015070       ??1Stream@brook@@MAE@XZ    00416070 f i brook:cpustream.obj
 0001:00015080       ??_EStream@brook@@MAEPAXI@Z 00416080 f i brook:cpustream.obj
 0001:00015080       ??_GStream@brook@@MAEPAXI@Z 00416080 f i brook:cpustream.obj
 0001:000150a0       ?Read@CPUStream@brook@@UAEXPBX@Z 004160a0 f   brook:cpustream.obj
 0001:00015190       ?Write@CPUStream@brook@@UAEXPAX@Z 00416190 f   brook:cpustream.obj
 0001:00015280       ?fetchElem@CPUStream@brook@@UAEPAXQBI0I@Z 00416280 f   brook:cpustream.obj
 0001:000152f0       ??8?$_Vector_const_iterator@W4StreamType@brook@@V?$allocator@W4StreamType@brook@@@std@@@std@@QBE_NABV01@@Z 004162f0 f i brook:cpustream.obj
 0001:00015320       ??$_Iter_cat@PBW4StreamType@brook@@@std@@YA?AUrandom_access_iterator_tag@0@ABQBW4StreamType@brook@@@Z 00416320 f i brook:cpustream.obj
 0001:00015330       ??$_Copy_opt@PAW4StreamType@brook@@PAW412@Uforward_iterator_tag@std@@@std@@YAPAW4StreamType@brook@@PAW412@00Uforward_iterator_tag@0@U_Nonscalar_ptr_iterator_tag@0@U_Range_checked_iterator_tag@0@@Z 00416330 f i brook:cpustream.obj
 0001:00015360       ??$_Distance2@PBW4StreamType@brook@@I@std@@YAXPBW4StreamType@brook@@0AAIUrandom_access_iterator_tag@0@@Z 00416360 f i brook:cpustream.obj
 0001:00015380       ??$_Advance@PBW4StreamType@brook@@H@std@@YAXAAPBW4StreamType@brook@@HUrandom_access_iterator_tag@0@@Z 00416380 f i brook:cpustream.obj
 0001:000153a0       ??$_Iter_random@PBW4StreamType@brook@@PAW412@@std@@YA?AUrandom_access_iterator_tag@0@ABQBW4StreamType@brook@@ABQAW423@@Z 004163a0 f i brook:cpustream.obj
 0001:000153b0       ??$_Ptr_cat@PBW4StreamType@brook@@PAW412@@std@@YA?AU_Nonscalar_ptr_iterator_tag@0@AAPBW4StreamType@brook@@AAPAW423@@Z 004163b0 f i brook:cpustream.obj
 0001:000153c0       ??$_Checked_base@PBW4StreamType@brook@@@std@@YAPBW4StreamType@brook@@AAPBW412@U_Unchanged_checked_iterator_base_type_tag@0@@Z 004163c0 f i brook:cpustream.obj
 0001:000153d0       ??$_Copy_opt@PBW4StreamType@brook@@PAW412@Uforward_iterator_tag@std@@@std@@YAPAW4StreamType@brook@@PBW412@0PAW412@Uforward_iterator_tag@0@U_Nonscalar_ptr_iterator_tag@0@U_Range_checked_iterator_tag@0@@Z 004163d0 f i brook:cpustream.obj
 0001:00015400       ??9?$_Vector_const_iterator@W4StreamType@brook@@V?$allocator@W4StreamType@brook@@@std@@@std@@QBE_NABV01@@Z 00416400 f i brook:cpustream.obj
 0001:00015430       ??$_Copy_opt@PAW4StreamType@brook@@PAW412@@std@@YAPAW4StreamType@brook@@PAW412@00Urandom_access_iterator_tag@0@U_Nonscalar_ptr_iterator_tag@0@U_Range_checked_iterator_tag@0@@Z 00416430 f i brook:cpustream.obj
 0001:00015460       ??$_Distance@PBW4StreamType@brook@@I@std@@YAXPBW4StreamType@brook@@0AAI@Z 00416460 f i brook:cpustream.obj
 0001:00015480       ??$advance@PBW4StreamType@brook@@H@std@@YAXAAPBW4StreamType@brook@@H@Z 00416480 f i brook:cpustream.obj
 0001:000154a0       ??$_Checked_base@PBW4StreamType@brook@@@std@@YAPBW4StreamType@brook@@AAPBW412@@Z 004164a0 f i brook:cpustream.obj
 0001:000154b0       ??$_Copy_opt@PBW4StreamType@brook@@PAW412@@std@@YAPAW4StreamType@brook@@PBW412@0PAW412@Urandom_access_iterator_tag@0@U_Nonscalar_ptr_iterator_tag@0@U_Range_checked_iterator_tag@0@@Z 004164b0 f i brook:cpustream.obj
 0001:000154e0       ??$_Uninit_copy@PBW4StreamType@brook@@PAW412@V?$allocator@W4StreamType@brook@@@std@@@std@@YAPAW4StreamType@brook@@PBW412@0PAW412@AAV?$allocator@W4StreamType@brook@@@0@U_Nonscalar_ptr_iterator_tag@0@U_Range_checked_iterator_tag@0@@Z 004164e0 f i brook:cpustream.obj
 0001:00015510       ??$unchecked_copy@PAW4StreamType@brook@@PAW412@@stdext@@YAPAW4StreamType@brook@@PAW412@00@Z 00416510 f i brook:cpustream.obj
 0001:00015540       ??$unchecked_copy@PBW4StreamType@brook@@PAW412@@stdext@@YAPAW4StreamType@brook@@PBW412@0PAW412@@Z 00416540 f i brook:cpustream.obj
 0001:00015570       ??$unchecked_uninitialized_copy@PBW4StreamType@brook@@PAW412@V?$allocator@W4StreamType@brook@@@std@@@stdext@@YAPAW4StreamType@brook@@PBW412@0PAW412@AAV?$allocator@W4StreamType@brook@@@std@@@Z 00416570 f i brook:cpustream.obj
 0001:000155a0       ??$_Ucopy@PAW4StreamType@brook@@@?$vector@W4StreamType@brook@@V?$allocator@W4StreamType@brook@@@std@@@std@@IAEPAW4StreamType@brook@@PAW423@00@Z 004165a0 f i brook:cpustream.obj
 0001:000155d0       ??$_Ucopy@PBW4StreamType@brook@@@?$vector@W4StreamType@brook@@V?$allocator@W4StreamType@brook@@@std@@@std@@IAEPAW4StreamType@brook@@PBW423@0PAW423@@Z 004165d0 f i brook:cpustream.obj
 0001:00015600       ?erase@?$vector@W4StreamType@brook@@V?$allocator@W4StreamType@brook@@@std@@@std@@QAE?AV?$_Vector_iterator@W4StreamType@brook@@V?$allocator@W4StreamType@brook@@@std@@@2@V32@0@Z 00416600 f i brook:cpustream.obj
 0001:00015670       ?clear@?$vector@W4StreamType@brook@@V?$allocator@W4StreamType@brook@@@std@@@std@@QAEXXZ 00416670 f i brook:cpustream.obj
 0001:000156b0       ??1CPUStream@brook@@UAE@XZ 004166b0 f   brook:cpustream.obj
 0001:00015730       ?getData@CPUStream@brook@@UAEPAXI@Z 00416730 f i brook:cpustream.obj
 0001:00015740       ?releaseData@CPUStream@brook@@UAEXI@Z 00416740 f i brook:cpustream.obj
 0001:00015750       ?getExtents@CPUStream@brook@@UBEPBIXZ 00416750 f i brook:cpustream.obj
 0001:00015760       ?getDimension@CPUStream@brook@@UBEIXZ 00416760 f i brook:cpustream.obj
 0001:00015770       ?getTotalSize@CPUStream@brook@@UBEIXZ 00416770 f i brook:cpustream.obj
 0001:00015780       ?getDomainMin@CPUStream@brook@@UBEPBIXZ 00416780 f i brook:cpustream.obj
 0001:00015790       ?getDomainMax@CPUStream@brook@@UBEPBIXZ 00416790 f i brook:cpustream.obj
 0001:000157a0       ?isCPU@CPUStream@brook@@UBE_NXZ 004167a0 f i brook:cpustream.obj
 0001:000157b0       ??A?$vector@W4StreamType@brook@@V?$allocator@W4StreamType@brook@@@std@@@std@@QBEABW4StreamType@brook@@I@Z 004167b0 f i brook:cpustream.obj
 0001:000157e0       ?getFieldCount@CPUStream@brook@@UBEIXZ 004167e0 f i brook:cpustream.obj
 0001:00015800       ?getIndexedFieldType@CPUStream@brook@@UBE?AW4StreamType@2@I@Z 00416800 f i brook:cpustream.obj
 0001:00015840       ??$_Insert@PBW4StreamType@brook@@@?$vector@W4StreamType@brook@@V?$allocator@W4StreamType@brook@@@std@@@std@@QAEXV?$_Vector_iterator@W4StreamType@brook@@V?$allocator@W4StreamType@brook@@@std@@@1@PBW4StreamType@brook@@1Uforward_iterator_tag@1@@Z 00416840 f i brook:cpustream.obj
 0001:00015ad0       ??_ECPUStream@brook@@UAEPAXI@Z 00416ad0 f i brook:cpustream.obj
 0001:00015ad0       ??_GCPUStream@brook@@UAEPAXI@Z 00416ad0 f i brook:cpustream.obj
 0001:00015af0       ??1CPUStreamShadow@brook@@UAE@XZ 00416af0 f   brook:cpustream.obj
 0001:00015b50       ??$insert@PBW4StreamType@brook@@@?$vector@W4StreamType@brook@@V?$allocator@W4StreamType@brook@@@std@@@std@@QAEXV?$_Vector_iterator@W4StreamType@brook@@V?$allocator@W4StreamType@brook@@@std@@@1@PBW4StreamType@brook@@1@Z 00416b50 f i brook:cpustream.obj
 0001:00015b80       ??_GCPUStreamShadow@brook@@UAEPAXI@Z 00416b80 f i brook:cpustream.obj
 0001:00015b80       ??_ECPUStreamShadow@brook@@UAEPAXI@Z 00416b80 f i brook:cpustream.obj
 0001:00015ba0       ??4?$vector@W4StreamType@brook@@V?$allocator@W4StreamType@brook@@@std@@@std@@QAEAAV01@ABV01@@Z 00416ba0 f i brook:cpustream.obj
 0001:00015cd0       ??0CPUStream@brook@@QAE@XZ 00416cd0 f i brook:cpustream.obj
 0001:00015d20       ??0CPUStream@brook@@QAE@ABV01@PBH1@Z 00416d20 f   brook:cpustream.obj
 0001:00015e30       ?Domain@CPUStream@brook@@UAEPAVStream@2@HH@Z 00416e30 f   brook:cpustream.obj
 0001:00015eb0       ?Domain@CPUStream@brook@@UAEPAVStream@2@ABUint2@@0@Z 00416eb0 f   brook:cpustream.obj
 0001:00015f30       ?Domain@CPUStream@brook@@UAEPAVStream@2@ABUint3@@0@Z 00416f30 f   brook:cpustream.obj
 0001:00015fb0       ?Domain@CPUStream@brook@@UAEPAVStream@2@ABUint4@@0@Z 00416fb0 f   brook:cpustream.obj
 0001:00016030       ??0CPUStreamShadow@brook@@QAE@PAVStreamInterface@1@I@Z 00417030 f   brook:cpustream.obj
 0001:000161d0       ??0CPUStream@brook@@QAE@IPBW4StreamType@1@IQBI@Z 004171d0 f   brook:cpustream.obj
 0001:000163f0       ?allocateStream@CPUIter@brook@@IAEXIQBIQBM@Z 004173f0 f   brook:cpuiter.obj
 0001:000166b0       ??0Kernel@brook@@QAE@XZ    004176b0 f i brook:cpukernel.obj
 0001:000166c0       ?Release@Kernel@brook@@UAEXXZ 004176c0 f i brook:cpukernel.obj
 0001:000166d0       ?Continue@Kernel@brook@@UAE_NXZ 004176d0 f i brook:cpukernel.obj
 0001:000166e0       ?FetchElem@Kernel@brook@@UAEPAXPAVStreamInterface@2@@Z 004176e0 f i brook:cpukernel.obj
 0001:000166f0       ??1Kernel@brook@@MAE@XZ    004176f0 f i brook:cpukernel.obj
 0001:00016700       ??_EKernel@brook@@MAEPAXI@Z 00417700 f i brook:cpukernel.obj
 0001:00016700       ??_GKernel@brook@@MAEPAXI@Z 00417700 f i brook:cpukernel.obj
 0001:00016720       ??Bstream@brook@@QBEPAVStreamInterface@1@XZ 00417720 f i brook:cpukernel.obj
 0001:00016730       ?PushIter@CPUKernel@brook@@UAEXPAVIter@2@@Z 00417730 f   brook:cpukernel.obj
 0001:00016740       ?PushStream@CPUKernel@brook@@UAEXPAVStream@2@@Z 00417740 f   brook:cpukernel.obj
 0001:00016750       ?Continue@CPUKernel@brook@@UAE_NXZ 00417750 f   brook:cpukernel.obj
 0001:00016790       ?FetchElem@CPUKernel@brook@@UAEPAXPAVStreamInterface@2@@Z 00417790 f   brook:cpukernel.obj
 0001:000167c0       ?Release@CPUKernel@brook@@UAEXXZ 004177c0 f   brook:cpukernel.obj
 0001:000167d0       ?size@?$vector@PAVStreamInterface@brook@@V?$allocator@PAVStreamInterface@brook@@@std@@@std@@QBEIXZ 004177d0 f i brook:cpukernel.obj
 0001:000167f0       ??A?$vector@PAVStreamInterface@brook@@V?$allocator@PAVStreamInterface@brook@@@std@@@std@@QAEAAPAVStreamInterface@brook@@I@Z 004177f0 f i brook:cpukernel.obj
 0001:00016820       ?size@?$vector@PAV?$__BrtArray@E@@V?$allocator@PAV?$__BrtArray@E@@@std@@@std@@QBEIXZ 00417820 f i brook:cpukernel.obj
 0001:00016840       ??A?$vector@PAV?$__BrtArray@E@@V?$allocator@PAV?$__BrtArray@E@@@std@@@std@@QAEAAPAV?$__BrtArray@E@@I@Z 00417840 f i brook:cpukernel.obj
 0001:00016870       ??1?$__BrtArray@E@@QAE@XZ  00417870 f i brook:cpukernel.obj
 0001:000168b0       ?capacity@?$vector@PAVStreamInterface@brook@@V?$allocator@PAVStreamInterface@brook@@@std@@@std@@QBEIXZ 004178b0 f i brook:cpukernel.obj
 0001:000168d0       ??0?$allocator@PAVStreamInterface@brook@@@std@@QAE@XZ 004178d0 f i brook:cpukernel.obj
 0001:000168e0       ?capacity@?$vector@PAXV?$allocator@PAX@std@@@std@@QBEIXZ 004178e0 f i brook:cpukernel.obj
 0001:00016900       ??0?$allocator@PAX@std@@QAE@XZ 00417900 f i brook:cpukernel.obj
 0001:00016910       ?capacity@?$vector@PAV?$__BrtArray@E@@V?$allocator@PAV?$__BrtArray@E@@@std@@@std@@QBEIXZ 00417910 f i brook:cpukernel.obj
 0001:00016930       ??0?$allocator@PAV?$__BrtArray@E@@@std@@QAE@XZ 00417930 f i brook:cpukernel.obj
 0001:00016940       ?init@?$__BrtArray@E@@AAEXPAEIIPBI11@Z 00417940 f i brook:cpukernel.obj
 0001:000169e0       ??0?$allocator@PAVStreamInterface@brook@@@std@@QAE@ABV01@@Z 004179e0 f i brook:cpukernel.obj
 0001:000169f0       ?deallocate@?$allocator@PAVStreamInterface@brook@@@std@@QAEXPAPAVStreamInterface@brook@@I@Z 004179f0 f i brook:cpukernel.obj
 0001:00016a00       ??0?$allocator@PAX@std@@QAE@ABV01@@Z 00417a00 f i brook:cpukernel.obj
 0001:00016a10       ?deallocate@?$allocator@PAX@std@@QAEXPAPAXI@Z 00417a10 f i brook:cpukernel.obj
 0001:00016a20       ??0?$allocator@PAV?$__BrtArray@E@@@std@@QAE@ABV01@@Z 00417a20 f i brook:cpukernel.obj
 0001:00016a30       ?deallocate@?$allocator@PAV?$__BrtArray@E@@@std@@QAEXPAPAV?$__BrtArray@E@@I@Z 00417a30 f i brook:cpukernel.obj
 0001:00016a40       ?max_size@?$allocator@PAVStreamInterface@brook@@@std@@QBEIXZ 00417a40 f i brook:cpukernel.obj
 0001:00016a50       ?max_size@?$allocator@PAX@std@@QBEIXZ 00417a50 f i brook:cpukernel.obj
 0001:00016a60       ?max_size@?$allocator@PAV?$__BrtArray@E@@@std@@QBEIXZ 00417a60 f i brook:cpukernel.obj
 0001:00016a70       ??G?$_Vector_const_iterator@PAVStreamInterface@brook@@V?$allocator@PAVStreamInterface@brook@@@std@@@std@@QBEHABV01@@Z 00417a70 f i brook:cpukernel.obj
 0001:00016aa0       ??8?$_Vector_const_iterator@PAVStreamInterface@brook@@V?$allocator@PAVStreamInterface@brook@@@std@@@std@@QBE_NABV01@@Z 00417aa0 f i brook:cpukernel.obj
 0001:00016ad0       ??G?$_Vector_const_iterator@PAXV?$allocator@PAX@std@@@std@@QBEHABV01@@Z 00417ad0 f i brook:cpukernel.obj
 0001:00016b00       ??8?$_Vector_const_iterator@PAXV?$allocator@PAX@std@@@std@@QBE_NABV01@@Z 00417b00 f i brook:cpukernel.obj
 0001:00016b30       ??G?$_Vector_const_iterator@PAV?$__BrtArray@E@@V?$allocator@PAV?$__BrtArray@E@@@std@@@std@@QBEHABV01@@Z 00417b30 f i brook:cpukernel.obj
 0001:00016b60       ??8?$_Vector_const_iterator@PAV?$__BrtArray@E@@V?$allocator@PAV?$__BrtArray@E@@@std@@@std@@QBE_NABV01@@Z 00417b60 f i brook:cpukernel.obj
 0001:00016b90       ??0?$_Ranit@PAVStreamInterface@brook@@HPBQAV12@ABQAV12@@std@@QAE@XZ 00417b90 f i brook:cpukernel.obj
 0001:00016ba0       ??0?$_Ranit@PAXHPBQAXABQAX@std@@QAE@XZ 00417ba0 f i brook:cpukernel.obj
 0001:00016bb0       ??0?$_Ranit@PAV?$__BrtArray@E@@HPBQAV1@ABQAV1@@std@@QAE@XZ 00417bb0 f i brook:cpukernel.obj
 0001:00016bc0       ??Y?$_Vector_const_iterator@PAVStreamInterface@brook@@V?$allocator@PAVStreamInterface@brook@@@std@@@std@@QAEAAV01@H@Z 00417bc0 f i brook:cpukernel.obj
 0001:00016c00       ??Y?$_Vector_const_iterator@PAXV?$allocator@PAX@std@@@std@@QAEAAV01@H@Z 00417c00 f i brook:cpukernel.obj
 0001:00016c40       ??Y?$_Vector_const_iterator@PAV?$__BrtArray@E@@V?$allocator@PAV?$__BrtArray@E@@@std@@@std@@QAEAAV01@H@Z 00417c40 f i brook:cpukernel.obj
 0001:00016c80       ??$_Allocate@PAVStreamInterface@brook@@@std@@YAPAPAVStreamInterface@brook@@IPAPAV12@@Z 00417c80 f i brook:cpukernel.obj
 0001:00016ce0       ??$_Allocate@PAX@std@@YAPAPAXIPAPAX@Z 00417ce0 f i brook:cpukernel.obj
 0001:00016d40       ??$_Allocate@PAV?$__BrtArray@E@@@std@@YAPAPAV?$__BrtArray@E@@IPAPAV1@@Z 00417d40 f i brook:cpukernel.obj
 0001:00016da0       ??$_Iter_random@PAPAVStreamInterface@brook@@PAPAV12@@std@@YA?AUrandom_access_iterator_tag@0@ABQAPAVStreamInterface@brook@@0@Z 00417da0 f i brook:cpukernel.obj
 0001:00016db0       ??$_Ptr_cat@PAPAVStreamInterface@brook@@PAPAV12@@std@@YA?AU_Scalar_ptr_iterator_tag@0@AAPAPAVStreamInterface@brook@@0@Z 00417db0 f i brook:cpukernel.obj
 0001:00016dc0       ??$_Copy_opt@PAPAVStreamInterface@brook@@PAPAV12@Urandom_access_iterator_tag@std@@@std@@YAPAPAVStreamInterface@brook@@PAPAV12@00Urandom_access_iterator_tag@0@U_Scalar_ptr_iterator_tag@0@U_Range_checked_iterator_tag@0@@Z 00417dc0 f i brook:cpukernel.obj
 0001:00016e00       ??$_Iter_random@PAPAXPAPAX@std@@YA?AUrandom_access_iterator_tag@0@ABQAPAX0@Z 00417e00 f i brook:cpukernel.obj
 0001:00016e10       ??$_Ptr_cat@PAPAXPAPAX@std@@YA?AU_Scalar_ptr_iterator_tag@0@AAPAPAX0@Z 00417e10 f i brook:cpukernel.obj
 0001:00016e20       ??$_Copy_opt@PAPAXPAPAXUrandom_access_iterator_tag@std@@@std@@YAPAPAXPAPAX00Urandom_access_iterator_tag@0@U_Scalar_ptr_iterator_tag@0@U_Range_checked_iterator_tag@0@@Z 00417e20 f i brook:cpukernel.obj
 0001:00016e60       ??$_Iter_random@PAPAV?$__BrtArray@E@@PAPAV1@@std@@YA?AUrandom_access_iterator_tag@0@ABQAPAV?$__BrtArray@E@@0@Z 00417e60 f i brook:cpukernel.obj
 0001:00016e70       ??$_Ptr_cat@PAPAV?$__BrtArray@E@@PAPAV1@@std@@YA?AU_Scalar_ptr_iterator_tag@0@AAPAPAV?$__BrtArray@E@@0@Z 00417e70 f i brook:cpukernel.obj
 0001:00016e80       ??$_Copy_opt@PAPAV?$__BrtArray@E@@PAPAV1@Urandom_access_iterator_tag@std@@@std@@YAPAPAV?$__BrtArray@E@@PAPAV1@00Urandom_access_iterator_tag@0@U_Scalar_ptr_iterator_tag@0@U_Range_checked_iterator_tag@0@@Z 00417e80 f i brook:cpukernel.obj
 0001:00016ec0       ??$_Destroy_range@PAVStreamInterface@brook@@V?$allocator@PAVStreamInterface@brook@@@std@@@std@@YAXPAPAVStreamInterface@brook@@0AAV?$allocator@PAVStreamInterface@brook@@@0@U_Scalar_ptr_iterator_tag@0@@Z 00417ec0 f i brook:cpukernel.obj
 0001:00016ed0       ??$_Fill@PAPAVStreamInterface@brook@@PAV12@@std@@YAXPAPAVStreamInterface@brook@@0ABQAV12@@Z 00417ed0 f i brook:cpukernel.obj
 0001:00016ef0       ??$_Move_cat@PAPAVStreamInterface@brook@@@std@@YA?AU_Undefined_move_tag@0@ABQAPAVStreamInterface@brook@@@Z 00417ef0 f i brook:cpukernel.obj
 0001:00016f00       ??$_Destroy_range@PAXV?$allocator@PAX@std@@@std@@YAXPAPAX0AAV?$allocator@PAX@0@U_Scalar_ptr_iterator_tag@0@@Z 00417f00 f i brook:cpukernel.obj
 0001:00016f10       ??$_Fill@PAPAXPAX@std@@YAXPAPAX0ABQAX@Z 00417f10 f i brook:cpukernel.obj
 0001:00016f30       ??$_Move_cat@PAPAX@std@@YA?AU_Undefined_move_tag@0@ABQAPAX@Z 00417f30 f i brook:cpukernel.obj
 0001:00016f40       ??$_Destroy_range@PAV?$__BrtArray@E@@V?$allocator@PAV?$__BrtArray@E@@@std@@@std@@YAXPAPAV?$__BrtArray@E@@0AAV?$allocator@PAV?$__BrtArray@E@@@0@U_Scalar_ptr_iterator_tag@0@@Z 00417f40 f i brook:cpukernel.obj
 0001:00016f50       ??$_Fill@PAPAV?$__BrtArray@E@@PAV1@@std@@YAXPAPAV?$__BrtArray@E@@0ABQAV1@@Z 00417f50 f i brook:cpukernel.obj
 0001:00016f70       ??$_Move_cat@PAPAV?$__BrtArray@E@@@std@@YA?AU_Undefined_move_tag@0@ABQAPAV?$__BrtArray@E@@@Z 00417f70 f i brook:cpukernel.obj
 0001:00016f80       ??$_Checked_base@PAPAVStreamInterface@brook@@@std@@YAPAPAVStreamInterface@brook@@AAPAPAV12@U_Unchanged_checked_iterator_base_type_tag@0@@Z 00417f80 f i brook:cpukernel.obj
 0001:00016f90       ??$_Checked_base@PAPAX@std@@YAPAPAXAAPAPAXU_Unchanged_checked_iterator_base_type_tag@0@@Z 00417f90 f i brook:cpukernel.obj
 0001:00016fa0       ??$_Checked_base@PAPAV?$__BrtArray@E@@@std@@YAPAPAV?$__BrtArray@E@@AAPAPAV1@U_Unchanged_checked_iterator_base_type_tag@0@@Z 00417fa0 f i brook:cpukernel.obj
 0001:00016fb0       ??$_Copy_backward_opt@PAPAVStreamInterface@brook@@PAPAV12@Urandom_access_iterator_tag@std@@@std@@YAPAPAVStreamInterface@brook@@PAPAV12@00Urandom_access_iterator_tag@0@U_Scalar_ptr_iterator_tag@0@U_Range_checked_iterator_tag@0@@Z 00417fb0 f i brook:cpukernel.obj
 0001:00016fe0       ??$_Copy_backward_opt@PAPAXPAPAXUrandom_access_iterator_tag@std@@@std@@YAPAPAXPAPAX00Urandom_access_iterator_tag@0@U_Scalar_ptr_iterator_tag@0@U_Range_checked_iterator_tag@0@@Z 00417fe0 f i brook:cpukernel.obj
 0001:00017010       ??$_Copy_backward_opt@PAPAV?$__BrtArray@E@@PAPAV1@Urandom_access_iterator_tag@std@@@std@@YAPAPAV?$__BrtArray@E@@PAPAV1@00Urandom_access_iterator_tag@0@U_Scalar_ptr_iterator_tag@0@U_Range_checked_iterator_tag@0@@Z 00418010 f i brook:cpukernel.obj
 0001:00017040       ??$_Iter_cat@PAPAVStreamInterface@brook@@@std@@YA?AUrandom_access_iterator_tag@0@ABQAPAVStreamInterface@brook@@@Z 00418040 f i brook:cpukernel.obj
 0001:00017050       ??$_Iter_cat@PAPAX@std@@YA?AUrandom_access_iterator_tag@0@ABQAPAX@Z 00418050 f i brook:cpukernel.obj
 0001:00017060       ??$_Iter_cat@PAPAV?$__BrtArray@E@@@std@@YA?AUrandom_access_iterator_tag@0@ABQAPAV?$__BrtArray@E@@@Z 00418060 f i brook:cpukernel.obj
 0001:00017070       ??$_Fill_n@PAPAVStreamInterface@brook@@IPAV12@@std@@YAXPAPAVStreamInterface@brook@@IABQAV12@U_Range_checked_iterator_tag@0@@Z 00418070 f i brook:cpukernel.obj
 0001:000170a0       ??$_Fill_n@PAPAXIPAX@std@@YAXPAPAXIABQAXU_Range_checked_iterator_tag@0@@Z 004180a0 f i brook:cpukernel.obj
 0001:000170d0       ??$_Fill_n@PAPAV?$__BrtArray@E@@IPAV1@@std@@YAXPAPAV?$__BrtArray@E@@IABQAV1@U_Range_checked_iterator_tag@0@@Z 004180d0 f i brook:cpukernel.obj
 0001:00017100       ??$_Uninit_copy@PAPAVStreamInterface@brook@@PAPAV12@V?$allocator@PAVStreamInterface@brook@@@std@@@std@@YAPAPAVStreamInterface@brook@@PAPAV12@00AAV?$allocator@PAVStreamInterface@brook@@@0@U_Scalar_ptr_iterator_tag@0@U_Range_checked_iterator_tag@0@@Z 00418100 f i brook:cpukernel.obj
 0001:00017130       ??$_Uninit_copy@PAPAXPAPAXV?$allocator@PAX@std@@@std@@YAPAPAXPAPAX00AAV?$allocator@PAX@0@U_Scalar_ptr_iterator_tag@0@U_Range_checked_iterator_tag@0@@Z 00418130 f i brook:cpukernel.obj
 0001:00017160       ??$_Uninit_copy@PAPAV?$__BrtArray@E@@PAPAV1@V?$allocator@PAV?$__BrtArray@E@@@std@@@std@@YAPAPAV?$__BrtArray@E@@PAPAV1@00AAV?$allocator@PAV?$__BrtArray@E@@@0@U_Scalar_ptr_iterator_tag@0@U_Range_checked_iterator_tag@0@@Z 00418160 f i brook:cpukernel.obj
 0001:00017190       ?__indexof@@YA?AV?$vec@M$03@@PBX@Z 00418190 f   brook:cpukernel.obj
 0001:00017280       ??_G?$__BrtArray@E@@QAEPAXI@Z 00418280 f i brook:cpukernel.obj
 0001:000172d0       ??0?$__BrtArray@E@@QAE@PAVStream@brook@@@Z 004182d0 f i brook:cpukernel.obj
 0001:00017330       ??0?$_Vector_val@PAVStreamInterface@brook@@V?$allocator@PAVStreamInterface@brook@@@std@@@std@@IAE@V?$allocator@PAVStreamInterface@brook@@@1@@Z 00418330 f i brook:cpukernel.obj
 0001:00017340       ??0?$_Vector_val@PAXV?$allocator@PAX@std@@@std@@IAE@V?$allocator@PAX@1@@Z 00418340 f i brook:cpukernel.obj
 0001:00017350       ??0?$_Vector_val@PAV?$__BrtArray@E@@V?$allocator@PAV?$__BrtArray@E@@@std@@@std@@IAE@V?$allocator@PAV?$__BrtArray@E@@@1@@Z 00418350 f i brook:cpukernel.obj
 0001:00017360       ?max_size@?$vector@PAVStreamInterface@brook@@V?$allocator@PAVStreamInterface@brook@@@std@@@std@@QBEIXZ 00418360 f i brook:cpukernel.obj
 0001:00017370       ?allocate@?$allocator@PAVStreamInterface@brook@@@std@@QAEPAPAVStreamInterface@brook@@I@Z 00418370 f i brook:cpukernel.obj
 0001:00017390       ?max_size@?$vector@PAXV?$allocator@PAX@std@@@std@@QBEIXZ 00418390 f i brook:cpukernel.obj
 0001:000173a0       ?allocate@?$allocator@PAX@std@@QAEPAPAXI@Z 004183a0 f i brook:cpukernel.obj
 0001:000173c0       ?max_size@?$vector@PAV?$__BrtArray@E@@V?$allocator@PAV?$__BrtArray@E@@@std@@@std@@QBEIXZ 004183c0 f i brook:cpukernel.obj
 0001:000173d0       ?allocate@?$allocator@PAV?$__BrtArray@E@@@std@@QAEPAPAV?$__BrtArray@E@@I@Z 004183d0 f i brook:cpukernel.obj
 0001:000173f0       ??G?$_Vector_iterator@PAVStreamInterface@brook@@V?$allocator@PAVStreamInterface@brook@@@std@@@std@@QBEHABV?$_Vector_const_iterator@PAVStreamInterface@brook@@V?$allocator@PAVStreamInterface@brook@@@std@@@1@@Z 004183f0 f i brook:cpukernel.obj
 0001:00017420       ??9?$_Vector_const_iterator@PAVStreamInterface@brook@@V?$allocator@PAVStreamInterface@brook@@@std@@@std@@QBE_NABV01@@Z 00418420 f i brook:cpukernel.obj
 0001:00017450       ??G?$_Vector_iterator@PAXV?$allocator@PAX@std@@@std@@QBEHABV?$_Vector_const_iterator@PAXV?$allocator@PAX@std@@@1@@Z 00418450 f i brook:cpukernel.obj
 0001:00017480       ??9?$_Vector_const_iterator@PAXV?$allocator@PAX@std@@@std@@QBE_NABV01@@Z 00418480 f i brook:cpukernel.obj
 0001:000174b0       ??G?$_Vector_iterator@PAV?$__BrtArray@E@@V?$allocator@PAV?$__BrtArray@E@@@std@@@std@@QBEHABV?$_Vector_const_iterator@PAV?$__BrtArray@E@@V?$allocator@PAV?$__BrtArray@E@@@std@@@1@@Z 004184b0 f i brook:cpukernel.obj
 0001:000174e0       ??9?$_Vector_const_iterator@PAV?$__BrtArray@E@@V?$allocator@PAV?$__BrtArray@E@@@std@@@std@@QBE_NABV01@@Z 004184e0 f i brook:cpukernel.obj
 0001:00017510       ??Y?$_Vector_iterator@PAVStreamInterface@brook@@V?$allocator@PAVStreamInterface@brook@@@std@@@std@@QAEAAV01@H@Z 00418510 f i brook:cpukernel.obj
 0001:00017550       ??0?$_Vector_const_iterator@PAVStreamInterface@brook@@V?$allocator@PAVStreamInterface@brook@@@std@@@std@@QAE@PAPAVStreamInterface@brook@@PBU_Container_base@1@@Z 00418550 f i brook:cpukernel.obj
 0001:00017590       ??Y?$_Vector_iterator@PAXV?$allocator@PAX@std@@@std@@QAEAAV01@H@Z 00418590 f i brook:cpukernel.obj
 0001:000175d0       ??0?$_Vector_const_iterator@PAXV?$allocator@PAX@std@@@std@@QAE@PAPAXPBU_Container_base@1@@Z 004185d0 f i brook:cpukernel.obj
 0001:00017610       ??Y?$_Vector_iterator@PAV?$__BrtArray@E@@V?$allocator@PAV?$__BrtArray@E@@@std@@@std@@QAEAAV01@H@Z 00418610 f i brook:cpukernel.obj
 0001:00017650       ??0?$_Vector_const_iterator@PAV?$__BrtArray@E@@V?$allocator@PAV?$__BrtArray@E@@@std@@@std@@QAE@PAPAV?$__BrtArray@E@@PBU_Container_base@1@@Z 00418650 f i brook:cpukernel.obj
 0001:00017690       ??$_Destroy_range@PAVStreamInterface@brook@@V?$allocator@PAVStreamInterface@brook@@@std@@@std@@YAXPAPAVStreamInterface@brook@@0AAV?$allocator@PAVStreamInterface@brook@@@0@@Z 00418690 f i brook:cpukernel.obj
 0001:000176a0       ??$_Destroy_range@PAXV?$allocator@PAX@std@@@std@@YAXPAPAX0AAV?$allocator@PAX@0@@Z 004186a0 f i brook:cpukernel.obj
 0001:000176b0       ??$_Destroy_range@PAV?$__BrtArray@E@@V?$allocator@PAV?$__BrtArray@E@@@std@@@std@@YAXPAPAV?$__BrtArray@E@@0AAV?$allocator@PAV?$__BrtArray@E@@@0@@Z 004186b0 f i brook:cpukernel.obj
 0001:000176c0       ??$_Checked_base@PAPAVStreamInterface@brook@@@std@@YAPAPAVStreamInterface@brook@@AAPAPAV12@@Z 004186c0 f i brook:cpukernel.obj
 0001:000176d0       ??$_Checked_base@PAPAX@std@@YAPAPAXAAPAPAX@Z 004186d0 f i brook:cpukernel.obj
 0001:000176e0       ??$_Checked_base@PAPAV?$__BrtArray@E@@@std@@YAPAPAV?$__BrtArray@E@@AAPAPAV1@@Z 004186e0 f i brook:cpukernel.obj
 0001:000176f0       ??$_Move_backward_opt@PAPAVStreamInterface@brook@@PAPAV12@Urandom_access_iterator_tag@std@@U_Undefined_move_tag@4@@std@@YAPAPAVStreamInterface@brook@@PAPAV12@00Urandom_access_iterator_tag@0@U_Undefined_move_tag@0@U_Range_checked_iterator_tag@0@@Z 004186f0 f i brook:cpukernel.obj
 0001:00017720       ??$_Move_backward_opt@PAPAXPAPAXUrandom_access_iterator_tag@std@@U_Undefined_move_tag@2@@std@@YAPAPAXPAPAX00Urandom_access_iterator_tag@0@U_Undefined_move_tag@0@U_Range_checked_iterator_tag@0@@Z 00418720 f i brook:cpukernel.obj
 0001:00017750       ??$_Move_backward_opt@PAPAV?$__BrtArray@E@@PAPAV1@Urandom_access_iterator_tag@std@@U_Undefined_move_tag@3@@std@@YAPAPAV?$__BrtArray@E@@PAPAV1@00Urandom_access_iterator_tag@0@U_Undefined_move_tag@0@U_Range_checked_iterator_tag@0@@Z 00418750 f i brook:cpukernel.obj
 0001:00017780       ??$_Fill_n@PAPAVStreamInterface@brook@@IPAV12@@std@@YAXPAPAVStreamInterface@brook@@IABQAV12@Urandom_access_iterator_tag@0@U_Range_checked_iterator_tag@0@@Z 00418780 f i brook:cpukernel.obj
 0001:000177b0       ??$_Fill_n@PAPAXIPAX@std@@YAXPAPAXIABQAXUrandom_access_iterator_tag@0@U_Range_checked_iterator_tag@0@@Z 004187b0 f i brook:cpukernel.obj
 0001:000177e0       ??$_Fill_n@PAPAV?$__BrtArray@E@@IPAV1@@std@@YAXPAPAV?$__BrtArray@E@@IABQAV1@Urandom_access_iterator_tag@0@U_Range_checked_iterator_tag@0@@Z 004187e0 f i brook:cpukernel.obj
 0001:00017810       ??$unchecked_uninitialized_copy@PAPAVStreamInterface@brook@@PAPAV12@V?$allocator@PAVStreamInterface@brook@@@std@@@stdext@@YAPAPAVStreamInterface@brook@@PAPAV12@00AAV?$allocator@PAVStreamInterface@brook@@@std@@@Z 00418810 f i brook:cpukernel.obj
 0001:00017840       ??$unchecked_uninitialized_copy@PAPAXPAPAXV?$allocator@PAX@std@@@stdext@@YAPAPAXPAPAX00AAV?$allocator@PAX@std@@@Z 00418840 f i brook:cpukernel.obj
 0001:00017870       ??$unchecked_uninitialized_copy@PAPAV?$__BrtArray@E@@PAPAV1@V?$allocator@PAV?$__BrtArray@E@@@std@@@stdext@@YAPAPAV?$__BrtArray@E@@PAPAV1@00AAV?$allocator@PAV?$__BrtArray@E@@@std@@@Z 00418870 f i brook:cpukernel.obj
 0001:000178a0       ?_Destroy@?$vector@PAVStreamInterface@brook@@V?$allocator@PAVStreamInterface@brook@@@std@@@std@@IAEXPAPAVStreamInterface@brook@@0@Z 004188a0 f i brook:cpukernel.obj
 0001:000178b0       ?_Destroy@?$vector@PAXV?$allocator@PAX@std@@@std@@IAEXPAPAX0@Z 004188b0 f i brook:cpukernel.obj
 0001:000178c0       ?_Destroy@?$vector@PAV?$__BrtArray@E@@V?$allocator@PAV?$__BrtArray@E@@@std@@@std@@IAEXPAPAV?$__BrtArray@E@@0@Z 004188c0 f i brook:cpukernel.obj
 0001:000178d0       ??0?$_Vector_iterator@PAVStreamInterface@brook@@V?$allocator@PAVStreamInterface@brook@@@std@@@std@@QAE@PAPAVStreamInterface@brook@@PBU_Container_base@1@@Z 004188d0 f i brook:cpukernel.obj
 0001:00017910       ??H?$_Vector_iterator@PAVStreamInterface@brook@@V?$allocator@PAVStreamInterface@brook@@@std@@@std@@QBE?AV01@H@Z 00418910 f i brook:cpukernel.obj
 0001:00017950       ??0?$_Vector_iterator@PAXV?$allocator@PAX@std@@@std@@QAE@PAPAXPBU_Container_base@1@@Z 00418950 f i brook:cpukernel.obj
 0001:00017990       ??H?$_Vector_iterator@PAXV?$allocator@PAX@std@@@std@@QBE?AV01@H@Z 00418990 f i brook:cpukernel.obj
 0001:000179d0       ??0?$_Vector_iterator@PAV?$__BrtArray@E@@V?$allocator@PAV?$__BrtArray@E@@@std@@@std@@QAE@PAPAV?$__BrtArray@E@@PBU_Container_base@1@@Z 004189d0 f i brook:cpukernel.obj
 0001:00017a10       ??H?$_Vector_iterator@PAV?$__BrtArray@E@@V?$allocator@PAV?$__BrtArray@E@@@std@@@std@@QBE?AV01@H@Z 00418a10 f i brook:cpukernel.obj
 0001:00017a50       ??$unchecked_copy@PAPAVStreamInterface@brook@@PAPAV12@@stdext@@YAPAPAVStreamInterface@brook@@PAPAV12@00@Z 00418a50 f i brook:cpukernel.obj
 0001:00017a90       ??$unchecked_copy@PAPAXPAPAX@stdext@@YAPAPAXPAPAX00@Z 00418a90 f i brook:cpukernel.obj
 0001:00017ad0       ??$unchecked_copy@PAPAV?$__BrtArray@E@@PAPAV1@@stdext@@YAPAPAV?$__BrtArray@E@@PAPAV1@00@Z 00418ad0 f i brook:cpukernel.obj
 0001:00017b10       ??$fill@PAPAVStreamInterface@brook@@PAV12@@std@@YAXPAPAVStreamInterface@brook@@0ABQAV12@@Z 00418b10 f i brook:cpukernel.obj
 0001:00017b30       ??$_Unchecked_move_backward@PAPAVStreamInterface@brook@@PAPAV12@@stdext@@YAPAPAVStreamInterface@brook@@PAPAV12@00@Z 00418b30 f i brook:cpukernel.obj
 0001:00017b60       ??$fill@PAPAXPAX@std@@YAXPAPAX0ABQAX@Z 00418b60 f i brook:cpukernel.obj
 0001:00017b80       ??$_Unchecked_move_backward@PAPAXPAPAX@stdext@@YAPAPAXPAPAX00@Z 00418b80 f i brook:cpukernel.obj
 0001:00017bb0       ??$fill@PAPAV?$__BrtArray@E@@PAV1@@std@@YAXPAPAV?$__BrtArray@E@@0ABQAV1@@Z 00418bb0 f i brook:cpukernel.obj
 0001:00017bd0       ??$_Unchecked_move_backward@PAPAV?$__BrtArray@E@@PAPAV1@@stdext@@YAPAPAV?$__BrtArray@E@@PAPAV1@00@Z 00418bd0 f i brook:cpukernel.obj
 0001:00017c00       ??$unchecked_fill_n@PAPAVStreamInterface@brook@@IPAV12@@stdext@@YAXPAPAVStreamInterface@brook@@IABQAV12@@Z 00418c00 f i brook:cpukernel.obj
 0001:00017c30       ??$unchecked_fill_n@PAPAXIPAX@stdext@@YAXPAPAXIABQAX@Z 00418c30 f i brook:cpukernel.obj
 0001:00017c60       ??$unchecked_fill_n@PAPAV?$__BrtArray@E@@IPAV1@@stdext@@YAXPAPAV?$__BrtArray@E@@IABQAV1@@Z 00418c60 f i brook:cpukernel.obj
 0001:00017c90       ??$_Uninit_move@PAPAVStreamInterface@brook@@PAPAV12@V?$allocator@PAVStreamInterface@brook@@@std@@U_Undefined_move_tag@4@@std@@YAPAPAVStreamInterface@brook@@PAPAV12@00AAV?$allocator@PAVStreamInterface@brook@@@0@U_Undefined_move_tag@0@U_Range_checked_iterator_tag@0@@Z 00418c90 f i brook:cpukernel.obj
 0001:00017cc0       ??$_Uninit_move@PAPAXPAPAXV?$allocator@PAX@std@@U_Undefined_move_tag@2@@std@@YAPAPAXPAPAX00AAV?$allocator@PAX@0@U_Undefined_move_tag@0@U_Range_checked_iterator_tag@0@@Z 00418cc0 f i brook:cpukernel.obj
 0001:00017cf0       ??$_Uninit_move@PAPAV?$__BrtArray@E@@PAPAV1@V?$allocator@PAV?$__BrtArray@E@@@std@@U_Undefined_move_tag@3@@std@@YAPAPAV?$__BrtArray@E@@PAPAV1@00AAV?$allocator@PAV?$__BrtArray@E@@@0@U_Undefined_move_tag@0@U_Range_checked_iterator_tag@0@@Z 00418cf0 f i brook:cpukernel.obj
 0001:00017d20       ?begin@?$vector@PAVStreamInterface@brook@@V?$allocator@PAVStreamInterface@brook@@@std@@@std@@QAE?AV?$_Vector_iterator@PAVStreamInterface@brook@@V?$allocator@PAVStreamInterface@brook@@@std@@@2@XZ 00418d20 f i brook:cpukernel.obj
 0001:00017d50       ?end@?$vector@PAVStreamInterface@brook@@V?$allocator@PAVStreamInterface@brook@@@std@@@std@@QAE?AV?$_Vector_iterator@PAVStreamInterface@brook@@V?$allocator@PAVStreamInterface@brook@@@std@@@2@XZ 00418d50 f i brook:cpukernel.obj
 0001:00017d80       ?erase@?$vector@PAVStreamInterface@brook@@V?$allocator@PAVStreamInterface@brook@@@std@@@std@@QAE?AV?$_Vector_iterator@PAVStreamInterface@brook@@V?$allocator@PAVStreamInterface@brook@@@std@@@2@V32@0@Z 00418d80 f i brook:cpukernel.obj
 0001:00017de0       ?_Tidy@?$vector@PAVStreamInterface@brook@@V?$allocator@PAVStreamInterface@brook@@@std@@@std@@IAEXXZ 00418de0 f i brook:cpukernel.obj
 0001:00017e10       ?begin@?$vector@PAXV?$allocator@PAX@std@@@std@@QAE?AV?$_Vector_iterator@PAXV?$allocator@PAX@std@@@2@XZ 00418e10 f i brook:cpukernel.obj
 0001:00017e40       ?end@?$vector@PAXV?$allocator@PAX@std@@@std@@QAE?AV?$_Vector_iterator@PAXV?$allocator@PAX@std@@@2@XZ 00418e40 f i brook:cpukernel.obj
 0001:00017e70       ?erase@?$vector@PAXV?$allocator@PAX@std@@@std@@QAE?AV?$_Vector_iterator@PAXV?$allocator@PAX@std@@@2@V32@0@Z 00418e70 f i brook:cpukernel.obj
 0001:00017ed0       ?_Tidy@?$vector@PAXV?$allocator@PAX@std@@@std@@IAEXXZ 00418ed0 f i brook:cpukernel.obj
 0001:00017f00       ?begin@?$vector@PAV?$__BrtArray@E@@V?$allocator@PAV?$__BrtArray@E@@@std@@@std@@QAE?AV?$_Vector_iterator@PAV?$__BrtArray@E@@V?$allocator@PAV?$__BrtArray@E@@@std@@@2@XZ 00418f00 f i brook:cpukernel.obj
 0001:00017f30       ?end@?$vector@PAV?$__BrtArray@E@@V?$allocator@PAV?$__BrtArray@E@@@std@@@std@@QAE?AV?$_Vector_iterator@PAV?$__BrtArray@E@@V?$allocator@PAV?$__BrtArray@E@@@std@@@2@XZ 00418f30 f i brook:cpukernel.obj
 0001:00017f60       ?erase@?$vector@PAV?$__BrtArray@E@@V?$allocator@PAV?$__BrtArray@E@@@std@@@std@@QAE?AV?$_Vector_iterator@PAV?$__BrtArray@E@@V?$allocator@PAV?$__BrtArray@E@@@std@@@2@V32@0@Z 00418f60 f i brook:cpukernel.obj
 0001:00017fc0       ?_Tidy@?$vector@PAV?$__BrtArray@E@@V?$allocator@PAV?$__BrtArray@E@@@std@@@std@@IAEXXZ 00418fc0 f i brook:cpukernel.obj
 0001:00017ff0       ??$_Uninit_fill_n@PAPAVStreamInterface@brook@@IPAV12@V?$allocator@PAVStreamInterface@brook@@@std@@@std@@YAXPAPAVStreamInterface@brook@@IABQAV12@AAV?$allocator@PAVStreamInterface@brook@@@0@U_Scalar_ptr_iterator_tag@0@U_Range_checked_iterator_tag@0@@Z 00418ff0 f i brook:cpukernel.obj
 0001:00018020       ??$_Uninit_fill_n@PAPAXIPAXV?$allocator@PAX@std@@@std@@YAXPAPAXIABQAXAAV?$allocator@PAX@0@U_Scalar_ptr_iterator_tag@0@U_Range_checked_iterator_tag@0@@Z 00419020 f i brook:cpukernel.obj
 0001:00018050       ??$_Uninit_fill_n@PAPAV?$__BrtArray@E@@IPAV1@V?$allocator@PAV?$__BrtArray@E@@@std@@@std@@YAXPAPAV?$__BrtArray@E@@IABQAV1@AAV?$allocator@PAV?$__BrtArray@E@@@0@U_Scalar_ptr_iterator_tag@0@U_Range_checked_iterator_tag@0@@Z 00419050 f i brook:cpukernel.obj
 0001:00018080       ??$_Unchecked_uninitialized_move@PAPAVStreamInterface@brook@@PAPAV12@V?$allocator@PAVStreamInterface@brook@@@std@@@stdext@@YAPAPAVStreamInterface@brook@@PAPAV12@00AAV?$allocator@PAVStreamInterface@brook@@@std@@@Z 00419080 f i brook:cpukernel.obj
 0001:000180b0       ??$_Unchecked_uninitialized_move@PAPAXPAPAXV?$allocator@PAX@std@@@stdext@@YAPAPAXPAPAX00AAV?$allocator@PAX@std@@@Z 004190b0 f i brook:cpukernel.obj
 0001:000180e0       ??$_Unchecked_uninitialized_move@PAPAV?$__BrtArray@E@@PAPAV1@V?$allocator@PAV?$__BrtArray@E@@@std@@@stdext@@YAPAPAV?$__BrtArray@E@@PAPAV1@00AAV?$allocator@PAV?$__BrtArray@E@@@std@@@Z 004190e0 f i brook:cpukernel.obj
 0001:00018110       ??1?$vector@PAVStreamInterface@brook@@V?$allocator@PAVStreamInterface@brook@@@std@@@std@@QAE@XZ 00419110 f i brook:cpukernel.obj
 0001:00018140       ?clear@?$vector@PAVStreamInterface@brook@@V?$allocator@PAVStreamInterface@brook@@@std@@@std@@QAEXXZ 00419140 f i brook:cpukernel.obj
 0001:00018180       ??1?$vector@PAXV?$allocator@PAX@std@@@std@@QAE@XZ 00419180 f i brook:cpukernel.obj
 0001:000181b0       ?clear@?$vector@PAXV?$allocator@PAX@std@@@std@@QAEXXZ 004191b0 f i brook:cpukernel.obj
 0001:000181f0       ??1?$vector@PAV?$__BrtArray@E@@V?$allocator@PAV?$__BrtArray@E@@@std@@@std@@QAE@XZ 004191f0 f i brook:cpukernel.obj
 0001:00018220       ?clear@?$vector@PAV?$__BrtArray@E@@V?$allocator@PAV?$__BrtArray@E@@@std@@@std@@QAEXXZ 00419220 f i brook:cpukernel.obj
 0001:00018260       ??$unchecked_uninitialized_fill_n@PAPAVStreamInterface@brook@@IPAV12@V?$allocator@PAVStreamInterface@brook@@@std@@@stdext@@YAXPAPAVStreamInterface@brook@@IABQAV12@AAV?$allocator@PAVStreamInterface@brook@@@std@@@Z 00419260 f i brook:cpukernel.obj
 0001:00018290       ??$unchecked_uninitialized_fill_n@PAPAXIPAXV?$allocator@PAX@std@@@stdext@@YAXPAPAXIABQAXAAV?$allocator@PAX@std@@@Z 00419290 f i brook:cpukernel.obj
 0001:000182c0       ??$unchecked_uninitialized_fill_n@PAPAV?$__BrtArray@E@@IPAV1@V?$allocator@PAV?$__BrtArray@E@@@std@@@stdext@@YAXPAPAV?$__BrtArray@E@@IABQAV1@AAV?$allocator@PAV?$__BrtArray@E@@@std@@@Z 004192c0 f i brook:cpukernel.obj
 0001:000182f0       ??$_Umove@PAPAVStreamInterface@brook@@@?$vector@PAVStreamInterface@brook@@V?$allocator@PAVStreamInterface@brook@@@std@@@std@@IAEPAPAVStreamInterface@brook@@PAPAV23@00@Z 004192f0 f i brook:cpukernel.obj
 0001:00018320       ??$_Umove@PAPAX@?$vector@PAXV?$allocator@PAX@std@@@std@@IAEPAPAXPAPAX00@Z 00419320 f i brook:cpukernel.obj
 0001:00018350       ??$_Umove@PAPAV?$__BrtArray@E@@@?$vector@PAV?$__BrtArray@E@@V?$allocator@PAV?$__BrtArray@E@@@std@@@std@@IAEPAPAV?$__BrtArray@E@@PAPAV2@00@Z 00419350 f i brook:cpukernel.obj
 0001:00018380       ?Cleanup@CPUKernel@brook@@IAEXXZ 00419380 f   brook:cpukernel.obj
 0001:000185c0       ?Map@CPUKernel@brook@@UAEXXZ 004195c0 f   brook:cpukernel.obj
 0001:00018730       ?Reduce@CPUKernel@brook@@UAEXXZ 00419730 f   brook:cpukernel.obj
 0001:00018aa0       ??1CPUKernel@brook@@MAE@XZ 00419aa0 f   brook:cpukernel.obj
 0001:00018b40       ?_Ufill@?$vector@PAVStreamInterface@brook@@V?$allocator@PAVStreamInterface@brook@@@std@@@std@@IAEPAPAVStreamInterface@brook@@PAPAV34@IABQAV34@@Z 00419b40 f i brook:cpukernel.obj
 0001:00018b70       ?_Ufill@?$vector@PAXV?$allocator@PAX@std@@@std@@IAEPAPAXPAPAXIABQAX@Z 00419b70 f i brook:cpukernel.obj
 0001:00018ba0       ?_Ufill@?$vector@PAV?$__BrtArray@E@@V?$allocator@PAV?$__BrtArray@E@@@std@@@std@@IAEPAPAV?$__BrtArray@E@@PAPAV3@IABQAV3@@Z 00419ba0 f i brook:cpukernel.obj
 0001:00018bd0       ??_GCPUKernel@brook@@MAEPAXI@Z 00419bd0 f i brook:cpukernel.obj
 0001:00018bd0       ??_ECPUKernel@brook@@MAEPAXI@Z 00419bd0 f i brook:cpukernel.obj
 0001:00018bf0       ?_Xlen@?$vector@PAVStreamInterface@brook@@V?$allocator@PAVStreamInterface@brook@@@std@@@std@@KAXXZ 00419bf0 f i brook:cpukernel.obj
 0001:00018c70       ?_Xlen@?$vector@PAXV?$allocator@PAX@std@@@std@@KAXXZ 00419c70 f i brook:cpukernel.obj
 0001:00018cf0       ?_Xlen@?$vector@PAV?$__BrtArray@E@@V?$allocator@PAV?$__BrtArray@E@@@std@@@std@@KAXXZ 00419cf0 f i brook:cpukernel.obj
 0001:00018d70       ?_Buy@?$vector@PAVStreamInterface@brook@@V?$allocator@PAVStreamInterface@brook@@@std@@@std@@IAE_NI@Z 00419d70 f i brook:cpukernel.obj
 0001:00018dc0       ?_Buy@?$vector@PAXV?$allocator@PAX@std@@@std@@IAE_NI@Z 00419dc0 f i brook:cpukernel.obj
 0001:00018e10       ?_Buy@?$vector@PAV?$__BrtArray@E@@V?$allocator@PAV?$__BrtArray@E@@@std@@@std@@IAE_NI@Z 00419e10 f i brook:cpukernel.obj
 0001:00018e60       ?_Insert_n@?$vector@PAVStreamInterface@brook@@V?$allocator@PAVStreamInterface@brook@@@std@@@std@@IAEXV?$_Vector_iterator@PAVStreamInterface@brook@@V?$allocator@PAVStreamInterface@brook@@@std@@@2@IABQAVStreamInterface@brook@@@Z 00419e60 f i brook:cpukernel.obj
 0001:00019020       ?_Insert_n@?$vector@PAXV?$allocator@PAX@std@@@std@@IAEXV?$_Vector_iterator@PAXV?$allocator@PAX@std@@@2@IABQAX@Z 0041a020 f i brook:cpukernel.obj
 0001:000191e0       ?_Insert_n@?$vector@PAV?$__BrtArray@E@@V?$allocator@PAV?$__BrtArray@E@@@std@@@std@@IAEXV?$_Vector_iterator@PAV?$__BrtArray@E@@V?$allocator@PAV?$__BrtArray@E@@@std@@@2@IABQAV?$__BrtArray@E@@@Z 0041a1e0 f i brook:cpukernel.obj
 0001:000193a0       ??0?$vector@PAVStreamInterface@brook@@V?$allocator@PAVStreamInterface@brook@@@std@@@std@@QAE@XZ 0041a3a0 f i brook:cpukernel.obj
 0001:000193b0       ??0?$vector@PAXV?$allocator@PAX@std@@@std@@QAE@XZ 0041a3b0 f i brook:cpukernel.obj
 0001:000193c0       ??0?$vector@PAV?$__BrtArray@E@@V?$allocator@PAV?$__BrtArray@E@@@std@@@std@@QAE@XZ 0041a3c0 f i brook:cpukernel.obj
 0001:000193d0       ?insert@?$vector@PAVStreamInterface@brook@@V?$allocator@PAVStreamInterface@brook@@@std@@@std@@QAE?AV?$_Vector_iterator@PAVStreamInterface@brook@@V?$allocator@PAVStreamInterface@brook@@@std@@@2@V32@ABQAVStreamInterface@brook@@@Z 0041a3d0 f i brook:cpukernel.obj
 0001:00019460       ?insert@?$vector@PAXV?$allocator@PAX@std@@@std@@QAE?AV?$_Vector_iterator@PAXV?$allocator@PAX@std@@@2@V32@ABQAX@Z 0041a460 f i brook:cpukernel.obj
 0001:000194f0       ?insert@?$vector@PAV?$__BrtArray@E@@V?$allocator@PAV?$__BrtArray@E@@@std@@@std@@QAE?AV?$_Vector_iterator@PAV?$__BrtArray@E@@V?$allocator@PAV?$__BrtArray@E@@@std@@@2@V32@ABQAV?$__BrtArray@E@@@Z 0041a4f0 f i brook:cpukernel.obj
 0001:00019580       ?push_back@?$vector@PAVStreamInterface@brook@@V?$allocator@PAVStreamInterface@brook@@@std@@@std@@QAEXABQAVStreamInterface@brook@@@Z 0041a580 f i brook:cpukernel.obj
 0001:000195f0       ?push_back@?$vector@PAXV?$allocator@PAX@std@@@std@@QAEXABQAX@Z 0041a5f0 f i brook:cpukernel.obj
 0001:00019660       ?push_back@?$vector@PAV?$__BrtArray@E@@V?$allocator@PAV?$__BrtArray@E@@@std@@@std@@QAEXABQAV?$__BrtArray@E@@@Z 0041a660 f i brook:cpukernel.obj
 0001:000196d0       ?PushStreamInterface@CPUKernel@brook@@UAEXPAVStreamInterface@2@@Z 0041a6d0 f   brook:cpukernel.obj
 0001:00019780       ?PushConstant@CPUKernel@brook@@UAEXABM@Z 0041a780 f   brook:cpukernel.obj
 0001:000197a0       ?PushConstant@CPUKernel@brook@@UAEXABUfloat2@@@Z 0041a7a0 f   brook:cpukernel.obj
 0001:000197c0       ?PushConstant@CPUKernel@brook@@UAEXABUfloat3@@@Z 0041a7c0 f   brook:cpukernel.obj
 0001:000197e0       ?PushConstant@CPUKernel@brook@@UAEXABUfloat4@@@Z 0041a7e0 f   brook:cpukernel.obj
 0001:00019800       ?PushGatherStream@CPUKernel@brook@@UAEXPAVStream@2@@Z 0041a800 f   brook:cpukernel.obj
 0001:000198e0       ?PushReduce@CPUKernel@brook@@UAEXPAXW4StreamType@2@@Z 0041a8e0 f   brook:cpukernel.obj
 0001:000199d0       ?PushOutput@CPUKernel@brook@@UAEXPAVStream@2@@Z 0041a9d0 f   brook:cpukernel.obj
 0001:00019a80       ??0CPUKernel@brook@@QAE@QAPBX@Z 0041aa80 f   brook:cpukernel.obj
 0001:00019bf0       ??0GPURuntime@brook@@IAE@XZ 0041abf0 f   brook:gpuruntime.obj
 0001:00019c30       ??1GPURuntime@brook@@UAE@XZ 0041ac30 f   brook:gpuruntime.obj
 0001:00019c90       ?finish@GPURuntime@brook@@UAEXXZ 0041ac90 f   brook:gpuruntime.obj
 0001:00019ca0       ?unbind@GPURuntime@brook@@UAEXXZ 0041aca0 f   brook:gpuruntime.obj
 0001:00019cb0       ?bind@GPURuntime@brook@@UAEXXZ 0041acb0 f   brook:gpuruntime.obj
 0001:00019cc0       ?createWriteQuery@GPURuntime@brook@@UAEPAVIWriteQuery@2@XZ 0041acc0 f   brook:gpuruntime.obj
 0001:00019cd0       ?createWriteMask@GPURuntime@brook@@UAEPAVIWriteMask@2@HH@Z 0041acd0 f   brook:gpuruntime.obj
 0001:00019ce0       ?hackEnableWriteMask@GPURuntime@brook@@UAEXXZ 0041ace0 f   brook:gpuruntime.obj
 0001:00019cf0       ?hackDisableWriteMask@GPURuntime@brook@@UAEXXZ 0041acf0 f   brook:gpuruntime.obj
 0001:00019d00       ?hackBeginWriteQuery@GPURuntime@brook@@UAEXXZ 0041ad00 f   brook:gpuruntime.obj
 0001:00019d10       ?hackEndWriteQuery@GPURuntime@brook@@UAEHXZ 0041ad10 f   brook:gpuruntime.obj
 0001:00019d20       ?size@?$vector@VField@GPUStreamData@brook@@V?$allocator@VField@GPUStreamData@brook@@@std@@@std@@QBEIXZ 0041ad20 f i brook:gpuruntime.obj
 0001:00019d40       ??A?$vector@VField@GPUStreamData@brook@@V?$allocator@VField@GPUStreamData@brook@@@std@@@std@@QAEAAVField@GPUStreamData@brook@@I@Z 0041ad40 f i brook:gpuruntime.obj
 0001:00019d80       ?getIndexedFieldTexture@GPUStreamData@brook@@QAEPAXI@Z 0041ad80 f i brook:gpuruntime.obj
 0001:00019dc0       ?getIndexedFieldTexture@GPUStream@brook@@QAEPAXI@Z 0041adc0 f i brook:gpuruntime.obj
 0001:00019e00       ??_GGPURuntime@brook@@UAEPAXI@Z 0041ae00 f i brook:gpuruntime.obj
 0001:00019e00       ??_EGPURuntime@brook@@UAEPAXI@Z 0041ae00 f i brook:gpuruntime.obj
 0001:00019e20       ?initialize@GPURuntime@brook@@IAE_NPAVGPUContext@2@@Z 0041ae20 f   brook:gpuruntime.obj
 0001:00019e50       ?CreateKernel@GPURuntime@brook@@UAEPAVKernel@2@QAPBX@Z 0041ae50 f   brook:gpuruntime.obj
 0001:00019e80       ?CreateStream@GPURuntime@brook@@UAEPAVStream@2@IQBW4StreamType@2@IQBI_N@Z 0041ae80 f   brook:gpuruntime.obj
 0001:00019ec0       ?CreateIter@GPURuntime@brook@@UAEPAVIter@2@W4StreamType@2@IQBIQBM@Z 0041aec0 f   brook:gpuruntime.obj
 0001:00019f00       ?getReductionTempBuffer@GPURuntime@brook@@QAEPAXIIIIPAI00@Z 0041af00 f   brook:gpuruntime.obj
 0001:00019fd0       ?getReductionTargetBuffer@GPURuntime@brook@@QAEPAXI@Z 0041afd0 f   brook:gpuruntime.obj
 0001:0001a030       ?hackSetWriteMask@GPURuntime@brook@@UAEXPAVStream@2@@Z 0041b030 f   brook:gpuruntime.obj
 0001:0001a090       ??1OGLWindow@brook@@QAE@XZ 0041b090 f   brook:oglwindow.obj
 0001:0001a0e0       ?makeCurrent@OGLWindow@brook@@QAEXXZ 0041b0e0 f   brook:oglwindow.obj
 0001:0001a0f0       ?shareLists@OGLWindow@brook@@QAEXPAUHGLRC__@@@Z 0041b0f0 f   brook:oglwindow.obj
 0001:0001a510       ??0OGLWindow@brook@@QAE@XZ 0041b510 f   brook:oglwindow.obj
 0001:0001a5b0       ?initPbuffer@OGLWindow@brook@@QAEXPAY13EA@$$CBHPAY13BA@$$CBMPAY13BA@$$CBH@Z 0041b5b0 f   brook:oglwindow.obj
 0001:0001a790       ?bindPbuffer@OGLWindow@brook@@QAE_NIIII@Z 0041b790 f   brook:oglwindow.obj
 0001:0001aae0       ?id@OGLTexture@brook@@QBEIXZ 0041bae0 f i brook:oglcontext.obj
 0001:0001aaf0       ?getMaximumOutputCount@OGLContext@brook@@UBEIXZ 0041baf0 f   brook:oglcontext.obj
 0001:0001ab00       ?getTextureRenderData@OGLContext@brook@@UAEPAXPAX@Z 0041bb00 f   brook:oglcontext.obj
 0001:0001ab10       ?finish@OGLContext@brook@@UAEXXZ 0041bb10 f   brook:oglcontext.obj
 0001:0001ab20       ?unbind@OGLContext@brook@@UAEXXZ 0041bb20 f   brook:oglcontext.obj
 0001:0001ab30       ?bind@OGLContext@brook@@UAEXXZ 0041bb30 f   brook:oglcontext.obj
 0001:0001ab40       ?shareLists@OGLContext@brook@@QAEXPAUHGLRC__@@@Z 0041bb40 f   brook:oglcontext.obj
 0001:0001ab50       ?createWriteQuery@OGLContext@brook@@UAEPAVIWriteQuery@2@XZ 0041bb50 f   brook:oglcontext.obj
 0001:0001abc0       ??0OGLContext@brook@@IAE@XZ 0041bbc0 f   brook:oglcontext.obj
 0001:0001ac70       ?isTextureExtentValid@OGLContext@brook@@UBE_NI@Z 0041bc70 f i brook:oglcontext.obj
 0001:0001ac90       ?beginScene@OGLContext@brook@@UAEXXZ 0041bc90 f i brook:oglcontext.obj
 0001:0001aca0       ?endScene@OGLContext@brook@@UAEXXZ 0041bca0 f i brook:oglcontext.obj
 0001:0001acb0       ?setAddressTranslationMode@OGLContext@brook@@UAEX_N@Z 0041bcb0 f i brook:oglcontext.obj
 0001:0001acc0       ?setOutputDomainMode@OGLContext@brook@@UAEX_N@Z 0041bcc0 f i brook:oglcontext.obj
 0001:0001acd0       ?synchronizeTextureRenderData@OGLContext@brook@@UAEXPAX@Z 0041bcd0 f i brook:oglcontext.obj
 0001:0001ace0       ??1OGLContext@brook@@UAE@XZ 0041bce0 f   brook:oglcontext.obj
 0001:0001ad50       ??_EOGLContext@brook@@UAEPAXI@Z 0041bd50 f i brook:oglcontext.obj
 0001:0001ad50       ??_GOGLContext@brook@@UAEPAXI@Z 0041bd50 f i brook:oglcontext.obj
 0001:0001ad70       ?init@OGLContext@brook@@IAEXPAY13EA@$$CBHPAY13BA@$$CBMPAY13BA@$$CBH@Z 0041bd70 f   brook:oglcontext.obj
 0001:0001ae90       ?components@OGLTexture@brook@@QBEIXZ 0041be90 f i brook:aticontext.obj
 0001:0001aea0       ?elementType@OGLTexture@brook@@QBEIXZ 0041bea0 f i brook:aticontext.obj
 0001:0001aeb0       ??0ATITexture@brook@@QAE@IIW4TextureFormat@GPUContext@1@@Z 0041beb0 f   brook:aticontext.obj
 0001:0001af00       ?nativeFormat@ATITexture@brook@@UBEHXZ 0041bf00 f i brook:aticontext.obj
 0001:0001af10       ??1ATITexture@brook@@UAE@XZ 0041bf10 f i brook:aticontext.obj
 0001:0001af20       ??0ATIContext@brook@@IAE@XZ 0041bf20 f   brook:aticontext.obj
 0001:0001af40       ??1ATIContext@brook@@UAE@XZ 0041bf40 f i brook:aticontext.obj
 0001:0001af50       ?create@ATIContext@brook@@SAPAV12@XZ 0041bf50 f   brook:aticontext.obj
 0001:0001aff0       ?getShaderFormatRank@ATIContext@brook@@UBEHPBD@Z 0041bff0 f   brook:aticontext.obj
 0001:0001b010       ?createTexture2D@ATIContext@brook@@UAEPAXIIW4TextureFormat@GPUContext@2@_N@Z 0041c010 f   brook:aticontext.obj
 0001:0001b090       ?isCompatibleContext@ATIContext@brook@@SA_NXZ 0041c090 f   brook:aticontext.obj
 0001:0001b0e0       ?isVendorContext@ATIContext@brook@@SA_NXZ 0041c0e0 f   brook:aticontext.obj
 0001:0001b100       ??_EATITexture@brook@@UAEPAXI@Z 0041c100 f i brook:aticontext.obj
 0001:0001b100       ??_GATITexture@brook@@UAEPAXI@Z 0041c100 f i brook:aticontext.obj
 0001:0001b120       ??_GATIContext@brook@@UAEPAXI@Z 0041c120 f i brook:aticontext.obj
 0001:0001b120       ??_EATIContext@brook@@UAEPAXI@Z 0041c120 f i brook:aticontext.obj
 0001:0001b140       ??0NVTexture@brook@@QAE@IIW4TextureFormat@GPUContext@1@@Z 0041c140 f   brook:nvcontext.obj
 0001:0001b190       ?nativeFormat@NVTexture@brook@@UBEHXZ 0041c190 f i brook:nvcontext.obj
 0001:0001b1a0       ??1NVTexture@brook@@UAE@XZ 0041c1a0 f i brook:nvcontext.obj
 0001:0001b1b0       ??0NVContext@brook@@IAE@XZ 0041c1b0 f   brook:nvcontext.obj
 0001:0001b1d0       ??1NVContext@brook@@UAE@XZ 0041c1d0 f i brook:nvcontext.obj
 0001:0001b1e0       ?create@NVContext@brook@@SAPAV12@XZ 0041c1e0 f   brook:nvcontext.obj
 0001:0001b2b0       ?getShaderFormatRank@NVContext@brook@@UBEHPBD@Z 0041c2b0 f   brook:nvcontext.obj
 0001:0001b330       ?createTexture2D@NVContext@brook@@UAEPAXIIW4TextureFormat@GPUContext@2@_N@Z 0041c330 f   brook:nvcontext.obj
 0001:0001b3b0       ?isCompatibleContext@NVContext@brook@@SA_NXZ 0041c3b0 f   brook:nvcontext.obj
 0001:0001b400       ?isVendorContext@NVContext@brook@@SA_NXZ 0041c400 f   brook:nvcontext.obj
 0001:0001b420       ??_GNVTexture@brook@@UAEPAXI@Z 0041c420 f i brook:nvcontext.obj
 0001:0001b420       ??_ENVTexture@brook@@UAEPAXI@Z 0041c420 f i brook:nvcontext.obj
 0001:0001b440       ??_GNVContext@brook@@UAEPAXI@Z 0041c440 f i brook:nvcontext.obj
 0001:0001b440       ??_ENVContext@brook@@UAEPAXI@Z 0041c440 f i brook:nvcontext.obj
 0001:0001b460       ??0DX9Texture@brook@@AAE@PAVGPUContextDX9@1@HHHW4ComponentType@01@_N@Z 0041c460 f   brook:dx9texture.obj
 0001:0001b540       ?markCachedDataChanged@DX9Texture@brook@@QAEXXZ 0041c540 f   brook:dx9texture.obj
 0001:0001b550       ?markShadowDataChanged@DX9Texture@brook@@QAEXXZ 0041c550 f   brook:dx9texture.obj
 0001:0001b560       ?findRectForCopy@DX9Texture@brook@@AAEXIPBI00_NAAUtagRECT@@AA_N@Z 0041c560 f   brook:dx9texture.obj
 0001:0001b5f0       ?copyData@DX9Texture@brook@@AAEXPAXIIPBXIIIIII@Z 0041c5f0 f   brook:dx9texture.obj
 0001:0001b730       ?findRectForCopyAT@DX9Texture@brook@@AAEXIPBI00_NAAUtagRECT@@AA_NIIAAI4@Z 0041c730 f   brook:dx9texture.obj
 0001:0001b820       ?copyAllDataAT@DX9Texture@brook@@AAEXPAXIIPBXIIIIIIIPBI@Z 0041c820 f   brook:dx9texture.obj
 0001:0001b990       ?getDataAT@DX9Texture@brook@@AAEXPAXIPBI11IPBXIIIIII@Z 0041c990 f   brook:dx9texture.obj
 0001:0001bc30       ?setDataAT@DX9Texture@brook@@AAEXPBXIPBI11IPAXIIIIII@Z 0041cc30 f   brook:dx9texture.obj
 0001:0001bed0       ??1DX9Texture@brook@@QAE@XZ 0041ced0 f   brook:dx9texture.obj
 0001:0001bfb0       ?initialize@DX9Texture@brook@@AAE_NXZ 0041cfb0 f   brook:dx9texture.obj
 0001:0001c1d0       ?create@DX9Texture@brook@@SAPAV12@PAVGPUContextDX9@2@HHHW4ComponentType@12@_N@Z 0041d1d0 f   brook:dx9texture.obj
 0001:0001c290       ?flushCachedToShadow@DX9Texture@brook@@AAEXXZ 0041d290 f   brook:dx9texture.obj
 0001:0001c2d0       ?flushShadowToCached@DX9Texture@brook@@AAEXXZ 0041d2d0 f   brook:dx9texture.obj
 0001:0001c310       ?getShadowData@DX9Texture@brook@@AAEXPAXIIIPBI11_N@Z 0041d310 f   brook:dx9texture.obj
 0001:0001c520       ?getData@DX9Texture@brook@@QAEXPAMIIIPBI11_N@Z 0041d520 f   brook:dx9texture.obj
 0001:0001c590       ?validateCachedData@DX9Texture@brook@@QAEXXZ 0041d590 f   brook:dx9texture.obj
 0001:0001c5d0       ?validateShadowData@DX9Texture@brook@@QAEXXZ 0041d5d0 f   brook:dx9texture.obj
 0001:0001c610       ?setShadowData@DX9Texture@brook@@AAEXPBXIIIPBI11_N@Z 0041d610 f   brook:dx9texture.obj
 0001:0001c840       ?getPixelAt@DX9Texture@brook@@QAEXHHAAUfloat4@@@Z 0041d840 f   brook:dx9texture.obj
 0001:0001c8a0       ?setData@DX9Texture@brook@@QAEXPBMIIIPBI11_N@Z 0041d8a0 f   brook:dx9texture.obj
 0001:0001c8e0       ??1IWriteQuery@brook@@UAE@XZ 0041d8e0 f i brook:dx9writequery.obj
 0001:0001c8f0       ??_GIWriteQuery@brook@@UAEPAXI@Z 0041d8f0 f i brook:dx9writequery.obj
 0001:0001c8f0       ??_EIWriteQuery@brook@@UAEPAXI@Z 0041d8f0 f i brook:dx9writequery.obj
 0001:0001c910       ??0IWriteQuery@brook@@QAE@XZ 0041d910 f i brook:dx9writequery.obj
 0001:0001c920       ??1DX9WriteQuery@brook@@UAE@XZ 0041d920 f   brook:dx9writequery.obj
 0001:0001c980       ?acquireReference@DX9WriteQuery@brook@@UAEXXZ 0041d980 f   brook:dx9writequery.obj
 0001:0001c990       ?releaseReference@DX9WriteQuery@brook@@UAEXXZ 0041d990 f   brook:dx9writequery.obj
 0001:0001c9a0       ?begin@DX9WriteQuery@brook@@UAEXXZ 0041d9a0 f   brook:dx9writequery.obj
 0001:0001c9c0       ?end@DX9WriteQuery@brook@@UAEXXZ 0041d9c0 f   brook:dx9writequery.obj
 0001:0001c9d0       ?wait@DX9WriteQuery@brook@@UAEXXZ 0041d9d0 f   brook:dx9writequery.obj
 0001:0001c9f0       ?count@DX9WriteQuery@brook@@UAEIXZ 0041d9f0 f   brook:dx9writequery.obj
 0001:0001ca10       ??_GDX9WriteQuery@brook@@UAEPAXI@Z 0041da10 f i brook:dx9writequery.obj
 0001:0001ca10       ??_EDX9WriteQuery@brook@@UAEPAXI@Z 0041da10 f i brook:dx9writequery.obj
 0001:0001ca30       ??0DX9WriteQuery@brook@@QAE@PAVGPUContextDX9@1@@Z 0041da30 f   brook:dx9writequery.obj
 0001:0001cac0       ?poll@DX9WriteQuery@brook@@UAE_NXZ 0041dac0 f   brook:dx9writequery.obj
 0001:0001cb20       ??1IWriteMask@brook@@UAE@XZ 0041db20 f i brook:dx9writemask.obj
 0001:0001cb30       ??_GIWriteMask@brook@@UAEPAXI@Z 0041db30 f i brook:dx9writemask.obj
 0001:0001cb30       ??_EIWriteMask@brook@@UAEPAXI@Z 0041db30 f i brook:dx9writemask.obj
 0001:0001cb50       ??0IWriteMask@brook@@QAE@XZ 0041db50 f i brook:dx9writemask.obj
 0001:0001cb60       ??1DX9WriteMask@brook@@UAE@XZ 0041db60 f   brook:dx9writemask.obj
 0001:0001cb70       ?acquireReference@DX9WriteMask@brook@@UAEXXZ 0041db70 f   brook:dx9writemask.obj
 0001:0001cb80       ?releaseReference@DX9WriteMask@brook@@UAEXXZ 0041db80 f   brook:dx9writemask.obj
 0001:0001cb90       ?bind@DX9WriteMask@brook@@UAEXXZ 0041db90 f   brook:dx9writemask.obj
 0001:0001cbc0       ?unbind@DX9WriteMask@brook@@UAEXXZ 0041dbc0 f   brook:dx9writemask.obj
 0001:0001cbf0       ?enableTest@DX9WriteMask@brook@@UAEXXZ 0041dbf0 f   brook:dx9writemask.obj
 0001:0001cc50       ?disableTest@DX9WriteMask@brook@@UAEXXZ 0041dc50 f   brook:dx9writemask.obj
 0001:0001cc80       ?enableSet@DX9WriteMask@brook@@UAEXXZ 0041dc80 f   brook:dx9writemask.obj
 0001:0001ccb0       ?disableSet@DX9WriteMask@brook@@UAEXXZ 0041dcb0 f   brook:dx9writemask.obj
 0001:0001cce0       ?clear@DX9WriteMask@brook@@UAEXXZ 0041dce0 f   brook:dx9writemask.obj
 0001:0001cd60       ??0DX9WriteMask@brook@@QAE@PAVGPUContextDX9@1@HH@Z 0041dd60 f   brook:dx9writemask.obj
 0001:0001cea0       ??_GDX9WriteMask@brook@@UAEPAXI@Z 0041dea0 f i brook:dx9writemask.obj
 0001:0001cea0       ??_EDX9WriteMask@brook@@UAEPAXI@Z 0041dea0 f i brook:dx9writemask.obj
 0001:0001cec0       ??1DX9Window@brook@@QAE@XZ 0041dec0 f   brook:dx9window.obj
 0001:0001ced0       ?show@DX9Window@brook@@QAEXXZ 0041ded0 f   brook:dx9window.obj
 0001:0001cee0       ?hide@DX9Window@brook@@QAEXXZ 0041dee0 f   brook:dx9window.obj
 0001:0001cef0       ?getWindowHandle@DX9Window@brook@@QAEPAUHWND__@@XZ 0041def0 f   brook:dx9window.obj
 0001:0001cf00       ?handleMessage@DX9Window@brook@@AAEJIIJ@Z 0041df00 f   brook:dx9window.obj
 0001:0001cf30       ?finalize@DX9Window@brook@@AAEXXZ 0041df30 f   brook:dx9window.obj
 0001:0001cf40       ?windowCallback@DX9Window@brook@@CGJPAUHWND__@@IIJ@Z 0041df40 f   brook:dx9window.obj
 0001:0001cfc0       ?registerWindowClass@DX9Window@brook@@CAXXZ 0041dfc0 f   brook:dx9window.obj
 0001:0001d020       ??0DX9Window@brook@@AAE@XZ 0041e020 f   brook:dx9window.obj
 0001:0001d070       ?create@DX9Window@brook@@SAPAV12@XZ 0041e070 f   brook:dx9window.obj
 0001:0001d090       ??0float2@@QAE@MM@Z        0041e090 f i brook:gpukernel.obj
 0001:0001d0b0       ?getStreamReduceInterpolant@GPUContext@brook@@QBEXQAXIIIIIIIAAUGPUInterpolant@2@@Z 0041e0b0 f i brook:gpukernel.obj
 0001:0001d120       ?getStreamReduceOutputRegion@GPUContext@brook@@QBEXQAXIIIIIAAUGPURegion@2@@Z 0041e120 f i brook:gpukernel.obj
 0001:0001d180       ??1ArgumentType@GPUKernel@brook@@UAE@XZ 0041e180 f i brook:gpukernel.obj
 0001:0001d190       ??0ArgumentInfo@GPUKernel@brook@@QAE@PAVArgumentType@12@I@Z 0041e190 f i brook:gpukernel.obj
 0001:0001d1b0       ?getTexture@ArgumentInfo@GPUKernel@brook@@QAEPAXPAV23@I@Z 0041e1b0 f i brook:gpukernel.obj
 0001:0001d1d0       ?getInterpolant@ArgumentInfo@GPUKernel@brook@@QAEXPAV23@IAAUGPUInterpolant@3@@Z 0041e1d0 f i brook:gpukernel.obj
 0001:0001d200       ?getConstant@ArgumentInfo@GPUKernel@brook@@QAE?AUfloat4@@PAV23@I@Z 0041e200 f i brook:gpukernel.obj
 0001:0001d230       ??0Input@GPUKernel@brook@@QAE@ABVgpu_input_desc@desc@2@@Z 0041e230 f i brook:gpukernel.obj
 0001:0001d250       ??0ReduceArgumentInfo@GPUKernel@brook@@QAE@PAXW4StreamType@2@@Z 0041e250 f i brook:gpukernel.obj
 0001:0001d270       ??_EArgumentType@GPUKernel@brook@@UAEPAXI@Z 0041e270 f i brook:gpukernel.obj
 0001:0001d270       ??_GArgumentType@GPUKernel@brook@@UAEPAXI@Z 0041e270 f i brook:gpukernel.obj
 0001:0001d290       ?getRank@GPUStreamData@brook@@QBEIXZ 0041e290 f i brook:gpukernel.obj
 0001:0001d2a0       ?getIndexofConstant@GPUStreamData@brook@@QBE?AUfloat4@@XZ 0041e2a0 f i brook:gpukernel.obj
 0001:0001d2c0       ?getTextureWidth@GPUStreamData@brook@@QBEIXZ 0041e2c0 f i brook:gpukernel.obj
 0001:0001d2d0       ?getTextureHeight@GPUStreamData@brook@@QBEIXZ 0041e2d0 f i brook:gpukernel.obj
 0001:0001d2e0       ?requiresAddressTranslation@GPUStreamData@brook@@QBE_NXZ 0041e2e0 f i brook:gpukernel.obj
 0001:0001d2f0       ?getIndexofConstant@GPUStream@brook@@QBE?AUfloat4@@XZ 0041e2f0 f i brook:gpukernel.obj
 0001:0001d310       ?getTextureWidth@GPUStream@brook@@QBEIXZ 0041e310 f i brook:gpukernel.obj
 0001:0001d320       ?getTextureHeight@GPUStream@brook@@QBEIXZ 0041e320 f i brook:gpukernel.obj
 0001:0001d330       ?getRank@GPUStream@brook@@QBEIXZ 0041e330 f i brook:gpukernel.obj
 0001:0001d340       ?requiresAddressTranslation@GPUStream@brook@@QBE_NXZ 0041e340 f i brook:gpukernel.obj
 0001:0001d350       ?getRank@GPUIterator@brook@@QAEIXZ 0041e350 f i brook:gpukernel.obj
 0001:0001d360       ?getValueBaseConstant@GPUIterator@brook@@QAE?AUfloat4@@XZ 0041e360 f i brook:gpukernel.obj
 0001:0001d380       ?getValueOffset1Constant@GPUIterator@brook@@QAE?AUfloat4@@XZ 0041e380 f i brook:gpukernel.obj
 0001:0001d3a0       ?getValueOffset4Constant@GPUIterator@brook@@QAE?AUfloat4@@XZ 0041e3a0 f i brook:gpukernel.obj
 0001:0001d3c0       ?getContext@GPURuntime@brook@@QAEPAVGPUContext@2@XZ 0041e3c0 f i brook:gpukernel.obj
 0001:0001d3d0       ??0ArgumentType@GPUKernel@brook@@QAE@XZ 0041e3d0 f i brook:gpukernel.obj
 0001:0001d3e0       ??0IteratorArgumentType@GPUKernel@brook@@QAE@XZ 0041e3e0 f i brook:gpukernel.obj
 0001:0001d3f0       ??1IteratorArgumentType@GPUKernel@brook@@UAE@XZ 0041e3f0 f i brook:gpukernel.obj
 0001:0001d400       ??0ConstantArgumentType@GPUKernel@brook@@QAE@XZ 0041e400 f i brook:gpukernel.obj
 0001:0001d410       ??1ConstantArgumentType@GPUKernel@brook@@UAE@XZ 0041e410 f i brook:gpukernel.obj
 0001:0001d420       ??0GatherArgumentType@GPUKernel@brook@@QAE@XZ 0041e420 f i brook:gpukernel.obj
 0001:0001d430       ??1GatherArgumentType@GPUKernel@brook@@UAE@XZ 0041e430 f i brook:gpukernel.obj
 0001:0001d440       ??0OutputArgumentType@GPUKernel@brook@@QAE@XZ 0041e440 f i brook:gpukernel.obj
 0001:0001d450       ??1OutputArgumentType@GPUKernel@brook@@UAE@XZ 0041e450 f i brook:gpukernel.obj
 0001:0001d460       ??0ReduceArgumentType@GPUKernel@brook@@QAE@XZ 0041e460 f i brook:gpukernel.obj
 0001:0001d470       ??1ReduceArgumentType@GPUKernel@brook@@UAE@XZ 0041e470 f i brook:gpukernel.obj
 0001:0001d480       ?PushConstant@GPUKernel@brook@@UAEXABM@Z 0041e480 f   brook:gpukernel.obj
 0001:0001d4c0       ?PushConstant@GPUKernel@brook@@UAEXABUfloat2@@@Z 0041e4c0 f   brook:gpukernel.obj
 0001:0001d500       ?PushConstant@GPUKernel@brook@@UAEXABUfloat3@@@Z 0041e500 f   brook:gpukernel.obj
 0001:0001d540       ?beginReduction@GPUKernel@brook@@AAEXAAVReductionState@12@@Z 0041e540 f   brook:gpukernel.obj
 0001:0001d550       ?getATIndexofNumerConstant@GPUKernel@brook@@AAE?AUfloat4@@IPBI0@Z 0041e550 f   brook:gpukernel.obj
 0001:0001d710       ?getATIndexofDenomConstant@GPUKernel@brook@@AAE?AUfloat4@@IPBI0@Z 0041e710 f   brook:gpukernel.obj
 0001:0001d8d0       ?size@?$vector@VInput@GPUKernel@brook@@V?$allocator@VInput@GPUKernel@brook@@@std@@@std@@QBEIXZ 0041e8d0 f i brook:gpukernel.obj
 0001:0001d8f0       ??A?$vector@VInput@GPUKernel@brook@@V?$allocator@VInput@GPUKernel@brook@@@std@@@std@@QBEABVInput@GPUKernel@brook@@I@Z 0041e8f0 f i brook:gpukernel.obj
 0001:0001d920       ?size@?$vector@VTechnique@GPUKernel@brook@@V?$allocator@VTechnique@GPUKernel@brook@@@std@@@std@@QBEIXZ 0041e920 f i brook:gpukernel.obj
 0001:0001d940       ??A?$vector@VTechnique@GPUKernel@brook@@V?$allocator@VTechnique@GPUKernel@brook@@@std@@@std@@QAEAAVTechnique@GPUKernel@brook@@I@Z 0041e940 f i brook:gpukernel.obj
 0001:0001d980       ?size@?$vector@PAVGPUStream@brook@@V?$allocator@PAVGPUStream@brook@@@std@@@std@@QBEIXZ 0041e980 f i brook:gpukernel.obj
 0001:0001d9a0       ??A?$vector@PAVGPUStream@brook@@V?$allocator@PAVGPUStream@brook@@@std@@@std@@QAEAAPAVGPUStream@brook@@I@Z 0041e9a0 f i brook:gpukernel.obj
 0001:0001d9d0       ?size@?$vector@PAVGPUIterator@brook@@V?$allocator@PAVGPUIterator@brook@@@std@@@std@@QBEIXZ 0041e9d0 f i brook:gpukernel.obj
 0001:0001d9f0       ??A?$vector@PAVGPUIterator@brook@@V?$allocator@PAVGPUIterator@brook@@@std@@@std@@QAEAAPAVGPUIterator@brook@@I@Z 0041e9f0 f i brook:gpukernel.obj
 0001:0001da20       ?size@?$vector@Ufloat4@@V?$allocator@Ufloat4@@@std@@@std@@QBEIXZ 0041ea20 f i brook:gpukernel.obj
 0001:0001da40       ??A?$vector@Ufloat4@@V?$allocator@Ufloat4@@@std@@@std@@QAEAAUfloat4@@I@Z 0041ea40 f i brook:gpukernel.obj
 0001:0001da70       ?size@?$vector@VReduceArgumentInfo@GPUKernel@brook@@V?$allocator@VReduceArgumentInfo@GPUKernel@brook@@@std@@@std@@QBEIXZ 0041ea70 f i brook:gpukernel.obj
 0001:0001da90       ??A?$vector@VReduceArgumentInfo@GPUKernel@brook@@V?$allocator@VReduceArgumentInfo@GPUKernel@brook@@@std@@@std@@QAEAAVReduceArgumentInfo@GPUKernel@brook@@I@Z 0041ea90 f i brook:gpukernel.obj
 0001:0001dac0       ??A?$vector@PAXV?$allocator@PAX@std@@@std@@QAEAAPAXI@Z 0041eac0 f i brook:gpukernel.obj
 0001:0001daf0       ?size@?$vector@UGPUInterpolant@brook@@V?$allocator@UGPUInterpolant@brook@@@std@@@std@@QBEIXZ 0041eaf0 f i brook:gpukernel.obj
 0001:0001db10       ??A?$vector@UGPUInterpolant@brook@@V?$allocator@UGPUInterpolant@brook@@@std@@@std@@QAEAAUGPUInterpolant@brook@@I@Z 0041eb10 f i brook:gpukernel.obj
 0001:0001db50       ??D?$_Vector_const_iterator@Vgpu_technique_desc@desc@brook@@V?$allocator@Vgpu_technique_desc@desc@brook@@@std@@@std@@QBEABVgpu_technique_desc@desc@brook@@XZ 0041eb50 f i brook:gpukernel.obj
 0001:0001db80       ??E?$_Vector_const_iterator@Vgpu_technique_desc@desc@brook@@V?$allocator@Vgpu_technique_desc@desc@brook@@@std@@@std@@QAEAAV01@XZ 0041eb80 f i brook:gpukernel.obj
 0001:0001dbb0       ??D?$_Vector_const_iterator@Vgpu_pass_desc@desc@brook@@V?$allocator@Vgpu_pass_desc@desc@brook@@@std@@@std@@QBEABVgpu_pass_desc@desc@brook@@XZ 0041ebb0 f i brook:gpukernel.obj
 0001:0001dbe0       ??E?$_Vector_const_iterator@Vgpu_pass_desc@desc@brook@@V?$allocator@Vgpu_pass_desc@desc@brook@@@std@@@std@@QAEAAV01@XZ 0041ebe0 f i brook:gpukernel.obj
 0001:0001dc10       ??D?$_Vector_const_iterator@VPass@GPUKernel@brook@@V?$allocator@VPass@GPUKernel@brook@@@std@@@std@@QBEABVPass@GPUKernel@brook@@XZ 0041ec10 f i brook:gpukernel.obj
 0001:0001dc40       ??D?$_Vector_const_iterator@Vgpu_input_desc@desc@brook@@V?$allocator@Vgpu_input_desc@desc@brook@@@std@@@std@@QBEABVgpu_input_desc@desc@brook@@XZ 0041ec40 f i brook:gpukernel.obj
 0001:0001dc70       ??0?$_Ranit@VPass@GPUKernel@brook@@HPBV123@ABV123@@std@@QAE@XZ 0041ec70 f i brook:gpukernel.obj
 0001:0001dc80       ?capacity@?$vector@VInput@GPUKernel@brook@@V?$allocator@VInput@GPUKernel@brook@@@std@@@std@@QBEIXZ 0041ec80 f i brook:gpukernel.obj
 0001:0001dca0       ??0?$allocator@VTechnique@GPUKernel@brook@@@std@@QAE@XZ 0041eca0 f i brook:gpukernel.obj
 0001:0001dcb0       ?capacity@?$vector@PAVGPUStream@brook@@V?$allocator@PAVGPUStream@brook@@@std@@@std@@QBEIXZ 0041ecb0 f i brook:gpukernel.obj
 0001:0001dcd0       ??0?$allocator@PAVGPUStream@brook@@@std@@QAE@XZ 0041ecd0 f i brook:gpukernel.obj
 0001:0001dce0       ?capacity@?$vector@PAVGPUIterator@brook@@V?$allocator@PAVGPUIterator@brook@@@std@@@std@@QBEIXZ 0041ece0 f i brook:gpukernel.obj
 0001:0001dd00       ??0?$allocator@PAVGPUIterator@brook@@@std@@QAE@XZ 0041ed00 f i brook:gpukernel.obj
 0001:0001dd10       ?capacity@?$vector@Ufloat4@@V?$allocator@Ufloat4@@@std@@@std@@QBEIXZ 0041ed10 f i brook:gpukernel.obj
 0001:0001dd30       ??0?$allocator@Ufloat4@@@std@@QAE@XZ 0041ed30 f i brook:gpukernel.obj
 0001:0001dd40       ?capacity@?$vector@VArgumentInfo@GPUKernel@brook@@V?$allocator@VArgumentInfo@GPUKernel@brook@@@std@@@std@@QBEIXZ 0041ed40 f i brook:gpukernel.obj
 0001:0001dd60       ?size@?$vector@VArgumentInfo@GPUKernel@brook@@V?$allocator@VArgumentInfo@GPUKernel@brook@@@std@@@std@@QBEIXZ 0041ed60 f i brook:gpukernel.obj
 0001:0001dd80       ??0?$allocator@VArgumentInfo@GPUKernel@brook@@@std@@QAE@XZ 0041ed80 f i brook:gpukernel.obj
 0001:0001dd90       ?capacity@?$vector@VReduceArgumentInfo@GPUKernel@brook@@V?$allocator@VReduceArgumentInfo@GPUKernel@brook@@@std@@@std@@QBEIXZ 0041ed90 f i brook:gpukernel.obj
 0001:0001ddb0       ??0?$allocator@VReduceArgumentInfo@GPUKernel@brook@@@std@@QAE@XZ 0041edb0 f i brook:gpukernel.obj
 0001:0001ddc0       ?capacity@?$vector@UGPUInterpolant@brook@@V?$allocator@UGPUInterpolant@brook@@@std@@@std@@QBEIXZ 0041edc0 f i brook:gpukernel.obj
 0001:0001dde0       ??0?$allocator@UGPUInterpolant@brook@@@std@@QAE@XZ 0041ede0 f i brook:gpukernel.obj
 0001:0001ddf0       ??8?$_Vector_const_iterator@Vgpu_technique_desc@desc@brook@@V?$allocator@Vgpu_technique_desc@desc@brook@@@std@@@std@@QBE_NABV01@@Z 0041edf0 f i brook:gpukernel.obj
 0001:0001de20       ??D?$_Vector_const_iterator@VTechnique@GPUKernel@brook@@V?$allocator@VTechnique@GPUKernel@brook@@@std@@@std@@QBEABVTechnique@GPUKernel@brook@@XZ 0041ee20 f i brook:gpukernel.obj
 0001:0001de50       ??E?$_Vector_const_iterator@VTechnique@GPUKernel@brook@@V?$allocator@VTechnique@GPUKernel@brook@@@std@@@std@@QAEAAV01@XZ 0041ee50 f i brook:gpukernel.obj
 0001:0001de80       ??0?$_Vector_const_iterator@VPass@GPUKernel@brook@@V?$allocator@VPass@GPUKernel@brook@@@std@@@std@@QAE@PAVPass@GPUKernel@brook@@PBU_Container_base@1@@Z 0041ee80 f i brook:gpukernel.obj
 0001:0001dec0       ??E?$_Vector_const_iterator@VPass@GPUKernel@brook@@V?$allocator@VPass@GPUKernel@brook@@@std@@@std@@QAEAAV01@XZ 0041eec0 f i brook:gpukernel.obj
 0001:0001def0       ??8?$_Vector_const_iterator@VPass@GPUKernel@brook@@V?$allocator@VPass@GPUKernel@brook@@@std@@@std@@QBE_NABV01@@Z 0041eef0 f i brook:gpukernel.obj
 0001:0001df20       ??E?$_Vector_const_iterator@Vgpu_input_desc@desc@brook@@V?$allocator@Vgpu_input_desc@desc@brook@@@std@@@std@@QAEAAV01@XZ 0041ef20 f i brook:gpukernel.obj
 0001:0001df50       ??0?$allocator@VInput@GPUKernel@brook@@@std@@QAE@XZ 0041ef50 f i brook:gpukernel.obj
 0001:0001df60       ?size@?$vector@VPass@GPUKernel@brook@@V?$allocator@VPass@GPUKernel@brook@@@std@@@std@@QBEIXZ 0041ef60 f i brook:gpukernel.obj
 0001:0001df80       ??0?$allocator@VPass@GPUKernel@brook@@@std@@QAE@XZ 0041ef80 f i brook:gpukernel.obj
 0001:0001df90       ??0?$allocator@VTechnique@GPUKernel@brook@@@std@@QAE@ABV01@@Z 0041ef90 f i brook:gpukernel.obj
 0001:0001dfa0       ?deallocate@?$allocator@VTechnique@GPUKernel@brook@@@std@@QAEXPAVTechnique@GPUKernel@brook@@I@Z 0041efa0 f i brook:gpukernel.obj
 0001:0001dfb0       ??0?$allocator@PAVGPUStream@brook@@@std@@QAE@ABV01@@Z 0041efb0 f i brook:gpukernel.obj
 0001:0001dfc0       ?deallocate@?$allocator@PAVGPUStream@brook@@@std@@QAEXPAPAVGPUStream@brook@@I@Z 0041efc0 f i brook:gpukernel.obj
 0001:0001dfd0       ??0?$allocator@PAVGPUIterator@brook@@@std@@QAE@ABV01@@Z 0041efd0 f i brook:gpukernel.obj
 0001:0001dfe0       ?deallocate@?$allocator@PAVGPUIterator@brook@@@std@@QAEXPAPAVGPUIterator@brook@@I@Z 0041efe0 f i brook:gpukernel.obj
 0001:0001dff0       ??0?$allocator@Ufloat4@@@std@@QAE@ABV01@@Z 0041eff0 f i brook:gpukernel.obj
 0001:0001e000       ?deallocate@?$allocator@Ufloat4@@@std@@QAEXPAUfloat4@@I@Z 0041f000 f i brook:gpukernel.obj
 0001:0001e010       ??0?$allocator@VArgumentInfo@GPUKernel@brook@@@std@@QAE@ABV01@@Z 0041f010 f i brook:gpukernel.obj
 0001:0001e020       ?deallocate@?$allocator@VArgumentInfo@GPUKernel@brook@@@std@@QAEXPAVArgumentInfo@GPUKernel@brook@@I@Z 0041f020 f i brook:gpukernel.obj
 0001:0001e030       ??0?$allocator@VReduceArgumentInfo@GPUKernel@brook@@@std@@QAE@ABV01@@Z 0041f030 f i brook:gpukernel.obj
 0001:0001e040       ?deallocate@?$allocator@VReduceArgumentInfo@GPUKernel@brook@@@std@@QAEXPAVReduceArgumentInfo@GPUKernel@brook@@I@Z 0041f040 f i brook:gpukernel.obj
 0001:0001e050       ??0?$allocator@UGPUInterpolant@brook@@@std@@QAE@ABV01@@Z 0041f050 f i brook:gpukernel.obj
 0001:0001e060       ?deallocate@?$allocator@UGPUInterpolant@brook@@@std@@QAEXPAUGPUInterpolant@brook@@I@Z 0041f060 f i brook:gpukernel.obj
 0001:0001e070       ??0?$_Ranit@VTechnique@GPUKernel@brook@@HPBV123@ABV123@@std@@QAE@XZ 0041f070 f i brook:gpukernel.obj
 0001:0001e080       ??0?$allocator@VInput@GPUKernel@brook@@@std@@QAE@ABV01@@Z 0041f080 f i brook:gpukernel.obj
 0001:0001e090       ?deallocate@?$allocator@VInput@GPUKernel@brook@@@std@@QAEXPAVInput@GPUKernel@brook@@I@Z 0041f090 f i brook:gpukernel.obj
 0001:0001e0a0       ?capacity@?$vector@VPass@GPUKernel@brook@@V?$allocator@VPass@GPUKernel@brook@@@std@@@std@@QBEIXZ 0041f0a0 f i brook:gpukernel.obj
 0001:0001e0c0       ??0?$allocator@VPass@GPUKernel@brook@@@std@@QAE@ABV01@@Z 0041f0c0 f i brook:gpukernel.obj
 0001:0001e0d0       ?deallocate@?$allocator@VPass@GPUKernel@brook@@@std@@QAEXPAVPass@GPUKernel@brook@@I@Z 0041f0d0 f i brook:gpukernel.obj
 0001:0001e0e0       ?capacity@?$vector@VTechnique@GPUKernel@brook@@V?$allocator@VTechnique@GPUKernel@brook@@@std@@@std@@QBEIXZ 0041f0e0 f i brook:gpukernel.obj
 0001:0001e100       ?max_size@?$allocator@VTechnique@GPUKernel@brook@@@std@@QBEIXZ 0041f100 f i brook:gpukernel.obj
 0001:0001e110       ?max_size@?$allocator@PAVGPUStream@brook@@@std@@QBEIXZ 0041f110 f i brook:gpukernel.obj
 0001:0001e120       ?max_size@?$allocator@PAVGPUIterator@brook@@@std@@QBEIXZ 0041f120 f i brook:gpukernel.obj
 0001:0001e130       ?max_size@?$allocator@Ufloat4@@@std@@QBEIXZ 0041f130 f i brook:gpukernel.obj
 0001:0001e140       ?max_size@?$allocator@VArgumentInfo@GPUKernel@brook@@@std@@QBEIXZ 0041f140 f i brook:gpukernel.obj
 0001:0001e150       ?max_size@?$allocator@VReduceArgumentInfo@GPUKernel@brook@@@std@@QBEIXZ 0041f150 f i brook:gpukernel.obj
 0001:0001e160       ?max_size@?$allocator@UGPUInterpolant@brook@@@std@@QBEIXZ 0041f160 f i brook:gpukernel.obj
 0001:0001e170       ??G?$_Vector_const_iterator@VInput@GPUKernel@brook@@V?$allocator@VInput@GPUKernel@brook@@@std@@@std@@QBEHABV01@@Z 0041f170 f i brook:gpukernel.obj
 0001:0001e1a0       ??G?$_Vector_const_iterator@PAVGPUStream@brook@@V?$allocator@PAVGPUStream@brook@@@std@@@std@@QBEHABV01@@Z 0041f1a0 f i brook:gpukernel.obj
 0001:0001e1d0       ??8?$_Vector_const_iterator@PAVGPUStream@brook@@V?$allocator@PAVGPUStream@brook@@@std@@@std@@QBE_NABV01@@Z 0041f1d0 f i brook:gpukernel.obj
 0001:0001e200       ??G?$_Vector_const_iterator@PAVGPUIterator@brook@@V?$allocator@PAVGPUIterator@brook@@@std@@@std@@QBEHABV01@@Z 0041f200 f i brook:gpukernel.obj
 0001:0001e230       ??8?$_Vector_const_iterator@PAVGPUIterator@brook@@V?$allocator@PAVGPUIterator@brook@@@std@@@std@@QBE_NABV01@@Z 0041f230 f i brook:gpukernel.obj
 0001:0001e260       ??G?$_Vector_const_iterator@Ufloat4@@V?$allocator@Ufloat4@@@std@@@std@@QBEHABV01@@Z 0041f260 f i brook:gpukernel.obj
 0001:0001e290       ??8?$_Vector_const_iterator@Ufloat4@@V?$allocator@Ufloat4@@@std@@@std@@QBE_NABV01@@Z 0041f290 f i brook:gpukernel.obj
 0001:0001e2c0       ??G?$_Vector_const_iterator@VArgumentInfo@GPUKernel@brook@@V?$allocator@VArgumentInfo@GPUKernel@brook@@@std@@@std@@QBEHABV01@@Z 0041f2c0 f i brook:gpukernel.obj
 0001:0001e2f0       ??8?$_Vector_const_iterator@VArgumentInfo@GPUKernel@brook@@V?$allocator@VArgumentInfo@GPUKernel@brook@@@std@@@std@@QBE_NABV01@@Z 0041f2f0 f i brook:gpukernel.obj
 0001:0001e320       ??G?$_Vector_const_iterator@VReduceArgumentInfo@GPUKernel@brook@@V?$allocator@VReduceArgumentInfo@GPUKernel@brook@@@std@@@std@@QBEHABV01@@Z 0041f320 f i brook:gpukernel.obj
 0001:0001e350       ??8?$_Vector_const_iterator@VReduceArgumentInfo@GPUKernel@brook@@V?$allocator@VReduceArgumentInfo@GPUKernel@brook@@@std@@@std@@QBE_NABV01@@Z 0041f350 f i brook:gpukernel.obj
 0001:0001e380       ??G?$_Vector_const_iterator@UGPUInterpolant@brook@@V?$allocator@UGPUInterpolant@brook@@@std@@@std@@QBEHABV01@@Z 0041f380 f i brook:gpukernel.obj
 0001:0001e3c0       ??8?$_Vector_const_iterator@UGPUInterpolant@brook@@V?$allocator@UGPUInterpolant@brook@@@std@@@std@@QBE_NABV01@@Z 0041f3c0 f i brook:gpukernel.obj
 0001:0001e3f0       ??0?$_Ranit@VInput@GPUKernel@brook@@HPBV123@ABV123@@std@@QAE@XZ 0041f3f0 f i brook:gpukernel.obj
 0001:0001e400       ??0?$_Ranit@PAVGPUStream@brook@@HPBQAV12@ABQAV12@@std@@QAE@XZ 0041f400 f i brook:gpukernel.obj
 0001:0001e410       ??0?$_Ranit@PAVGPUIterator@brook@@HPBQAV12@ABQAV12@@std@@QAE@XZ 0041f410 f i brook:gpukernel.obj
 0001:0001e420       ??0?$_Ranit@Ufloat4@@HPBU1@ABU1@@std@@QAE@XZ 0041f420 f i brook:gpukernel.obj
 0001:0001e430       ??0?$_Ranit@VArgumentInfo@GPUKernel@brook@@HPBV123@ABV123@@std@@QAE@XZ 0041f430 f i brook:gpukernel.obj
 0001:0001e440       ??0?$_Ranit@VReduceArgumentInfo@GPUKernel@brook@@HPBV123@ABV123@@std@@QAE@XZ 0041f440 f i brook:gpukernel.obj
 0001:0001e450       ??0?$_Ranit@UGPUInterpolant@brook@@HPBU12@ABU12@@std@@QAE@XZ 0041f450 f i brook:gpukernel.obj
 0001:0001e460       ?max_size@?$allocator@VInput@GPUKernel@brook@@@std@@QBEIXZ 0041f460 f i brook:gpukernel.obj
 0001:0001e470       ?max_size@?$allocator@VPass@GPUKernel@brook@@@std@@QBEIXZ 0041f470 f i brook:gpukernel.obj
 0001:0001e480       ??Y?$_Vector_const_iterator@VTechnique@GPUKernel@brook@@V?$allocator@VTechnique@GPUKernel@brook@@@std@@@std@@QAEAAV01@H@Z 0041f480 f i brook:gpukernel.obj
 0001:0001e4c0       ??8?$_Vector_const_iterator@VTechnique@GPUKernel@brook@@V?$allocator@VTechnique@GPUKernel@brook@@@std@@@std@@QBE_NABV01@@Z 0041f4c0 f i brook:gpukernel.obj
 0001:0001e4f0       ??Y?$_Vector_const_iterator@VPass@GPUKernel@brook@@V?$allocator@VPass@GPUKernel@brook@@@std@@@std@@QAEAAV01@H@Z 0041f4f0 f i brook:gpukernel.obj
 0001:0001e530       ??Y?$_Vector_const_iterator@VInput@GPUKernel@brook@@V?$allocator@VInput@GPUKernel@brook@@@std@@@std@@QAEAAV01@H@Z 0041f530 f i brook:gpukernel.obj
 0001:0001e570       ??Y?$_Vector_const_iterator@PAVGPUStream@brook@@V?$allocator@PAVGPUStream@brook@@@std@@@std@@QAEAAV01@H@Z 0041f570 f i brook:gpukernel.obj
 0001:0001e5b0       ??Y?$_Vector_const_iterator@PAVGPUIterator@brook@@V?$allocator@PAVGPUIterator@brook@@@std@@@std@@QAEAAV01@H@Z 0041f5b0 f i brook:gpukernel.obj
 0001:0001e5f0       ??Y?$_Vector_const_iterator@Ufloat4@@V?$allocator@Ufloat4@@@std@@@std@@QAEAAV01@H@Z 0041f5f0 f i brook:gpukernel.obj
 0001:0001e630       ??Y?$_Vector_const_iterator@VArgumentInfo@GPUKernel@brook@@V?$allocator@VArgumentInfo@GPUKernel@brook@@@std@@@std@@QAEAAV01@H@Z 0041f630 f i brook:gpukernel.obj
 0001:0001e670       ??Y?$_Vector_const_iterator@VReduceArgumentInfo@GPUKernel@brook@@V?$allocator@VReduceArgumentInfo@GPUKernel@brook@@@std@@@std@@QAEAAV01@H@Z 0041f670 f i brook:gpukernel.obj
 0001:0001e6b0       ??Y?$_Vector_const_iterator@UGPUInterpolant@brook@@V?$allocator@UGPUInterpolant@brook@@@std@@@std@@QAEAAV01@H@Z 0041f6b0 f i brook:gpukernel.obj
 0001:0001e6f0       ??$_Allocate@VTechnique@GPUKernel@brook@@@std@@YAPAVTechnique@GPUKernel@brook@@IPAV123@@Z 0041f6f0 f i brook:gpukernel.obj
 0001:0001e750       ??$_Allocate@PAVGPUStream@brook@@@std@@YAPAPAVGPUStream@brook@@IPAPAV12@@Z 0041f750 f i brook:gpukernel.obj
 0001:0001e7b0       ??$_Allocate@PAVGPUIterator@brook@@@std@@YAPAPAVGPUIterator@brook@@IPAPAV12@@Z 0041f7b0 f i brook:gpukernel.obj
 0001:0001e810       ??$_Allocate@Ufloat4@@@std@@YAPAUfloat4@@IPAU1@@Z 0041f810 f i brook:gpukernel.obj
 0001:0001e870       ??$_Allocate@VArgumentInfo@GPUKernel@brook@@@std@@YAPAVArgumentInfo@GPUKernel@brook@@IPAV123@@Z 0041f870 f i brook:gpukernel.obj
 0001:0001e8d0       ??$_Allocate@VReduceArgumentInfo@GPUKernel@brook@@@std@@YAPAVReduceArgumentInfo@GPUKernel@brook@@IPAV123@@Z 0041f8d0 f i brook:gpukernel.obj
 0001:0001e930       ??$_Allocate@UGPUInterpolant@brook@@@std@@YAPAUGPUInterpolant@brook@@IPAU12@@Z 0041f930 f i brook:gpukernel.obj
 0001:0001e990       ??$_Allocate@VInput@GPUKernel@brook@@@std@@YAPAVInput@GPUKernel@brook@@IPAV123@@Z 0041f990 f i brook:gpukernel.obj
 0001:0001e9f0       ??$_Allocate@VPass@GPUKernel@brook@@@std@@YAPAVPass@GPUKernel@brook@@IPAV123@@Z 0041f9f0 f i brook:gpukernel.obj
 0001:0001ea50       ??$_Ptr_cat@PAVInput@GPUKernel@brook@@PAV123@@std@@YA?AU_Nonscalar_ptr_iterator_tag@0@AAPAVInput@GPUKernel@brook@@0@Z 0041fa50 f i brook:gpukernel.obj
 0001:0001ea60       ??$_Iter_random@PAPAVGPUStream@brook@@PAPAV12@@std@@YA?AUrandom_access_iterator_tag@0@ABQAPAVGPUStream@brook@@0@Z 0041fa60 f i brook:gpukernel.obj
 0001:0001ea70       ??$_Ptr_cat@PAPAVGPUStream@brook@@PAPAV12@@std@@YA?AU_Scalar_ptr_iterator_tag@0@AAPAPAVGPUStream@brook@@0@Z 0041fa70 f i brook:gpukernel.obj
 0001:0001ea80       ??$_Copy_opt@PAPAVGPUStream@brook@@PAPAV12@Urandom_access_iterator_tag@std@@@std@@YAPAPAVGPUStream@brook@@PAPAV12@00Urandom_access_iterator_tag@0@U_Scalar_ptr_iterator_tag@0@U_Range_checked_iterator_tag@0@@Z 0041fa80 f i brook:gpukernel.obj
 0001:0001eac0       ??$_Iter_random@PAPAVGPUIterator@brook@@PAPAV12@@std@@YA?AUrandom_access_iterator_tag@0@ABQAPAVGPUIterator@brook@@0@Z 0041fac0 f i brook:gpukernel.obj
 0001:0001ead0       ??$_Ptr_cat@PAPAVGPUIterator@brook@@PAPAV12@@std@@YA?AU_Scalar_ptr_iterator_tag@0@AAPAPAVGPUIterator@brook@@0@Z 0041fad0 f i brook:gpukernel.obj
 0001:0001eae0       ??$_Copy_opt@PAPAVGPUIterator@brook@@PAPAV12@Urandom_access_iterator_tag@std@@@std@@YAPAPAVGPUIterator@brook@@PAPAV12@00Urandom_access_iterator_tag@0@U_Scalar_ptr_iterator_tag@0@U_Range_checked_iterator_tag@0@@Z 0041fae0 f i brook:gpukernel.obj
 0001:0001eb20       ??$_Iter_random@PAUfloat4@@PAU1@@std@@YA?AUrandom_access_iterator_tag@0@ABQAUfloat4@@0@Z 0041fb20 f i brook:gpukernel.obj
 0001:0001eb30       ??$_Ptr_cat@PAUfloat4@@PAU1@@std@@YA?AU_Nonscalar_ptr_iterator_tag@0@AAPAUfloat4@@0@Z 0041fb30 f i brook:gpukernel.obj
 0001:0001eb40       ??$_Iter_random@PAVArgumentInfo@GPUKernel@brook@@PAV123@@std@@YA?AUrandom_access_iterator_tag@0@ABQAVArgumentInfo@GPUKernel@brook@@0@Z 0041fb40 f i brook:gpukernel.obj
 0001:0001eb50       ??$_Ptr_cat@PAVArgumentInfo@GPUKernel@brook@@PAV123@@std@@YA?AU_Nonscalar_ptr_iterator_tag@0@AAPAVArgumentInfo@GPUKernel@brook@@0@Z 0041fb50 f i brook:gpukernel.obj
 0001:0001eb60       ??$_Iter_random@PAVReduceArgumentInfo@GPUKernel@brook@@PAV123@@std@@YA?AUrandom_access_iterator_tag@0@ABQAVReduceArgumentInfo@GPUKernel@brook@@0@Z 0041fb60 f i brook:gpukernel.obj
 0001:0001eb70       ??$_Ptr_cat@PAVReduceArgumentInfo@GPUKernel@brook@@PAV123@@std@@YA?AU_Nonscalar_ptr_iterator_tag@0@AAPAVReduceArgumentInfo@GPUKernel@brook@@0@Z 0041fb70 f i brook:gpukernel.obj
 0001:0001eb80       ??$_Iter_random@PAUGPUInterpolant@brook@@PAU12@@std@@YA?AUrandom_access_iterator_tag@0@ABQAUGPUInterpolant@brook@@0@Z 0041fb80 f i brook:gpukernel.obj
 0001:0001eb90       ??$_Ptr_cat@PAUGPUInterpolant@brook@@PAU12@@std@@YA?AU_Nonscalar_ptr_iterator_tag@0@AAPAUGPUInterpolant@brook@@0@Z 0041fb90 f i brook:gpukernel.obj
 0001:0001eba0       ??$_Fill@PAVInput@GPUKernel@brook@@V123@@std@@YAXPAVInput@GPUKernel@brook@@0ABV123@@Z 0041fba0 f i brook:gpukernel.obj
 0001:0001ebd0       ??$_Iter_random@PAVInput@GPUKernel@brook@@PAV123@@std@@YA?AUrandom_access_iterator_tag@0@ABQAVInput@GPUKernel@brook@@0@Z 0041fbd0 f i brook:gpukernel.obj
 0001:0001ebe0       ??$_Move_cat@PAVInput@GPUKernel@brook@@@std@@YA?AU_Undefined_move_tag@0@ABQAVInput@GPUKernel@brook@@@Z 0041fbe0 f i brook:gpukernel.obj
 0001:0001ebf0       ??$_Iter_random@PAVPass@GPUKernel@brook@@PAV123@@std@@YA?AUrandom_access_iterator_tag@0@ABQAVPass@GPUKernel@brook@@0@Z 0041fbf0 f i brook:gpukernel.obj
 0001:0001ec00       ??$_Ptr_cat@PAVPass@GPUKernel@brook@@PAV123@@std@@YA?AU_Nonscalar_ptr_iterator_tag@0@AAPAVPass@GPUKernel@brook@@0@Z 0041fc00 f i brook:gpukernel.obj
 0001:0001ec10       ??$_Move_cat@PAVPass@GPUKernel@brook@@@std@@YA?AU_Undefined_move_tag@0@ABQAVPass@GPUKernel@brook@@@Z 0041fc10 f i brook:gpukernel.obj
 0001:0001ec20       ??$_Iter_random@PAVTechnique@GPUKernel@brook@@PAV123@@std@@YA?AUrandom_access_iterator_tag@0@ABQAVTechnique@GPUKernel@brook@@0@Z 0041fc20 f i brook:gpukernel.obj
 0001:0001ec30       ??$_Ptr_cat@PAVTechnique@GPUKernel@brook@@PAV123@@std@@YA?AU_Nonscalar_ptr_iterator_tag@0@AAPAVTechnique@GPUKernel@brook@@0@Z 0041fc30 f i brook:gpukernel.obj
 0001:0001ec40       ??$_Move_cat@PAVTechnique@GPUKernel@brook@@@std@@YA?AU_Undefined_move_tag@0@ABQAVTechnique@GPUKernel@brook@@@Z 0041fc40 f i brook:gpukernel.obj
 0001:0001ec50       ??$_Destroy_range@PAVGPUStream@brook@@V?$allocator@PAVGPUStream@brook@@@std@@@std@@YAXPAPAVGPUStream@brook@@0AAV?$allocator@PAVGPUStream@brook@@@0@U_Scalar_ptr_iterator_tag@0@@Z 0041fc50 f i brook:gpukernel.obj
 0001:0001ec60       ??$_Fill@PAPAVGPUStream@brook@@PAV12@@std@@YAXPAPAVGPUStream@brook@@0ABQAV12@@Z 0041fc60 f i brook:gpukernel.obj
 0001:0001ec80       ??$_Move_cat@PAPAVGPUStream@brook@@@std@@YA?AU_Undefined_move_tag@0@ABQAPAVGPUStream@brook@@@Z 0041fc80 f i brook:gpukernel.obj
 0001:0001ec90       ??$_Destroy_range@PAVGPUIterator@brook@@V?$allocator@PAVGPUIterator@brook@@@std@@@std@@YAXPAPAVGPUIterator@brook@@0AAV?$allocator@PAVGPUIterator@brook@@@0@U_Scalar_ptr_iterator_tag@0@@Z 0041fc90 f i brook:gpukernel.obj
 0001:0001eca0       ??$_Fill@PAPAVGPUIterator@brook@@PAV12@@std@@YAXPAPAVGPUIterator@brook@@0ABQAV12@@Z 0041fca0 f i brook:gpukernel.obj
 0001:0001ecc0       ??$_Move_cat@PAPAVGPUIterator@brook@@@std@@YA?AU_Undefined_move_tag@0@ABQAPAVGPUIterator@brook@@@Z 0041fcc0 f i brook:gpukernel.obj
 0001:0001ecd0       ??$_Fill@PAUfloat4@@U1@@std@@YAXPAUfloat4@@0ABU1@@Z 0041fcd0 f i brook:gpukernel.obj
 0001:0001ed00       ??$_Move_cat@PAUfloat4@@@std@@YA?AU_Undefined_move_tag@0@ABQAUfloat4@@@Z 0041fd00 f i brook:gpukernel.obj
 0001:0001ed10       ??$_Fill@PAVArgumentInfo@GPUKernel@brook@@V123@@std@@YAXPAVArgumentInfo@GPUKernel@brook@@0ABV123@@Z 0041fd10 f i brook:gpukernel.obj
 0001:0001ed40       ??$_Move_cat@PAVArgumentInfo@GPUKernel@brook@@@std@@YA?AU_Undefined_move_tag@0@ABQAVArgumentInfo@GPUKernel@brook@@@Z 0041fd40 f i brook:gpukernel.obj
 0001:0001ed50       ??$_Fill@PAVReduceArgumentInfo@GPUKernel@brook@@V123@@std@@YAXPAVReduceArgumentInfo@GPUKernel@brook@@0ABV123@@Z 0041fd50 f i brook:gpukernel.obj
 0001:0001ed80       ??$_Move_cat@PAVReduceArgumentInfo@GPUKernel@brook@@@std@@YA?AU_Undefined_move_tag@0@ABQAVReduceArgumentInfo@GPUKernel@brook@@@Z 0041fd80 f i brook:gpukernel.obj
 0001:0001ed90       ??$_Fill@PAUGPUInterpolant@brook@@U12@@std@@YAXPAUGPUInterpolant@brook@@0ABU12@@Z 0041fd90 f i brook:gpukernel.obj
 0001:0001edf0       ??$_Move_cat@PAUGPUInterpolant@brook@@@std@@YA?AU_Undefined_move_tag@0@ABQAUGPUInterpolant@brook@@@Z 0041fdf0 f i brook:gpukernel.obj
 0001:0001ee00       ??8?$_Vector_const_iterator@VInput@GPUKernel@brook@@V?$allocator@VInput@GPUKernel@brook@@@std@@@std@@QBE_NABV01@@Z 0041fe00 f i brook:gpukernel.obj
 0001:0001ee30       ??$_Checked_base@PAPAVGPUStream@brook@@@std@@YAPAPAVGPUStream@brook@@AAPAPAV12@U_Unchanged_checked_iterator_base_type_tag@0@@Z 0041fe30 f i brook:gpukernel.obj
 0001:0001ee40       ??$_Checked_base@PAPAVGPUIterator@brook@@@std@@YAPAPAVGPUIterator@brook@@AAPAPAV12@U_Unchanged_checked_iterator_base_type_tag@0@@Z 0041fe40 f i brook:gpukernel.obj
 0001:0001ee50       ??$_Checked_base@PAUfloat4@@@std@@YAPAUfloat4@@AAPAU1@U_Unchanged_checked_iterator_base_type_tag@0@@Z 0041fe50 f i brook:gpukernel.obj
 0001:0001ee60       ??$_Copy_opt@PAUfloat4@@PAU1@Uforward_iterator_tag@std@@@std@@YAPAUfloat4@@PAU1@00Uforward_iterator_tag@0@U_Nonscalar_ptr_iterator_tag@0@U_Range_checked_iterator_tag@0@@Z 0041fe60 f i brook:gpukernel.obj
 0001:0001ee90       ??$_Checked_base@PAVArgumentInfo@GPUKernel@brook@@@std@@YAPAVArgumentInfo@GPUKernel@brook@@AAPAV123@U_Unchanged_checked_iterator_base_type_tag@0@@Z 0041fe90 f i brook:gpukernel.obj
 0001:0001eea0       ??$_Copy_opt@PAVArgumentInfo@GPUKernel@brook@@PAV123@Uforward_iterator_tag@std@@@std@@YAPAVArgumentInfo@GPUKernel@brook@@PAV123@00Uforward_iterator_tag@0@U_Nonscalar_ptr_iterator_tag@0@U_Range_checked_iterator_tag@0@@Z 0041fea0 f i brook:gpukernel.obj
 0001:0001eed0       ??$_Checked_base@PAVReduceArgumentInfo@GPUKernel@brook@@@std@@YAPAVReduceArgumentInfo@GPUKernel@brook@@AAPAV123@U_Unchanged_checked_iterator_base_type_tag@0@@Z 0041fed0 f i brook:gpukernel.obj
 0001:0001eee0       ??$_Copy_opt@PAVReduceArgumentInfo@GPUKernel@brook@@PAV123@Uforward_iterator_tag@std@@@std@@YAPAVReduceArgumentInfo@GPUKernel@brook@@PAV123@00Uforward_iterator_tag@0@U_Nonscalar_ptr_iterator_tag@0@U_Range_checked_iterator_tag@0@@Z 0041fee0 f i brook:gpukernel.obj
 0001:0001ef10       ??$_Checked_base@PAUGPUInterpolant@brook@@@std@@YAPAUGPUInterpolant@brook@@AAPAU12@U_Unchanged_checked_iterator_base_type_tag@0@@Z 0041ff10 f i brook:gpukernel.obj
 0001:0001ef20       ??$_Copy_opt@PAUGPUInterpolant@brook@@PAU12@Uforward_iterator_tag@std@@@std@@YAPAUGPUInterpolant@brook@@PAU12@00Uforward_iterator_tag@0@U_Nonscalar_ptr_iterator_tag@0@U_Range_checked_iterator_tag@0@@Z 0041ff20 f i brook:gpukernel.obj
 0001:0001ef80       ??$_Checked_base@PAVInput@GPUKernel@brook@@@std@@YAPAVInput@GPUKernel@brook@@AAPAV123@U_Unchanged_checked_iterator_base_type_tag@0@@Z 0041ff80 f i brook:gpukernel.obj
 0001:0001ef90       ??$_Checked_base@PAVPass@GPUKernel@brook@@@std@@YAPAVPass@GPUKernel@brook@@AAPAV123@U_Unchanged_checked_iterator_base_type_tag@0@@Z 0041ff90 f i brook:gpukernel.obj
 0001:0001efa0       ??$_Checked_base@PAVTechnique@GPUKernel@brook@@@std@@YAPAVTechnique@GPUKernel@brook@@AAPAV123@U_Unchanged_checked_iterator_base_type_tag@0@@Z 0041ffa0 f i brook:gpukernel.obj
 0001:0001efb0       ??$_Copy_backward_opt@PAPAVGPUStream@brook@@PAPAV12@Urandom_access_iterator_tag@std@@@std@@YAPAPAVGPUStream@brook@@PAPAV12@00Urandom_access_iterator_tag@0@U_Scalar_ptr_iterator_tag@0@U_Range_checked_iterator_tag@0@@Z 0041ffb0 f i brook:gpukernel.obj
 0001:0001efe0       ??$_Copy_backward_opt@PAPAVGPUIterator@brook@@PAPAV12@Urandom_access_iterator_tag@std@@@std@@YAPAPAVGPUIterator@brook@@PAPAV12@00Urandom_access_iterator_tag@0@U_Scalar_ptr_iterator_tag@0@U_Range_checked_iterator_tag@0@@Z 0041ffe0 f i brook:gpukernel.obj
 0001:0001f010       ??$_Ptr_cat@V?$_Vector_const_iterator@VInput@GPUKernel@brook@@V?$allocator@VInput@GPUKernel@brook@@@std@@@std@@PAVInput@GPUKernel@brook@@@std@@YA?AU_Nonscalar_ptr_iterator_tag@0@AAV?$_Vector_const_iterator@VInput@GPUKernel@brook@@V?$allocator@VInput@GPUKernel@brook@@@std@@@0@AAPAVInput@GPUKernel@brook@@@Z 00420010 f i brook:gpukernel.obj
 0001:0001f020       ??$_Ptr_cat@V?$_Vector_const_iterator@VPass@GPUKernel@brook@@V?$allocator@VPass@GPUKernel@brook@@@std@@@std@@PAVPass@GPUKernel@brook@@@std@@YA?AU_Nonscalar_ptr_iterator_tag@0@AAV?$_Vector_const_iterator@VPass@GPUKernel@brook@@V?$allocator@VPass@GPUKernel@brook@@@std@@@0@AAPAVPass@GPUKernel@brook@@@Z 00420020 f i brook:gpukernel.obj
 0001:0001f030       ??$_Construct@VInput@GPUKernel@brook@@V123@@std@@YAXPAVInput@GPUKernel@brook@@ABV123@@Z 00420030 f i brook:gpukernel.obj
 0001:0001f050       ??$_Destroy@VInput@GPUKernel@brook@@@std@@YAXPAVInput@GPUKernel@brook@@@Z 00420050 f i brook:gpukernel.obj
 0001:0001f060       ??$_Construct@Ufloat4@@U1@@std@@YAXPAUfloat4@@ABU1@@Z 00420060 f i brook:gpukernel.obj
 0001:0001f080       ??$_Destroy@Ufloat4@@@std@@YAXPAUfloat4@@@Z 00420080 f i brook:gpukernel.obj
 0001:0001f090       ??$_Construct@VArgumentInfo@GPUKernel@brook@@V123@@std@@YAXPAVArgumentInfo@GPUKernel@brook@@ABV123@@Z 00420090 f i brook:gpukernel.obj
 0001:0001f0b0       ??$_Destroy@VArgumentInfo@GPUKernel@brook@@@std@@YAXPAVArgumentInfo@GPUKernel@brook@@@Z 004200b0 f i brook:gpukernel.obj
 0001:0001f0c0       ??$_Construct@VReduceArgumentInfo@GPUKernel@brook@@V123@@std@@YAXPAVReduceArgumentInfo@GPUKernel@brook@@ABV123@@Z 004200c0 f i brook:gpukernel.obj
 0001:0001f0e0       ??$_Destroy@VReduceArgumentInfo@GPUKernel@brook@@@std@@YAXPAVReduceArgumentInfo@GPUKernel@brook@@@Z 004200e0 f i brook:gpukernel.obj
 0001:0001f0f0       ??$_Construct@UGPUInterpolant@brook@@U12@@std@@YAXPAUGPUInterpolant@brook@@ABU12@@Z 004200f0 f i brook:gpukernel.obj
 0001:0001f140       ??$_Destroy@UGPUInterpolant@brook@@@std@@YAXPAUGPUInterpolant@brook@@@Z 00420140 f i brook:gpukernel.obj
 0001:0001f150       ??$_Iter_cat@PAPAVGPUStream@brook@@@std@@YA?AUrandom_access_iterator_tag@0@ABQAPAVGPUStream@brook@@@Z 00420150 f i brook:gpukernel.obj
 0001:0001f160       ??$_Iter_cat@PAPAVGPUIterator@brook@@@std@@YA?AUrandom_access_iterator_tag@0@ABQAPAVGPUIterator@brook@@@Z 00420160 f i brook:gpukernel.obj
 0001:0001f170       ??$_Copy_backward_opt@PAVInput@GPUKernel@brook@@PAV123@Uforward_iterator_tag@std@@@std@@YAPAVInput@GPUKernel@brook@@PAV123@00Uforward_iterator_tag@0@U_Nonscalar_ptr_iterator_tag@0@U_Range_checked_iterator_tag@0@@Z 00420170 f i brook:gpukernel.obj
 0001:0001f1a0       ??$_Copy_backward_opt@PAUfloat4@@PAU1@Uforward_iterator_tag@std@@@std@@YAPAUfloat4@@PAU1@00Uforward_iterator_tag@0@U_Nonscalar_ptr_iterator_tag@0@U_Range_checked_iterator_tag@0@@Z 004201a0 f i brook:gpukernel.obj
 0001:0001f1d0       ??$_Copy_backward_opt@PAVArgumentInfo@GPUKernel@brook@@PAV123@Uforward_iterator_tag@std@@@std@@YAPAVArgumentInfo@GPUKernel@brook@@PAV123@00Uforward_iterator_tag@0@U_Nonscalar_ptr_iterator_tag@0@U_Range_checked_iterator_tag@0@@Z 004201d0 f i brook:gpukernel.obj
 0001:0001f200       ??$_Copy_backward_opt@PAVReduceArgumentInfo@GPUKernel@brook@@PAV123@Uforward_iterator_tag@std@@@std@@YAPAVReduceArgumentInfo@GPUKernel@brook@@PAV123@00Uforward_iterator_tag@0@U_Nonscalar_ptr_iterator_tag@0@U_Range_checked_iterator_tag@0@@Z 00420200 f i brook:gpukernel.obj
 0001:0001f230       ??$_Copy_backward_opt@PAUGPUInterpolant@brook@@PAU12@Uforward_iterator_tag@std@@@std@@YAPAUGPUInterpolant@brook@@PAU12@00Uforward_iterator_tag@0@U_Nonscalar_ptr_iterator_tag@0@U_Range_checked_iterator_tag@0@@Z 00420230 f i brook:gpukernel.obj
 0001:0001f290       ?_Checked_iterator_base@?$_Vector_const_iterator@VPass@GPUKernel@brook@@V?$allocator@VPass@GPUKernel@brook@@@std@@@std@@QBEPBVPass@GPUKernel@brook@@XZ 00420290 f i brook:gpukernel.obj
 0001:0001f2a0       ?_Checked_iterator_base@?$_Vector_const_iterator@VInput@GPUKernel@brook@@V?$allocator@VInput@GPUKernel@brook@@@std@@@std@@QBEPBVInput@GPUKernel@brook@@XZ 004202a0 f i brook:gpukernel.obj
 0001:0001f2b0       ??$_Fill_n@PAPAVGPUStream@brook@@IPAV12@@std@@YAXPAPAVGPUStream@brook@@IABQAV12@U_Range_checked_iterator_tag@0@@Z 004202b0 f i brook:gpukernel.obj
 0001:0001f2e0       ??$_Fill_n@PAPAVGPUIterator@brook@@IPAV12@@std@@YAXPAPAVGPUIterator@brook@@IABQAV12@U_Range_checked_iterator_tag@0@@Z 004202e0 f i brook:gpukernel.obj
 0001:0001f310       ??$_Uninit_copy@PAPAVGPUStream@brook@@PAPAV12@V?$allocator@PAVGPUStream@brook@@@std@@@std@@YAPAPAVGPUStream@brook@@PAPAV12@00AAV?$allocator@PAVGPUStream@brook@@@0@U_Scalar_ptr_iterator_tag@0@U_Range_checked_iterator_tag@0@@Z 00420310 f i brook:gpukernel.obj
 0001:0001f340       ??$_Uninit_copy@PAPAVGPUIterator@brook@@PAPAV12@V?$allocator@PAVGPUIterator@brook@@@std@@@std@@YAPAPAVGPUIterator@brook@@PAPAV12@00AAV?$allocator@PAVGPUIterator@brook@@@0@U_Scalar_ptr_iterator_tag@0@U_Range_checked_iterator_tag@0@@Z 00420340 f i brook:gpukernel.obj
 0001:0001f370       ??$_Copy_opt@PAVInput@GPUKernel@brook@@PAV123@Uforward_iterator_tag@std@@@std@@YAPAVInput@GPUKernel@brook@@PAV123@00Uforward_iterator_tag@0@U_Nonscalar_ptr_iterator_tag@0@U_Range_checked_iterator_tag@0@@Z 00420370 f i brook:gpukernel.obj
 0001:0001f3a0       ??0StreamArgumentType@GPUKernel@brook@@QAE@XZ 004203a0 f i brook:gpukernel.obj
 0001:0001f3b0       ??1StreamArgumentType@GPUKernel@brook@@UAE@XZ 004203b0 f i brook:gpukernel.obj
 0001:0001f3c0       ??_GStreamArgumentType@GPUKernel@brook@@UAEPAXI@Z 004203c0 f i brook:gpukernel.obj
 0001:0001f3c0       ??_EStreamArgumentType@GPUKernel@brook@@UAEPAXI@Z 004203c0 f i brook:gpukernel.obj
 0001:0001f3e0       ??_GIteratorArgumentType@GPUKernel@brook@@UAEPAXI@Z 004203e0 f i brook:gpukernel.obj
 0001:0001f3e0       ??_EIteratorArgumentType@GPUKernel@brook@@UAEPAXI@Z 004203e0 f i brook:gpukernel.obj
 0001:0001f400       ??_EConstantArgumentType@GPUKernel@brook@@UAEPAXI@Z 00420400 f i brook:gpukernel.obj
 0001:0001f400       ??_GConstantArgumentType@GPUKernel@brook@@UAEPAXI@Z 00420400 f i brook:gpukernel.obj
 0001:0001f420       ??_GGatherArgumentType@GPUKernel@brook@@UAEPAXI@Z 00420420 f i brook:gpukernel.obj
 0001:0001f420       ??_EGatherArgumentType@GPUKernel@brook@@UAEPAXI@Z 00420420 f i brook:gpukernel.obj
 0001:0001f440       ??_GOutputArgumentType@GPUKernel@brook@@UAEPAXI@Z 00420440 f i brook:gpukernel.obj
 0001:0001f440       ??_EOutputArgumentType@GPUKernel@brook@@UAEPAXI@Z 00420440 f i brook:gpukernel.obj
 0001:0001f460       ??_EReduceArgumentType@GPUKernel@brook@@UAEPAXI@Z 00420460 f i brook:gpukernel.obj
 0001:0001f460       ??_GReduceArgumentType@GPUKernel@brook@@UAEPAXI@Z 00420460 f i brook:gpukernel.obj
 0001:0001f480       ?getTexture@StreamArgumentType@GPUKernel@brook@@UAEPAXPAV23@II@Z 00420480 f   brook:gpukernel.obj
 0001:0001f4f0       ?getInterpolant@IteratorArgumentType@GPUKernel@brook@@UAEXPAV23@IIAAUGPUInterpolant@3@@Z 004204f0 f   brook:gpukernel.obj
 0001:0001f540       ?getConstant@ConstantArgumentType@GPUKernel@brook@@UAE?AUfloat4@@PAV23@II@Z 00420540 f   brook:gpukernel.obj
 0001:0001f590       ?getTexture@GatherArgumentType@GPUKernel@brook@@UAEPAXPAV23@II@Z 00420590 f   brook:gpukernel.obj
 0001:0001f600       ?getTexture@OutputArgumentType@GPUKernel@brook@@UAEPAXPAV23@II@Z 00420600 f   brook:gpukernel.obj
 0001:0001f670       ?begin@?$vector@VPass@GPUKernel@brook@@V?$allocator@VPass@GPUKernel@brook@@@std@@@std@@QBE?AV?$_Vector_const_iterator@VPass@GPUKernel@brook@@V?$allocator@VPass@GPUKernel@brook@@@std@@@2@XZ 00420670 f i brook:gpukernel.obj
 0001:0001f6a0       ?end@?$vector@VPass@GPUKernel@brook@@V?$allocator@VPass@GPUKernel@brook@@@std@@@std@@QBE?AV?$_Vector_const_iterator@VPass@GPUKernel@brook@@V?$allocator@VPass@GPUKernel@brook@@@std@@@2@XZ 004206a0 f i brook:gpukernel.obj
 0001:0001f6d0       ??A?$vector@VArgumentInfo@GPUKernel@brook@@V?$allocator@VArgumentInfo@GPUKernel@brook@@@std@@@std@@QAEAAVArgumentInfo@GPUKernel@brook@@I@Z 004206d0 f i brook:gpukernel.obj
 0001:0001f700       ??A?$vector@IV?$allocator@I@std@@@std@@QBEABII@Z 00420700 f i brook:gpukernel.obj
 0001:0001f730       ??9?$_Vector_const_iterator@Vgpu_technique_desc@desc@brook@@V?$allocator@Vgpu_technique_desc@desc@brook@@@std@@@std@@QBE_NABV01@@Z 00420730 f i brook:gpukernel.obj
 0001:0001f760       ??D?$_Vector_iterator@VTechnique@GPUKernel@brook@@V?$allocator@VTechnique@GPUKernel@brook@@@std@@@std@@QBEAAVTechnique@GPUKernel@brook@@XZ 00420760 f i brook:gpukernel.obj
 0001:0001f790       ??E?$_Vector_iterator@VTechnique@GPUKernel@brook@@V?$allocator@VTechnique@GPUKernel@brook@@@std@@@std@@QAEAAV01@XZ 00420790 f i brook:gpukernel.obj
 0001:0001f7c0       ??D?$_Vector_iterator@VPass@GPUKernel@brook@@V?$allocator@VPass@GPUKernel@brook@@@std@@@std@@QBEAAVPass@GPUKernel@brook@@XZ 004207c0 f i brook:gpukernel.obj
 0001:0001f7f0       ??E?$_Vector_iterator@VPass@GPUKernel@brook@@V?$allocator@VPass@GPUKernel@brook@@@std@@@std@@QAEAAV01@XZ 004207f0 f i brook:gpukernel.obj
 0001:0001f820       ??0?$_Vector_const_iterator@VPass@GPUKernel@brook@@V?$allocator@VPass@GPUKernel@brook@@@std@@@std@@QAE@XZ 00420820 f i brook:gpukernel.obj
 0001:0001f830       ??E?$_Vector_const_iterator@VPass@GPUKernel@brook@@V?$allocator@VPass@GPUKernel@brook@@@std@@@std@@QAE?AV01@H@Z 00420830 f i brook:gpukernel.obj
 0001:0001f870       ??9?$_Vector_const_iterator@VPass@GPUKernel@brook@@V?$allocator@VPass@GPUKernel@brook@@@std@@@std@@QBE_NABV01@@Z 00420870 f i brook:gpukernel.obj
 0001:0001f8a0       ??0?$_Vector_const_iterator@Vgpu_input_desc@desc@brook@@V?$allocator@Vgpu_input_desc@desc@brook@@@std@@@std@@QAE@XZ 004208a0 f i brook:gpukernel.obj
 0001:0001f8b0       ??E?$_Vector_const_iterator@Vgpu_input_desc@desc@brook@@V?$allocator@Vgpu_input_desc@desc@brook@@@std@@@std@@QAE?AV01@H@Z 004208b0 f i brook:gpukernel.obj
 0001:0001f8f0       ??0?$_Vector_val@VTechnique@GPUKernel@brook@@V?$allocator@VTechnique@GPUKernel@brook@@@std@@@std@@IAE@V?$allocator@VTechnique@GPUKernel@brook@@@1@@Z 004208f0 f i brook:gpukernel.obj
 0001:0001f900       ??0?$_Vector_val@PAVGPUStream@brook@@V?$allocator@PAVGPUStream@brook@@@std@@@std@@IAE@V?$allocator@PAVGPUStream@brook@@@1@@Z 00420900 f i brook:gpukernel.obj
 0001:0001f910       ??0?$_Vector_val@PAVGPUIterator@brook@@V?$allocator@PAVGPUIterator@brook@@@std@@@std@@IAE@V?$allocator@PAVGPUIterator@brook@@@1@@Z 00420910 f i brook:gpukernel.obj
 0001:0001f920       ??0?$_Vector_val@Ufloat4@@V?$allocator@Ufloat4@@@std@@@std@@IAE@V?$allocator@Ufloat4@@@1@@Z 00420920 f i brook:gpukernel.obj
 0001:0001f930       ??0?$_Vector_val@VArgumentInfo@GPUKernel@brook@@V?$allocator@VArgumentInfo@GPUKernel@brook@@@std@@@std@@IAE@V?$allocator@VArgumentInfo@GPUKernel@brook@@@1@@Z 00420930 f i brook:gpukernel.obj
 0001:0001f940       ??0?$_Vector_val@VReduceArgumentInfo@GPUKernel@brook@@V?$allocator@VReduceArgumentInfo@GPUKernel@brook@@@std@@@std@@IAE@V?$allocator@VReduceArgumentInfo@GPUKernel@brook@@@1@@Z 00420940 f i brook:gpukernel.obj
 0001:0001f950       ??0?$_Vector_val@UGPUInterpolant@brook@@V?$allocator@UGPUInterpolant@brook@@@std@@@std@@IAE@V?$allocator@UGPUInterpolant@brook@@@1@@Z 00420950 f i brook:gpukernel.obj
 0001:0001f960       ??0?$_Vector_iterator@VPass@GPUKernel@brook@@V?$allocator@VPass@GPUKernel@brook@@@std@@@std@@QAE@PAVPass@GPUKernel@brook@@PBU_Container_base@1@@Z 00420960 f i brook:gpukernel.obj
 0001:0001f9a0       ??0?$_Vector_val@VInput@GPUKernel@brook@@V?$allocator@VInput@GPUKernel@brook@@@std@@@std@@IAE@V?$allocator@VInput@GPUKernel@brook@@@1@@Z 004209a0 f i brook:gpukernel.obj
 0001:0001f9b0       ?end@?$vector@VPass@GPUKernel@brook@@V?$allocator@VPass@GPUKernel@brook@@@std@@@std@@QAE?AV?$_Vector_iterator@VPass@GPUKernel@brook@@V?$allocator@VPass@GPUKernel@brook@@@std@@@2@XZ 004209b0 f i brook:gpukernel.obj
 0001:0001f9e0       ??0?$_Vector_val@VPass@GPUKernel@brook@@V?$allocator@VPass@GPUKernel@brook@@@std@@@std@@IAE@V?$allocator@VPass@GPUKernel@brook@@@1@@Z 004209e0 f i brook:gpukernel.obj
 0001:0001f9f0       ?max_size@?$vector@VTechnique@GPUKernel@brook@@V?$allocator@VTechnique@GPUKernel@brook@@@std@@@std@@QBEIXZ 004209f0 f i brook:gpukernel.obj
 0001:0001fa00       ?allocate@?$allocator@VTechnique@GPUKernel@brook@@@std@@QAEPAVTechnique@GPUKernel@brook@@I@Z 00420a00 f i brook:gpukernel.obj
 0001:0001fa20       ?max_size@?$vector@PAVGPUStream@brook@@V?$allocator@PAVGPUStream@brook@@@std@@@std@@QBEIXZ 00420a20 f i brook:gpukernel.obj
 0001:0001fa30       ?allocate@?$allocator@PAVGPUStream@brook@@@std@@QAEPAPAVGPUStream@brook@@I@Z 00420a30 f i brook:gpukernel.obj
 0001:0001fa50       ?max_size@?$vector@PAVGPUIterator@brook@@V?$allocator@PAVGPUIterator@brook@@@std@@@std@@QBEIXZ 00420a50 f i brook:gpukernel.obj
 0001:0001fa60       ?allocate@?$allocator@PAVGPUIterator@brook@@@std@@QAEPAPAVGPUIterator@brook@@I@Z 00420a60 f i brook:gpukernel.obj
 0001:0001fa80       ?max_size@?$vector@Ufloat4@@V?$allocator@Ufloat4@@@std@@@std@@QBEIXZ 00420a80 f i brook:gpukernel.obj
 0001:0001fa90       ?allocate@?$allocator@Ufloat4@@@std@@QAEPAUfloat4@@I@Z 00420a90 f i brook:gpukernel.obj
 0001:0001fab0       ?max_size@?$vector@VArgumentInfo@GPUKernel@brook@@V?$allocator@VArgumentInfo@GPUKernel@brook@@@std@@@std@@QBEIXZ 00420ab0 f i brook:gpukernel.obj
 0001:0001fac0       ?allocate@?$allocator@VArgumentInfo@GPUKernel@brook@@@std@@QAEPAVArgumentInfo@GPUKernel@brook@@I@Z 00420ac0 f i brook:gpukernel.obj
 0001:0001fae0       ?max_size@?$vector@VReduceArgumentInfo@GPUKernel@brook@@V?$allocator@VReduceArgumentInfo@GPUKernel@brook@@@std@@@std@@QBEIXZ 00420ae0 f i brook:gpukernel.obj
 0001:0001faf0       ?allocate@?$allocator@VReduceArgumentInfo@GPUKernel@brook@@@std@@QAEPAVReduceArgumentInfo@GPUKernel@brook@@I@Z 00420af0 f i brook:gpukernel.obj
 0001:0001fb10       ?max_size@?$vector@UGPUInterpolant@brook@@V?$allocator@UGPUInterpolant@brook@@@std@@@std@@QBEIXZ 00420b10 f i brook:gpukernel.obj
 0001:0001fb20       ?allocate@?$allocator@UGPUInterpolant@brook@@@std@@QAEPAUGPUInterpolant@brook@@I@Z 00420b20 f i brook:gpukernel.obj
 0001:0001fb40       ??0?$_Vector_const_iterator@VTechnique@GPUKernel@brook@@V?$allocator@VTechnique@GPUKernel@brook@@@std@@@std@@QAE@PAVTechnique@GPUKernel@brook@@PBU_Container_base@1@@Z 00420b40 f i brook:gpukernel.obj
 0001:0001fb80       ??G?$_Vector_iterator@VInput@GPUKernel@brook@@V?$allocator@VInput@GPUKernel@brook@@@std@@@std@@QBEHABV?$_Vector_const_iterator@VInput@GPUKernel@brook@@V?$allocator@VInput@GPUKernel@brook@@@std@@@1@@Z 00420b80 f i brook:gpukernel.obj
 0001:0001fbb0       ??G?$_Vector_iterator@PAVGPUStream@brook@@V?$allocator@PAVGPUStream@brook@@@std@@@std@@QBEHABV?$_Vector_const_iterator@PAVGPUStream@brook@@V?$allocator@PAVGPUStream@brook@@@std@@@1@@Z 00420bb0 f i brook:gpukernel.obj
 0001:0001fbe0       ??9?$_Vector_const_iterator@PAVGPUStream@brook@@V?$allocator@PAVGPUStream@brook@@@std@@@std@@QBE_NABV01@@Z 00420be0 f i brook:gpukernel.obj
 0001:0001fc10       ??G?$_Vector_iterator@PAVGPUIterator@brook@@V?$allocator@PAVGPUIterator@brook@@@std@@@std@@QBEHABV?$_Vector_const_iterator@PAVGPUIterator@brook@@V?$allocator@PAVGPUIterator@brook@@@std@@@1@@Z 00420c10 f i brook:gpukernel.obj
 0001:0001fc40       ??9?$_Vector_const_iterator@PAVGPUIterator@brook@@V?$allocator@PAVGPUIterator@brook@@@std@@@std@@QBE_NABV01@@Z 00420c40 f i brook:gpukernel.obj
 0001:0001fc70       ??G?$_Vector_iterator@Ufloat4@@V?$allocator@Ufloat4@@@std@@@std@@QBEHABV?$_Vector_const_iterator@Ufloat4@@V?$allocator@Ufloat4@@@std@@@1@@Z 00420c70 f i brook:gpukernel.obj
 0001:0001fca0       ??9?$_Vector_const_iterator@Ufloat4@@V?$allocator@Ufloat4@@@std@@@std@@QBE_NABV01@@Z 00420ca0 f i brook:gpukernel.obj
 0001:0001fcd0       ??G?$_Vector_iterator@VArgumentInfo@GPUKernel@brook@@V?$allocator@VArgumentInfo@GPUKernel@brook@@@std@@@std@@QBEHABV?$_Vector_const_iterator@VArgumentInfo@GPUKernel@brook@@V?$allocator@VArgumentInfo@GPUKernel@brook@@@std@@@1@@Z 00420cd0 f i brook:gpukernel.obj
 0001:0001fd00       ??9?$_Vector_const_iterator@VArgumentInfo@GPUKernel@brook@@V?$allocator@VArgumentInfo@GPUKernel@brook@@@std@@@std@@QBE_NABV01@@Z 00420d00 f i brook:gpukernel.obj
 0001:0001fd30       ??G?$_Vector_iterator@VReduceArgumentInfo@GPUKernel@brook@@V?$allocator@VReduceArgumentInfo@GPUKernel@brook@@@std@@@std@@QBEHABV?$_Vector_const_iterator@VReduceArgumentInfo@GPUKernel@brook@@V?$allocator@VReduceArgumentInfo@GPUKernel@brook@@@std@@@1@@Z 00420d30 f i brook:gpukernel.obj
 0001:0001fd60       ??9?$_Vector_const_iterator@VReduceArgumentInfo@GPUKernel@brook@@V?$allocator@VReduceArgumentInfo@GPUKernel@brook@@@std@@@std@@QBE_NABV01@@Z 00420d60 f i brook:gpukernel.obj
 0001:0001fd90       ??G?$_Vector_iterator@UGPUInterpolant@brook@@V?$allocator@UGPUInterpolant@brook@@@std@@@std@@QBEHABV?$_Vector_const_iterator@UGPUInterpolant@brook@@V?$allocator@UGPUInterpolant@brook@@@std@@@1@@Z 00420d90 f i brook:gpukernel.obj
 0001:0001fdd0       ??9?$_Vector_const_iterator@UGPUInterpolant@brook@@V?$allocator@UGPUInterpolant@brook@@@std@@@std@@QBE_NABV01@@Z 00420dd0 f i brook:gpukernel.obj
 0001:0001fe00       ?max_size@?$vector@VInput@GPUKernel@brook@@V?$allocator@VInput@GPUKernel@brook@@@std@@@std@@QBEIXZ 00420e00 f i brook:gpukernel.obj
 0001:0001fe10       ?allocate@?$allocator@VInput@GPUKernel@brook@@@std@@QAEPAVInput@GPUKernel@brook@@I@Z 00420e10 f i brook:gpukernel.obj
 0001:0001fe30       ?max_size@?$vector@VPass@GPUKernel@brook@@V?$allocator@VPass@GPUKernel@brook@@@std@@@std@@QBEIXZ 00420e30 f i brook:gpukernel.obj
 0001:0001fe40       ?allocate@?$allocator@VPass@GPUKernel@brook@@@std@@QAEPAVPass@GPUKernel@brook@@I@Z 00420e40 f i brook:gpukernel.obj
 0001:0001fe60       ??Y?$_Vector_iterator@VTechnique@GPUKernel@brook@@V?$allocator@VTechnique@GPUKernel@brook@@@std@@@std@@QAEAAV01@H@Z 00420e60 f i brook:gpukernel.obj
 0001:0001fea0       ??9?$_Vector_const_iterator@VTechnique@GPUKernel@brook@@V?$allocator@VTechnique@GPUKernel@brook@@@std@@@std@@QBE_NABV01@@Z 00420ea0 f i brook:gpukernel.obj
 0001:0001fed0       ??Y?$_Vector_iterator@VPass@GPUKernel@brook@@V?$allocator@VPass@GPUKernel@brook@@@std@@@std@@QAEAAV01@H@Z 00420ed0 f i brook:gpukernel.obj
 0001:0001ff10       ??Y?$_Vector_iterator@VInput@GPUKernel@brook@@V?$allocator@VInput@GPUKernel@brook@@@std@@@std@@QAEAAV01@H@Z 00420f10 f i brook:gpukernel.obj
 0001:0001ff50       ??0?$_Vector_const_iterator@VInput@GPUKernel@brook@@V?$allocator@VInput@GPUKernel@brook@@@std@@@std@@QAE@PAVInput@GPUKernel@brook@@PBU_Container_base@1@@Z 00420f50 f i brook:gpukernel.obj
 0001:0001ff90       ??Y?$_Vector_iterator@PAVGPUStream@brook@@V?$allocator@PAVGPUStream@brook@@@std@@@std@@QAEAAV01@H@Z 00420f90 f i brook:gpukernel.obj
 0001:0001ffd0       ??0?$_Vector_const_iterator@PAVGPUStream@brook@@V?$allocator@PAVGPUStream@brook@@@std@@@std@@QAE@PAPAVGPUStream@brook@@PBU_Container_base@1@@Z 00420fd0 f i brook:gpukernel.obj
 0001:00020010       ??Y?$_Vector_iterator@PAVGPUIterator@brook@@V?$allocator@PAVGPUIterator@brook@@@std@@@std@@QAEAAV01@H@Z 00421010 f i brook:gpukernel.obj
 0001:00020050       ??0?$_Vector_const_iterator@PAVGPUIterator@brook@@V?$allocator@PAVGPUIterator@brook@@@std@@@std@@QAE@PAPAVGPUIterator@brook@@PBU_Container_base@1@@Z 00421050 f i brook:gpukernel.obj
 0001:00020090       ??Y?$_Vector_iterator@Ufloat4@@V?$allocator@Ufloat4@@@std@@@std@@QAEAAV01@H@Z 00421090 f i brook:gpukernel.obj
 0001:000200d0       ??0?$_Vector_const_iterator@Ufloat4@@V?$allocator@Ufloat4@@@std@@@std@@QAE@PAUfloat4@@PBU_Container_base@1@@Z 004210d0 f i brook:gpukernel.obj
 0001:00020110       ??Y?$_Vector_iterator@VArgumentInfo@GPUKernel@brook@@V?$allocator@VArgumentInfo@GPUKernel@brook@@@std@@@std@@QAEAAV01@H@Z 00421110 f i brook:gpukernel.obj
 0001:00020150       ??0?$_Vector_const_iterator@VArgumentInfo@GPUKernel@brook@@V?$allocator@VArgumentInfo@GPUKernel@brook@@@std@@@std@@QAE@PAVArgumentInfo@GPUKernel@brook@@PBU_Container_base@1@@Z 00421150 f i brook:gpukernel.obj
 0001:00020190       ??Y?$_Vector_iterator@VReduceArgumentInfo@GPUKernel@brook@@V?$allocator@VReduceArgumentInfo@GPUKernel@brook@@@std@@@std@@QAEAAV01@H@Z 00421190 f i brook:gpukernel.obj
 0001:000201d0       ??0?$_Vector_const_iterator@VReduceArgumentInfo@GPUKernel@brook@@V?$allocator@VReduceArgumentInfo@GPUKernel@brook@@@std@@@std@@QAE@PAVReduceArgumentInfo@GPUKernel@brook@@PBU_Container_base@1@@Z 004211d0 f i brook:gpukernel.obj
 0001:00020210       ??Y?$_Vector_iterator@UGPUInterpolant@brook@@V?$allocator@UGPUInterpolant@brook@@@std@@@std@@QAEAAV01@H@Z 00421210 f i brook:gpukernel.obj
 0001:00020250       ??0?$_Vector_const_iterator@UGPUInterpolant@brook@@V?$allocator@UGPUInterpolant@brook@@@std@@@std@@QAE@PAUGPUInterpolant@brook@@PBU_Container_base@1@@Z 00421250 f i brook:gpukernel.obj
 0001:00020290       ?begin@?$vector@VInput@GPUKernel@brook@@V?$allocator@VInput@GPUKernel@brook@@@std@@@std@@QBE?AV?$_Vector_const_iterator@VInput@GPUKernel@brook@@V?$allocator@VInput@GPUKernel@brook@@@std@@@2@XZ 00421290 f i brook:gpukernel.obj
 0001:000202c0       ?end@?$vector@VInput@GPUKernel@brook@@V?$allocator@VInput@GPUKernel@brook@@@std@@@std@@QBE?AV?$_Vector_const_iterator@VInput@GPUKernel@brook@@V?$allocator@VInput@GPUKernel@brook@@@std@@@2@XZ 004212c0 f i brook:gpukernel.obj
 0001:000202f0       ??$_Destroy_range@PAVGPUStream@brook@@V?$allocator@PAVGPUStream@brook@@@std@@@std@@YAXPAPAVGPUStream@brook@@0AAV?$allocator@PAVGPUStream@brook@@@0@@Z 004212f0 f i brook:gpukernel.obj
 0001:00020300       ??$_Destroy_range@PAVGPUIterator@brook@@V?$allocator@PAVGPUIterator@brook@@@std@@@std@@YAXPAPAVGPUIterator@brook@@0AAV?$allocator@PAVGPUIterator@brook@@@0@@Z 00421300 f i brook:gpukernel.obj
 0001:00020310       ??$_Checked_base@PAPAVGPUStream@brook@@@std@@YAPAPAVGPUStream@brook@@AAPAPAV12@@Z 00421310 f i brook:gpukernel.obj
 0001:00020320       ??$_Checked_base@PAPAVGPUIterator@brook@@@std@@YAPAPAVGPUIterator@brook@@AAPAPAV12@@Z 00421320 f i brook:gpukernel.obj
 0001:00020330       ??$_Checked_base@PAUfloat4@@@std@@YAPAUfloat4@@AAPAU1@@Z 00421330 f i brook:gpukernel.obj
 0001:00020340       ??$_Copy_opt@PAUfloat4@@PAU1@@std@@YAPAUfloat4@@PAU1@00Urandom_access_iterator_tag@0@U_Nonscalar_ptr_iterator_tag@0@U_Range_checked_iterator_tag@0@@Z 00421340 f i brook:gpukernel.obj
 0001:00020380       ??$_Checked_base@PAVArgumentInfo@GPUKernel@brook@@@std@@YAPAVArgumentInfo@GPUKernel@brook@@AAPAV123@@Z 00421380 f i brook:gpukernel.obj
 0001:00020390       ??$_Copy_opt@PAVArgumentInfo@GPUKernel@brook@@PAV123@@std@@YAPAVArgumentInfo@GPUKernel@brook@@PAV123@00Urandom_access_iterator_tag@0@U_Nonscalar_ptr_iterator_tag@0@U_Range_checked_iterator_tag@0@@Z 00421390 f i brook:gpukernel.obj
 0001:000203d0       ??$_Checked_base@PAVReduceArgumentInfo@GPUKernel@brook@@@std@@YAPAVReduceArgumentInfo@GPUKernel@brook@@AAPAV123@@Z 004213d0 f i brook:gpukernel.obj
 0001:000203e0       ??$_Copy_opt@PAVReduceArgumentInfo@GPUKernel@brook@@PAV123@@std@@YAPAVReduceArgumentInfo@GPUKernel@brook@@PAV123@00Urandom_access_iterator_tag@0@U_Nonscalar_ptr_iterator_tag@0@U_Range_checked_iterator_tag@0@@Z 004213e0 f i brook:gpukernel.obj
 0001:00020420       ??$_Checked_base@PAUGPUInterpolant@brook@@@std@@YAPAUGPUInterpolant@brook@@AAPAU12@@Z 00421420 f i brook:gpukernel.obj
 0001:00020430       ??$_Copy_opt@PAUGPUInterpolant@brook@@PAU12@@std@@YAPAUGPUInterpolant@brook@@PAU12@00Urandom_access_iterator_tag@0@U_Nonscalar_ptr_iterator_tag@0@U_Range_checked_iterator_tag@0@@Z 00421430 f i brook:gpukernel.obj
 0001:00020490       ??$_Checked_base@PAVInput@GPUKernel@brook@@@std@@YAPAVInput@GPUKernel@brook@@AAPAV123@@Z 00421490 f i brook:gpukernel.obj
 0001:000204a0       ??$_Checked_base@PAVPass@GPUKernel@brook@@@std@@YAPAVPass@GPUKernel@brook@@AAPAV123@@Z 004214a0 f i brook:gpukernel.obj
 0001:000204b0       ??$_Checked_base@PAVTechnique@GPUKernel@brook@@@std@@YAPAVTechnique@GPUKernel@brook@@AAPAV123@@Z 004214b0 f i brook:gpukernel.obj
 0001:000204c0       ??$_Move_backward_opt@PAPAVGPUStream@brook@@PAPAV12@Urandom_access_iterator_tag@std@@U_Undefined_move_tag@4@@std@@YAPAPAVGPUStream@brook@@PAPAV12@00Urandom_access_iterator_tag@0@U_Undefined_move_tag@0@U_Range_checked_iterator_tag@0@@Z 004214c0 f i brook:gpukernel.obj
 0001:000204f0       ??$_Move_backward_opt@PAPAVGPUIterator@brook@@PAPAV12@Urandom_access_iterator_tag@std@@U_Undefined_move_tag@4@@std@@YAPAPAVGPUIterator@brook@@PAPAV12@00Urandom_access_iterator_tag@0@U_Undefined_move_tag@0@U_Range_checked_iterator_tag@0@@Z 004214f0 f i brook:gpukernel.obj
 0001:00020520       ?construct@?$allocator@VInput@GPUKernel@brook@@@std@@QAEXPAVInput@GPUKernel@brook@@ABV345@@Z 00421520 f i brook:gpukernel.obj
 0001:00020540       ?destroy@?$allocator@VInput@GPUKernel@brook@@@std@@QAEXPAVInput@GPUKernel@brook@@@Z 00421540 f i brook:gpukernel.obj
 0001:00020550       ?construct@?$allocator@Ufloat4@@@std@@QAEXPAUfloat4@@ABU3@@Z 00421550 f i brook:gpukernel.obj
 0001:00020580       ?destroy@?$allocator@Ufloat4@@@std@@QAEXPAUfloat4@@@Z 00421580 f i brook:gpukernel.obj
 0001:00020590       ?construct@?$allocator@VArgumentInfo@GPUKernel@brook@@@std@@QAEXPAVArgumentInfo@GPUKernel@brook@@ABV345@@Z 00421590 f i brook:gpukernel.obj
 0001:000205b0       ?destroy@?$allocator@VArgumentInfo@GPUKernel@brook@@@std@@QAEXPAVArgumentInfo@GPUKernel@brook@@@Z 004215b0 f i brook:gpukernel.obj
 0001:000205c0       ?construct@?$allocator@VReduceArgumentInfo@GPUKernel@brook@@@std@@QAEXPAVReduceArgumentInfo@GPUKernel@brook@@ABV345@@Z 004215c0 f i brook:gpukernel.obj
 0001:000205e0       ?destroy@?$allocator@VReduceArgumentInfo@GPUKernel@brook@@@std@@QAEXPAVReduceArgumentInfo@GPUKernel@brook@@@Z 004215e0 f i brook:gpukernel.obj
 0001:000205f0       ?construct@?$allocator@UGPUInterpolant@brook@@@std@@QAEXPAUGPUInterpolant@brook@@ABU34@@Z 004215f0 f i brook:gpukernel.obj
 0001:00020640       ?destroy@?$allocator@UGPUInterpolant@brook@@@std@@QAEXPAUGPUInterpolant@brook@@@Z 00421640 f i brook:gpukernel.obj
 0001:00020650       ??9?$_Vector_const_iterator@VInput@GPUKernel@brook@@V?$allocator@VInput@GPUKernel@brook@@@std@@@std@@QBE_NABV01@@Z 00421650 f i brook:gpukernel.obj
 0001:00020680       ??$_Copy_backward_opt@PAVInput@GPUKernel@brook@@PAV123@@std@@YAPAVInput@GPUKernel@brook@@PAV123@00Urandom_access_iterator_tag@0@U_Nonscalar_ptr_iterator_tag@0@U_Range_checked_iterator_tag@0@@Z 00421680 f i brook:gpukernel.obj
 0001:000206c0       ??$_Copy_backward_opt@PAUfloat4@@PAU1@@std@@YAPAUfloat4@@PAU1@00Urandom_access_iterator_tag@0@U_Nonscalar_ptr_iterator_tag@0@U_Range_checked_iterator_tag@0@@Z 004216c0 f i brook:gpukernel.obj
 0001:00020710       ??$_Copy_backward_opt@PAVArgumentInfo@GPUKernel@brook@@PAV123@@std@@YAPAVArgumentInfo@GPUKernel@brook@@PAV123@00Urandom_access_iterator_tag@0@U_Nonscalar_ptr_iterator_tag@0@U_Range_checked_iterator_tag@0@@Z 00421710 f i brook:gpukernel.obj
 0001:00020750       ??$_Copy_backward_opt@PAVReduceArgumentInfo@GPUKernel@brook@@PAV123@@std@@YAPAVReduceArgumentInfo@GPUKernel@brook@@PAV123@00Urandom_access_iterator_tag@0@U_Nonscalar_ptr_iterator_tag@0@U_Range_checked_iterator_tag@0@@Z 00421750 f i brook:gpukernel.obj
 0001:00020790       ??$_Copy_backward_opt@PAUGPUInterpolant@brook@@PAU12@@std@@YAPAUGPUInterpolant@brook@@PAU12@00Urandom_access_iterator_tag@0@U_Nonscalar_ptr_iterator_tag@0@U_Range_checked_iterator_tag@0@@Z 00421790 f i brook:gpukernel.obj
 0001:000207f0       ??$_Uninit_copy@PBVInput@GPUKernel@brook@@PAV123@V?$allocator@VInput@GPUKernel@brook@@@std@@@std@@YAPAVInput@GPUKernel@brook@@PBV123@0PAV123@AAV?$allocator@VInput@GPUKernel@brook@@@0@U_Nonscalar_ptr_iterator_tag@0@U_Range_checked_iterator_tag@0@@Z 004217f0 f i brook:gpukernel.obj
 0001:00020820       ??$_Fill_n@PAPAVGPUStream@brook@@IPAV12@@std@@YAXPAPAVGPUStream@brook@@IABQAV12@Urandom_access_iterator_tag@0@U_Range_checked_iterator_tag@0@@Z 00421820 f i brook:gpukernel.obj
 0001:00020850       ??$_Fill_n@PAPAVGPUIterator@brook@@IPAV12@@std@@YAXPAPAVGPUIterator@brook@@IABQAV12@Urandom_access_iterator_tag@0@U_Range_checked_iterator_tag@0@@Z 00421850 f i brook:gpukernel.obj
 0001:00020880       ??$unchecked_uninitialized_copy@PAPAVGPUStream@brook@@PAPAV12@V?$allocator@PAVGPUStream@brook@@@std@@@stdext@@YAPAPAVGPUStream@brook@@PAPAV12@00AAV?$allocator@PAVGPUStream@brook@@@std@@@Z 00421880 f i brook:gpukernel.obj
 0001:000208b0       ??$unchecked_uninitialized_copy@PAPAVGPUIterator@brook@@PAPAV12@V?$allocator@PAVGPUIterator@brook@@@std@@@stdext@@YAPAPAVGPUIterator@brook@@PAPAV12@00AAV?$allocator@PAVGPUIterator@brook@@@std@@@Z 004218b0 f i brook:gpukernel.obj
 0001:000208e0       ??$_Checked_base@V?$_Vector_const_iterator@VInput@GPUKernel@brook@@V?$allocator@VInput@GPUKernel@brook@@@std@@@std@@U_Different_checked_iterator_base_type_tag@2@@std@@YAPBVInput@GPUKernel@brook@@AAV?$_Vector_const_iterator@VInput@GPUKernel@brook@@V?$allocator@VInput@GPUKernel@brook@@@std@@@0@U_Different_checked_iterator_base_type_tag@0@@Z 004218e0 f i brook:gpukernel.obj
 0001:000208f0       ??$_Checked_base@V?$_Vector_const_iterator@VPass@GPUKernel@brook@@V?$allocator@VPass@GPUKernel@brook@@@std@@@std@@U_Different_checked_iterator_base_type_tag@2@@std@@YAPBVPass@GPUKernel@brook@@AAV?$_Vector_const_iterator@VPass@GPUKernel@brook@@V?$allocator@VPass@GPUKernel@brook@@@std@@@0@U_Different_checked_iterator_base_type_tag@0@@Z 004218f0 f i brook:gpukernel.obj
 0001:00020900       ??$_Copy_opt@PAVInput@GPUKernel@brook@@PAV123@@std@@YAPAVInput@GPUKernel@brook@@PAV123@00Urandom_access_iterator_tag@0@U_Nonscalar_ptr_iterator_tag@0@U_Range_checked_iterator_tag@0@@Z 00421900 f i brook:gpukernel.obj
 0001:00020940       ??$_Uninit_copy@PAVInput@GPUKernel@brook@@PAV123@V?$allocator@VInput@GPUKernel@brook@@@std@@@std@@YAPAVInput@GPUKernel@brook@@PAV123@00AAV?$allocator@VInput@GPUKernel@brook@@@0@U_Nonscalar_ptr_iterator_tag@0@U_Range_checked_iterator_tag@0@@Z 00421940 f i brook:gpukernel.obj
 0001:00020970       ??$_Uninit_copy@PAUfloat4@@PAU1@V?$allocator@Ufloat4@@@std@@@std@@YAPAUfloat4@@PAU1@00AAV?$allocator@Ufloat4@@@0@U_Nonscalar_ptr_iterator_tag@0@U_Range_checked_iterator_tag@0@@Z 00421970 f i brook:gpukernel.obj
 0001:000209b0       ??$_Uninit_copy@PAVArgumentInfo@GPUKernel@brook@@PAV123@V?$allocator@VArgumentInfo@GPUKernel@brook@@@std@@@std@@YAPAVArgumentInfo@GPUKernel@brook@@PAV123@00AAV?$allocator@VArgumentInfo@GPUKernel@brook@@@0@U_Nonscalar_ptr_iterator_tag@0@U_Range_checked_iterator_tag@0@@Z 004219b0 f i brook:gpukernel.obj
 0001:000209e0       ??$_Uninit_copy@PAVReduceArgumentInfo@GPUKernel@brook@@PAV123@V?$allocator@VReduceArgumentInfo@GPUKernel@brook@@@std@@@std@@YAPAVReduceArgumentInfo@GPUKernel@brook@@PAV123@00AAV?$allocator@VReduceArgumentInfo@GPUKernel@brook@@@0@U_Nonscalar_ptr_iterator_tag@0@U_Range_checked_iterator_tag@0@@Z 004219e0 f i brook:gpukernel.obj
 0001:00020a10       ??$_Uninit_copy@PAUGPUInterpolant@brook@@PAU12@V?$allocator@UGPUInterpolant@brook@@@std@@@std@@YAPAUGPUInterpolant@brook@@PAU12@00AAV?$allocator@UGPUInterpolant@brook@@@0@U_Nonscalar_ptr_iterator_tag@0@U_Range_checked_iterator_tag@0@@Z 00421a10 f i brook:gpukernel.obj
 0001:00020a70       ?getReversedExtents@GPUStreamData@brook@@QBEPBIXZ 00421a70 f i brook:gpukernel.obj
 0001:00020a90       ?getReversedExtents@GPUStream@brook@@QBEPBIXZ 00421a90 f i brook:gpukernel.obj
 0001:00020ac0       ?begin@?$vector@VPass@GPUKernel@brook@@V?$allocator@VPass@GPUKernel@brook@@@std@@@std@@QAE?AV?$_Vector_iterator@VPass@GPUKernel@brook@@V?$allocator@VPass@GPUKernel@brook@@@std@@@2@XZ 00421ac0 f i brook:gpukernel.obj
 0001:00020af0       ??0?$_Vector_iterator@VTechnique@GPUKernel@brook@@V?$allocator@VTechnique@GPUKernel@brook@@@std@@@std@@QAE@PAVTechnique@GPUKernel@brook@@PBU_Container_base@1@@Z 00421af0 f i brook:gpukernel.obj
 0001:00020b30       ?end@?$vector@VTechnique@GPUKernel@brook@@V?$allocator@VTechnique@GPUKernel@brook@@@std@@@std@@QAE?AV?$_Vector_iterator@VTechnique@GPUKernel@brook@@V?$allocator@VTechnique@GPUKernel@brook@@@std@@@2@XZ 00421b30 f i brook:gpukernel.obj
 0001:00020b60       ?_Destroy@?$vector@PAVGPUStream@brook@@V?$allocator@PAVGPUStream@brook@@@std@@@std@@IAEXPAPAVGPUStream@brook@@0@Z 00421b60 f i brook:gpukernel.obj
 0001:00020b70       ?_Destroy@?$vector@PAVGPUIterator@brook@@V?$allocator@PAVGPUIterator@brook@@@std@@@std@@IAEXPAPAVGPUIterator@brook@@0@Z 00421b70 f i brook:gpukernel.obj
 0001:00020b80       ??H?$_Vector_iterator@VTechnique@GPUKernel@brook@@V?$allocator@VTechnique@GPUKernel@brook@@@std@@@std@@QBE?AV01@H@Z 00421b80 f i brook:gpukernel.obj
 0001:00020bc0       ??H?$_Vector_iterator@VPass@GPUKernel@brook@@V?$allocator@VPass@GPUKernel@brook@@@std@@@std@@QBE?AV01@H@Z 00421bc0 f i brook:gpukernel.obj
 0001:00020c00       ??0?$_Vector_iterator@VInput@GPUKernel@brook@@V?$allocator@VInput@GPUKernel@brook@@@std@@@std@@QAE@PAVInput@GPUKernel@brook@@PBU_Container_base@1@@Z 00421c00 f i brook:gpukernel.obj
 0001:00020c40       ??H?$_Vector_iterator@VInput@GPUKernel@brook@@V?$allocator@VInput@GPUKernel@brook@@@std@@@std@@QBE?AV01@H@Z 00421c40 f i brook:gpukernel.obj
 0001:00020c80       ??0?$_Vector_iterator@PAVGPUStream@brook@@V?$allocator@PAVGPUStream@brook@@@std@@@std@@QAE@PAPAVGPUStream@brook@@PBU_Container_base@1@@Z 00421c80 f i brook:gpukernel.obj
 0001:00020cc0       ??H?$_Vector_iterator@PAVGPUStream@brook@@V?$allocator@PAVGPUStream@brook@@@std@@@std@@QBE?AV01@H@Z 00421cc0 f i brook:gpukernel.obj
 0001:00020d00       ??0?$_Vector_iterator@PAVGPUIterator@brook@@V?$allocator@PAVGPUIterator@brook@@@std@@@std@@QAE@PAPAVGPUIterator@brook@@PBU_Container_base@1@@Z 00421d00 f i brook:gpukernel.obj
 0001:00020d40       ??H?$_Vector_iterator@PAVGPUIterator@brook@@V?$allocator@PAVGPUIterator@brook@@@std@@@std@@QBE?AV01@H@Z 00421d40 f i brook:gpukernel.obj
 0001:00020d80       ??0?$_Vector_iterator@Ufloat4@@V?$allocator@Ufloat4@@@std@@@std@@QAE@PAUfloat4@@PBU_Container_base@1@@Z 00421d80 f i brook:gpukernel.obj
 0001:00020dc0       ??H?$_Vector_iterator@Ufloat4@@V?$allocator@Ufloat4@@@std@@@std@@QBE?AV01@H@Z 00421dc0 f i brook:gpukernel.obj
 0001:00020e00       ??0?$_Vector_iterator@VArgumentInfo@GPUKernel@brook@@V?$allocator@VArgumentInfo@GPUKernel@brook@@@std@@@std@@QAE@PAVArgumentInfo@GPUKernel@brook@@PBU_Container_base@1@@Z 00421e00 f i brook:gpukernel.obj
 0001:00020e40       ??H?$_Vector_iterator@VArgumentInfo@GPUKernel@brook@@V?$allocator@VArgumentInfo@GPUKernel@brook@@@std@@@std@@QBE?AV01@H@Z 00421e40 f i brook:gpukernel.obj
 0001:00020e80       ??0?$_Vector_iterator@VReduceArgumentInfo@GPUKernel@brook@@V?$allocator@VReduceArgumentInfo@GPUKernel@brook@@@std@@@std@@QAE@PAVReduceArgumentInfo@GPUKernel@brook@@PBU_Container_base@1@@Z 00421e80 f i brook:gpukernel.obj
 0001:00020ec0       ??H?$_Vector_iterator@VReduceArgumentInfo@GPUKernel@brook@@V?$allocator@VReduceArgumentInfo@GPUKernel@brook@@@std@@@std@@QBE?AV01@H@Z 00421ec0 f i brook:gpukernel.obj
 0001:00020f00       ??0?$_Vector_iterator@UGPUInterpolant@brook@@V?$allocator@UGPUInterpolant@brook@@@std@@@std@@QAE@PAUGPUInterpolant@brook@@PBU_Container_base@1@@Z 00421f00 f i brook:gpukernel.obj
 0001:00020f40       ??H?$_Vector_iterator@UGPUInterpolant@brook@@V?$allocator@UGPUInterpolant@brook@@@std@@@std@@QBE?AV01@H@Z 00421f40 f i brook:gpukernel.obj
 0001:00020f80       ??$unchecked_copy@PAPAVGPUStream@brook@@PAPAV12@@stdext@@YAPAPAVGPUStream@brook@@PAPAV12@00@Z 00421f80 f i brook:gpukernel.obj
 0001:00020fc0       ??$unchecked_copy@PAPAVGPUIterator@brook@@PAPAV12@@stdext@@YAPAPAVGPUIterator@brook@@PAPAV12@00@Z 00421fc0 f i brook:gpukernel.obj
 0001:00021000       ??$unchecked_copy@PAUfloat4@@PAU1@@stdext@@YAPAUfloat4@@PAU1@00@Z 00422000 f i brook:gpukernel.obj
 0001:00021040       ??$unchecked_copy@PAVArgumentInfo@GPUKernel@brook@@PAV123@@stdext@@YAPAVArgumentInfo@GPUKernel@brook@@PAV123@00@Z 00422040 f i brook:gpukernel.obj
 0001:00021080       ??$unchecked_copy@PAVReduceArgumentInfo@GPUKernel@brook@@PAV123@@stdext@@YAPAVReduceArgumentInfo@GPUKernel@brook@@PAV123@00@Z 00422080 f i brook:gpukernel.obj
 0001:000210c0       ??$unchecked_copy@PAUGPUInterpolant@brook@@PAU12@@stdext@@YAPAUGPUInterpolant@brook@@PAU12@00@Z 004220c0 f i brook:gpukernel.obj
 0001:000210f0       ??$fill@PAVInput@GPUKernel@brook@@V123@@std@@YAXPAVInput@GPUKernel@brook@@0ABV123@@Z 004220f0 f i brook:gpukernel.obj
 0001:00021120       ??$fill@PAPAVGPUStream@brook@@PAV12@@std@@YAXPAPAVGPUStream@brook@@0ABQAV12@@Z 00422120 f i brook:gpukernel.obj
 0001:00021140       ??$_Unchecked_move_backward@PAPAVGPUStream@brook@@PAPAV12@@stdext@@YAPAPAVGPUStream@brook@@PAPAV12@00@Z 00422140 f i brook:gpukernel.obj
 0001:00021170       ??$fill@PAPAVGPUIterator@brook@@PAV12@@std@@YAXPAPAVGPUIterator@brook@@0ABQAV12@@Z 00422170 f i brook:gpukernel.obj
 0001:00021190       ??$_Unchecked_move_backward@PAPAVGPUIterator@brook@@PAPAV12@@stdext@@YAPAPAVGPUIterator@brook@@PAPAV12@00@Z 00422190 f i brook:gpukernel.obj
 0001:000211c0       ??$fill@PAUfloat4@@U1@@std@@YAXPAUfloat4@@0ABU1@@Z 004221c0 f i brook:gpukernel.obj
 0001:000211f0       ??$fill@PAVArgumentInfo@GPUKernel@brook@@V123@@std@@YAXPAVArgumentInfo@GPUKernel@brook@@0ABV123@@Z 004221f0 f i brook:gpukernel.obj
 0001:00021220       ??$fill@PAVReduceArgumentInfo@GPUKernel@brook@@V123@@std@@YAXPAVReduceArgumentInfo@GPUKernel@brook@@0ABV123@@Z 00422220 f i brook:gpukernel.obj
 0001:00021250       ??$fill@PAUGPUInterpolant@brook@@U12@@std@@YAXPAUGPUInterpolant@brook@@0ABU12@@Z 00422250 f i brook:gpukernel.obj
 0001:00021260       ??$_Uninit_fill_n@PAVInput@GPUKernel@brook@@IV123@V?$allocator@VInput@GPUKernel@brook@@@std@@@std@@YAXPAVInput@GPUKernel@brook@@IABV123@AAV?$allocator@VInput@GPUKernel@brook@@@0@U_Nonscalar_ptr_iterator_tag@0@U_Range_checked_iterator_tag@0@@Z 00422260 f i brook:gpukernel.obj
 0001:00021290       ??$_Uninit_fill_n@PAUfloat4@@IU1@V?$allocator@Ufloat4@@@std@@@std@@YAXPAUfloat4@@IABU1@AAV?$allocator@Ufloat4@@@0@U_Nonscalar_ptr_iterator_tag@0@U_Range_checked_iterator_tag@0@@Z 00422290 f i brook:gpukernel.obj
 0001:000212d0       ??$_Uninit_fill_n@PAVArgumentInfo@GPUKernel@brook@@IV123@V?$allocator@VArgumentInfo@GPUKernel@brook@@@std@@@std@@YAXPAVArgumentInfo@GPUKernel@brook@@IABV123@AAV?$allocator@VArgumentInfo@GPUKernel@brook@@@0@U_Nonscalar_ptr_iterator_tag@0@U_Range_checked_iterator_tag@0@@Z 004222d0 f i brook:gpukernel.obj
 0001:00021300       ??$_Uninit_fill_n@PAVReduceArgumentInfo@GPUKernel@brook@@IV123@V?$allocator@VReduceArgumentInfo@GPUKernel@brook@@@std@@@std@@YAXPAVReduceArgumentInfo@GPUKernel@brook@@IABV123@AAV?$allocator@VReduceArgumentInfo@GPUKernel@brook@@@0@U_Nonscalar_ptr_iterator_tag@0@U_Range_checked_iterator_tag@0@@Z 00422300 f i brook:gpukernel.obj
 0001:00021330       ??$_Uninit_fill_n@PAUGPUInterpolant@brook@@IU12@V?$allocator@UGPUInterpolant@brook@@@std@@@std@@YAXPAUGPUInterpolant@brook@@IABU12@AAV?$allocator@UGPUInterpolant@brook@@@0@U_Nonscalar_ptr_iterator_tag@0@U_Range_checked_iterator_tag@0@@Z 00422330 f i brook:gpukernel.obj
 0001:00021390       ??$_Move_backward_opt@PAVInput@GPUKernel@brook@@PAV123@Urandom_access_iterator_tag@std@@U_Undefined_move_tag@5@@std@@YAPAVInput@GPUKernel@brook@@PAV123@00Urandom_access_iterator_tag@0@U_Undefined_move_tag@0@U_Range_checked_iterator_tag@0@@Z 00422390 f i brook:gpukernel.obj
 0001:000213d0       ??$_Destroy_range@Ufloat4@@V?$allocator@Ufloat4@@@std@@@std@@YAXPAUfloat4@@0AAV?$allocator@Ufloat4@@@0@U_Nonscalar_ptr_iterator_tag@0@@Z 004223d0 f i brook:gpukernel.obj
 0001:000213e0       ??$_Move_backward_opt@PAUfloat4@@PAU1@Urandom_access_iterator_tag@std@@U_Undefined_move_tag@3@@std@@YAPAUfloat4@@PAU1@00Urandom_access_iterator_tag@0@U_Undefined_move_tag@0@U_Range_checked_iterator_tag@0@@Z 004223e0 f i brook:gpukernel.obj
 0001:00021400       ??$_Destroy_range@VArgumentInfo@GPUKernel@brook@@V?$allocator@VArgumentInfo@GPUKernel@brook@@@std@@@std@@YAXPAVArgumentInfo@GPUKernel@brook@@0AAV?$allocator@VArgumentInfo@GPUKernel@brook@@@0@U_Nonscalar_ptr_iterator_tag@0@@Z 00422400 f i brook:gpukernel.obj
 0001:00021410       ??$_Move_backward_opt@PAVArgumentInfo@GPUKernel@brook@@PAV123@Urandom_access_iterator_tag@std@@U_Undefined_move_tag@5@@std@@YAPAVArgumentInfo@GPUKernel@brook@@PAV123@00Urandom_access_iterator_tag@0@U_Undefined_move_tag@0@U_Range_checked_iterator_tag@0@@Z 00422410 f i brook:gpukernel.obj
 0001:00021450       ??$_Destroy_range@VReduceArgumentInfo@GPUKernel@brook@@V?$allocator@VReduceArgumentInfo@GPUKernel@brook@@@std@@@std@@YAXPAVReduceArgumentInfo@GPUKernel@brook@@0AAV?$allocator@VReduceArgumentInfo@GPUKernel@brook@@@0@U_Nonscalar_ptr_iterator_tag@0@@Z 00422450 f i brook:gpukernel.obj
 0001:00021460       ??$_Move_backward_opt@PAVReduceArgumentInfo@GPUKernel@brook@@PAV123@Urandom_access_iterator_tag@std@@U_Undefined_move_tag@5@@std@@YAPAVReduceArgumentInfo@GPUKernel@brook@@PAV123@00Urandom_access_iterator_tag@0@U_Undefined_move_tag@0@U_Range_checked_iterator_tag@0@@Z 00422460 f i brook:gpukernel.obj
 0001:000214a0       ??$_Destroy_range@UGPUInterpolant@brook@@V?$allocator@UGPUInterpolant@brook@@@std@@@std@@YAXPAUGPUInterpolant@brook@@0AAV?$allocator@UGPUInterpolant@brook@@@0@U_Nonscalar_ptr_iterator_tag@0@@Z 004224a0 f i brook:gpukernel.obj
 0001:000214b0       ??$_Move_backward_opt@PAUGPUInterpolant@brook@@PAU12@Urandom_access_iterator_tag@std@@U_Undefined_move_tag@4@@std@@YAPAUGPUInterpolant@brook@@PAU12@00Urandom_access_iterator_tag@0@U_Undefined_move_tag@0@U_Range_checked_iterator_tag@0@@Z 004224b0 f i brook:gpukernel.obj
 0001:000214d0       ??$_Destroy_range@VInput@GPUKernel@brook@@V?$allocator@VInput@GPUKernel@brook@@@std@@@std@@YAXPAVInput@GPUKernel@brook@@0AAV?$allocator@VInput@GPUKernel@brook@@@0@U_Nonscalar_ptr_iterator_tag@0@@Z 004224d0 f i brook:gpukernel.obj
 0001:000214e0       ??$unchecked_fill_n@PAPAVGPUStream@brook@@IPAV12@@stdext@@YAXPAPAVGPUStream@brook@@IABQAV12@@Z 004224e0 f i brook:gpukernel.obj
 0001:00021510       ??$unchecked_fill_n@PAPAVGPUIterator@brook@@IPAV12@@stdext@@YAXPAPAVGPUIterator@brook@@IABQAV12@@Z 00422510 f i brook:gpukernel.obj
 0001:00021540       ??$_Uninit_move@PAPAVGPUStream@brook@@PAPAV12@V?$allocator@PAVGPUStream@brook@@@std@@U_Undefined_move_tag@4@@std@@YAPAPAVGPUStream@brook@@PAPAV12@00AAV?$allocator@PAVGPUStream@brook@@@0@U_Undefined_move_tag@0@U_Range_checked_iterator_tag@0@@Z 00422540 f i brook:gpukernel.obj
 0001:00021570       ??$_Uninit_move@PAPAVGPUIterator@brook@@PAPAV12@V?$allocator@PAVGPUIterator@brook@@@std@@U_Undefined_move_tag@4@@std@@YAPAPAVGPUIterator@brook@@PAPAV12@00AAV?$allocator@PAVGPUIterator@brook@@@0@U_Undefined_move_tag@0@U_Range_checked_iterator_tag@0@@Z 00422570 f i brook:gpukernel.obj
 0001:000215a0       ??$_Checked_base@V?$_Vector_const_iterator@VInput@GPUKernel@brook@@V?$allocator@VInput@GPUKernel@brook@@@std@@@std@@@std@@YAPBVInput@GPUKernel@brook@@AAV?$_Vector_const_iterator@VInput@GPUKernel@brook@@V?$allocator@VInput@GPUKernel@brook@@@std@@@0@@Z 004225a0 f i brook:gpukernel.obj
 0001:000215b0       ??$_Checked_base@V?$_Vector_const_iterator@VPass@GPUKernel@brook@@V?$allocator@VPass@GPUKernel@brook@@@std@@@std@@@std@@YAPBVPass@GPUKernel@brook@@AAV?$_Vector_const_iterator@VPass@GPUKernel@brook@@V?$allocator@VPass@GPUKernel@brook@@@std@@@0@@Z 004225b0 f i brook:gpukernel.obj
 0001:000215c0       ??$unchecked_copy@PAVInput@GPUKernel@brook@@PAV123@@stdext@@YAPAVInput@GPUKernel@brook@@PAV123@00@Z 004225c0 f i brook:gpukernel.obj
 0001:00021600       ??$unchecked_uninitialized_copy@PAVInput@GPUKernel@brook@@PAV123@V?$allocator@VInput@GPUKernel@brook@@@std@@@stdext@@YAPAVInput@GPUKernel@brook@@PAV123@00AAV?$allocator@VInput@GPUKernel@brook@@@std@@@Z 00422600 f i brook:gpukernel.obj
 0001:00021630       ??$unchecked_uninitialized_copy@PAUfloat4@@PAU1@V?$allocator@Ufloat4@@@std@@@stdext@@YAPAUfloat4@@PAU1@00AAV?$allocator@Ufloat4@@@std@@@Z 00422630 f i brook:gpukernel.obj
 0001:00021660       ??$unchecked_uninitialized_copy@PAVArgumentInfo@GPUKernel@brook@@PAV123@V?$allocator@VArgumentInfo@GPUKernel@brook@@@std@@@stdext@@YAPAVArgumentInfo@GPUKernel@brook@@PAV123@00AAV?$allocator@VArgumentInfo@GPUKernel@brook@@@std@@@Z 00422660 f i brook:gpukernel.obj
 0001:00021690       ??$unchecked_uninitialized_copy@PAVReduceArgumentInfo@GPUKernel@brook@@PAV123@V?$allocator@VReduceArgumentInfo@GPUKernel@brook@@@std@@@stdext@@YAPAVReduceArgumentInfo@GPUKernel@brook@@PAV123@00AAV?$allocator@VReduceArgumentInfo@GPUKernel@brook@@@std@@@Z 00422690 f i brook:gpukernel.obj
 0001:000216c0       ??$unchecked_uninitialized_copy@PAUGPUInterpolant@brook@@PAU12@V?$allocator@UGPUInterpolant@brook@@@std@@@stdext@@YAPAUGPUInterpolant@brook@@PAU12@00AAV?$allocator@UGPUInterpolant@brook@@@std@@@Z 004226c0 f i brook:gpukernel.obj
 0001:000216f0       ?begin@?$vector@VTechnique@GPUKernel@brook@@V?$allocator@VTechnique@GPUKernel@brook@@@std@@@std@@QAE?AV?$_Vector_iterator@VTechnique@GPUKernel@brook@@V?$allocator@VTechnique@GPUKernel@brook@@@std@@@2@XZ 004226f0 f i brook:gpukernel.obj
 0001:00021720       ?end@?$vector@VInput@GPUKernel@brook@@V?$allocator@VInput@GPUKernel@brook@@@std@@@std@@QAE?AV?$_Vector_iterator@VInput@GPUKernel@brook@@V?$allocator@VInput@GPUKernel@brook@@@std@@@2@XZ 00422720 f i brook:gpukernel.obj
 0001:00021750       ?begin@?$vector@PAVGPUStream@brook@@V?$allocator@PAVGPUStream@brook@@@std@@@std@@QAE?AV?$_Vector_iterator@PAVGPUStream@brook@@V?$allocator@PAVGPUStream@brook@@@std@@@2@XZ 00422750 f i brook:gpukernel.obj
 0001:00021780       ?end@?$vector@PAVGPUStream@brook@@V?$allocator@PAVGPUStream@brook@@@std@@@std@@QAE?AV?$_Vector_iterator@PAVGPUStream@brook@@V?$allocator@PAVGPUStream@brook@@@std@@@2@XZ 00422780 f i brook:gpukernel.obj
 0001:000217b0       ?erase@?$vector@PAVGPUStream@brook@@V?$allocator@PAVGPUStream@brook@@@std@@@std@@QAE?AV?$_Vector_iterator@PAVGPUStream@brook@@V?$allocator@PAVGPUStream@brook@@@std@@@2@V32@0@Z 004227b0 f i brook:gpukernel.obj
 0001:00021810       ?_Tidy@?$vector@PAVGPUStream@brook@@V?$allocator@PAVGPUStream@brook@@@std@@@std@@IAEXXZ 00422810 f i brook:gpukernel.obj
 0001:00021840       ?begin@?$vector@PAVGPUIterator@brook@@V?$allocator@PAVGPUIterator@brook@@@std@@@std@@QAE?AV?$_Vector_iterator@PAVGPUIterator@brook@@V?$allocator@PAVGPUIterator@brook@@@std@@@2@XZ 00422840 f i brook:gpukernel.obj
 0001:00021870       ?end@?$vector@PAVGPUIterator@brook@@V?$allocator@PAVGPUIterator@brook@@@std@@@std@@QAE?AV?$_Vector_iterator@PAVGPUIterator@brook@@V?$allocator@PAVGPUIterator@brook@@@std@@@2@XZ 00422870 f i brook:gpukernel.obj
 0001:000218a0       ?erase@?$vector@PAVGPUIterator@brook@@V?$allocator@PAVGPUIterator@brook@@@std@@@std@@QAE?AV?$_Vector_iterator@PAVGPUIterator@brook@@V?$allocator@PAVGPUIterator@brook@@@std@@@2@V32@0@Z 004228a0 f i brook:gpukernel.obj
 0001:00021900       ?_Tidy@?$vector@PAVGPUIterator@brook@@V?$allocator@PAVGPUIterator@brook@@@std@@@std@@IAEXXZ 00422900 f i brook:gpukernel.obj
 0001:00021930       ?begin@?$vector@Ufloat4@@V?$allocator@Ufloat4@@@std@@@std@@QAE?AV?$_Vector_iterator@Ufloat4@@V?$allocator@Ufloat4@@@std@@@2@XZ 00422930 f i brook:gpukernel.obj
 0001:00021960       ?end@?$vector@Ufloat4@@V?$allocator@Ufloat4@@@std@@@std@@QAE?AV?$_Vector_iterator@Ufloat4@@V?$allocator@Ufloat4@@@std@@@2@XZ 00422960 f i brook:gpukernel.obj
 0001:00021990       ?begin@?$vector@VArgumentInfo@GPUKernel@brook@@V?$allocator@VArgumentInfo@GPUKernel@brook@@@std@@@std@@QAE?AV?$_Vector_iterator@VArgumentInfo@GPUKernel@brook@@V?$allocator@VArgumentInfo@GPUKernel@brook@@@std@@@2@XZ 00422990 f i brook:gpukernel.obj
 0001:000219c0       ?end@?$vector@VArgumentInfo@GPUKernel@brook@@V?$allocator@VArgumentInfo@GPUKernel@brook@@@std@@@std@@QAE?AV?$_Vector_iterator@VArgumentInfo@GPUKernel@brook@@V?$allocator@VArgumentInfo@GPUKernel@brook@@@std@@@2@XZ 004229c0 f i brook:gpukernel.obj
 0001:000219f0       ?begin@?$vector@VReduceArgumentInfo@GPUKernel@brook@@V?$allocator@VReduceArgumentInfo@GPUKernel@brook@@@std@@@std@@QAE?AV?$_Vector_iterator@VReduceArgumentInfo@GPUKernel@brook@@V?$allocator@VReduceArgumentInfo@GPUKernel@brook@@@std@@@2@XZ 004229f0 f i brook:gpukernel.obj
 0001:00021a20       ?end@?$vector@VReduceArgumentInfo@GPUKernel@brook@@V?$allocator@VReduceArgumentInfo@GPUKernel@brook@@@std@@@std@@QAE?AV?$_Vector_iterator@VReduceArgumentInfo@GPUKernel@brook@@V?$allocator@VReduceArgumentInfo@GPUKernel@brook@@@std@@@2@XZ 00422a20 f i brook:gpukernel.obj
 0001:00021a50       ?begin@?$vector@UGPUInterpolant@brook@@V?$allocator@UGPUInterpolant@brook@@@std@@@std@@QAE?AV?$_Vector_iterator@UGPUInterpolant@brook@@V?$allocator@UGPUInterpolant@brook@@@std@@@2@XZ 00422a50 f i brook:gpukernel.obj
 0001:00021a80       ?end@?$vector@UGPUInterpolant@brook@@V?$allocator@UGPUInterpolant@brook@@@std@@@std@@QAE?AV?$_Vector_iterator@UGPUInterpolant@brook@@V?$allocator@UGPUInterpolant@brook@@@std@@@2@XZ 00422a80 f i brook:gpukernel.obj
 0001:00021ab0       ?begin@?$vector@VInput@GPUKernel@brook@@V?$allocator@VInput@GPUKernel@brook@@@std@@@std@@QAE?AV?$_Vector_iterator@VInput@GPUKernel@brook@@V?$allocator@VInput@GPUKernel@brook@@@std@@@2@XZ 00422ab0 f i brook:gpukernel.obj
 0001:00021ae0       ??$unchecked_uninitialized_fill_n@PAVInput@GPUKernel@brook@@IV123@V?$allocator@VInput@GPUKernel@brook@@@std@@@stdext@@YAXPAVInput@GPUKernel@brook@@IABV123@AAV?$allocator@VInput@GPUKernel@brook@@@std@@@Z 00422ae0 f i brook:gpukernel.obj
 0001:00021b10       ??$unchecked_uninitialized_fill_n@PAUfloat4@@IU1@V?$allocator@Ufloat4@@@std@@@stdext@@YAXPAUfloat4@@IABU1@AAV?$allocator@Ufloat4@@@std@@@Z 00422b10 f i brook:gpukernel.obj
 0001:00021b40       ??$unchecked_uninitialized_fill_n@PAVArgumentInfo@GPUKernel@brook@@IV123@V?$allocator@VArgumentInfo@GPUKernel@brook@@@std@@@stdext@@YAXPAVArgumentInfo@GPUKernel@brook@@IABV123@AAV?$allocator@VArgumentInfo@GPUKernel@brook@@@std@@@Z 00422b40 f i brook:gpukernel.obj
 0001:00021b70       ??$unchecked_uninitialized_fill_n@PAVReduceArgumentInfo@GPUKernel@brook@@IV123@V?$allocator@VReduceArgumentInfo@GPUKernel@brook@@@std@@@stdext@@YAXPAVReduceArgumentInfo@GPUKernel@brook@@IABV123@AAV?$allocator@VReduceArgumentInfo@GPUKernel@brook@@@std@@@Z 00422b70 f i brook:gpukernel.obj
 0001:00021ba0       ??$unchecked_uninitialized_fill_n@PAUGPUInterpolant@brook@@IU12@V?$allocator@UGPUInterpolant@brook@@@std@@@stdext@@YAXPAUGPUInterpolant@brook@@IABU12@AAV?$allocator@UGPUInterpolant@brook@@@std@@@Z 00422ba0 f i brook:gpukernel.obj
 0001:00021bd0       ??$_Unchecked_move_backward@PAVInput@GPUKernel@brook@@PAV123@@stdext@@YAPAVInput@GPUKernel@brook@@PAV123@00@Z 00422bd0 f i brook:gpukernel.obj
 0001:00021c10       ??$_Destroy_range@Ufloat4@@V?$allocator@Ufloat4@@@std@@@std@@YAXPAUfloat4@@0AAV?$allocator@Ufloat4@@@0@@Z 00422c10 f i brook:gpukernel.obj
 0001:00021c20       ??$_Unchecked_move_backward@PAUfloat4@@PAU1@@stdext@@YAPAUfloat4@@PAU1@00@Z 00422c20 f i brook:gpukernel.obj
 0001:00021c50       ??$_Destroy_range@VArgumentInfo@GPUKernel@brook@@V?$allocator@VArgumentInfo@GPUKernel@brook@@@std@@@std@@YAXPAVArgumentInfo@GPUKernel@brook@@0AAV?$allocator@VArgumentInfo@GPUKernel@brook@@@0@@Z 00422c50 f i brook:gpukernel.obj
 0001:00021c60       ??$_Unchecked_move_backward@PAVArgumentInfo@GPUKernel@brook@@PAV123@@stdext@@YAPAVArgumentInfo@GPUKernel@brook@@PAV123@00@Z 00422c60 f i brook:gpukernel.obj
 0001:00021ca0       ??$_Destroy_range@VReduceArgumentInfo@GPUKernel@brook@@V?$allocator@VReduceArgumentInfo@GPUKernel@brook@@@std@@@std@@YAXPAVReduceArgumentInfo@GPUKernel@brook@@0AAV?$allocator@VReduceArgumentInfo@GPUKernel@brook@@@0@@Z 00422ca0 f i brook:gpukernel.obj
 0001:00021cb0       ??$_Unchecked_move_backward@PAVReduceArgumentInfo@GPUKernel@brook@@PAV123@@stdext@@YAPAVReduceArgumentInfo@GPUKernel@brook@@PAV123@00@Z 00422cb0 f i brook:gpukernel.obj
 0001:00021cf0       ??$_Destroy_range@UGPUInterpolant@brook@@V?$allocator@UGPUInterpolant@brook@@@std@@@std@@YAXPAUGPUInterpolant@brook@@0AAV?$allocator@UGPUInterpolant@brook@@@0@@Z 00422cf0 f i brook:gpukernel.obj
 0001:00021d00       ??$_Unchecked_move_backward@PAUGPUInterpolant@brook@@PAU12@@stdext@@YAPAUGPUInterpolant@brook@@PAU12@00@Z 00422d00 f i brook:gpukernel.obj
 0001:00021d30       ??$_Destroy_range@VInput@GPUKernel@brook@@V?$allocator@VInput@GPUKernel@brook@@@std@@@std@@YAXPAVInput@GPUKernel@brook@@0AAV?$allocator@VInput@GPUKernel@brook@@@0@@Z 00422d30 f i brook:gpukernel.obj
 0001:00021d40       ??$_Uninit_fill_n@PAPAVGPUStream@brook@@IPAV12@V?$allocator@PAVGPUStream@brook@@@std@@@std@@YAXPAPAVGPUStream@brook@@IABQAV12@AAV?$allocator@PAVGPUStream@brook@@@0@U_Scalar_ptr_iterator_tag@0@U_Range_checked_iterator_tag@0@@Z 00422d40 f i brook:gpukernel.obj
 0001:00021d70       ??$_Uninit_fill_n@PAPAVGPUIterator@brook@@IPAV12@V?$allocator@PAVGPUIterator@brook@@@std@@@std@@YAXPAPAVGPUIterator@brook@@IABQAV12@AAV?$allocator@PAVGPUIterator@brook@@@0@U_Scalar_ptr_iterator_tag@0@U_Range_checked_iterator_tag@0@@Z 00422d70 f i brook:gpukernel.obj
 0001:00021da0       ??$_Unchecked_uninitialized_move@PAPAVGPUStream@brook@@PAPAV12@V?$allocator@PAVGPUStream@brook@@@std@@@stdext@@YAPAPAVGPUStream@brook@@PAPAV12@00AAV?$allocator@PAVGPUStream@brook@@@std@@@Z 00422da0 f i brook:gpukernel.obj
 0001:00021dd0       ??$_Unchecked_uninitialized_move@PAPAVGPUIterator@brook@@PAPAV12@V?$allocator@PAVGPUIterator@brook@@@std@@@stdext@@YAPAPAVGPUIterator@brook@@PAPAV12@00AAV?$allocator@PAVGPUIterator@brook@@@std@@@Z 00422dd0 f i brook:gpukernel.obj
 0001:00021e00       ??$unchecked_uninitialized_copy@V?$_Vector_const_iterator@VInput@GPUKernel@brook@@V?$allocator@VInput@GPUKernel@brook@@@std@@@std@@PAVInput@GPUKernel@brook@@V?$allocator@VInput@GPUKernel@brook@@@2@@stdext@@YAPAVInput@GPUKernel@brook@@V?$_Vector_const_iterator@VInput@GPUKernel@brook@@V?$allocator@VInput@GPUKernel@brook@@@std@@@std@@0PAV123@AAV?$allocator@VInput@GPUKernel@brook@@@5@@Z 00422e00 f i brook:gpukernel.obj
 0001:00021e30       ??$_Uninit_move@PAVInput@GPUKernel@brook@@PAV123@V?$allocator@VInput@GPUKernel@brook@@@std@@U_Undefined_move_tag@5@@std@@YAPAVInput@GPUKernel@brook@@PAV123@00AAV?$allocator@VInput@GPUKernel@brook@@@0@U_Undefined_move_tag@0@U_Range_checked_iterator_tag@0@@Z 00422e30 f i brook:gpukernel.obj
 0001:00021e50       ??$_Uninit_move@PAUfloat4@@PAU1@V?$allocator@Ufloat4@@@std@@U_Undefined_move_tag@3@@std@@YAPAUfloat4@@PAU1@00AAV?$allocator@Ufloat4@@@0@U_Undefined_move_tag@0@U_Range_checked_iterator_tag@0@@Z 00422e50 f i brook:gpukernel.obj
 0001:00021e70       ??$_Uninit_move@PAVArgumentInfo@GPUKernel@brook@@PAV123@V?$allocator@VArgumentInfo@GPUKernel@brook@@@std@@U_Undefined_move_tag@5@@std@@YAPAVArgumentInfo@GPUKernel@brook@@PAV123@00AAV?$allocator@VArgumentInfo@GPUKernel@brook@@@0@U_Undefined_move_tag@0@U_Range_checked_iterator_tag@0@@Z 00422e70 f i brook:gpukernel.obj
 0001:00021e90       ??$_Uninit_move@PAVReduceArgumentInfo@GPUKernel@brook@@PAV123@V?$allocator@VReduceArgumentInfo@GPUKernel@brook@@@std@@U_Undefined_move_tag@5@@std@@YAPAVReduceArgumentInfo@GPUKernel@brook@@PAV123@00AAV?$allocator@VReduceArgumentInfo@GPUKernel@brook@@@0@U_Undefined_move_tag@0@U_Range_checked_iterator_tag@0@@Z 00422e90 f i brook:gpukernel.obj
 0001:00021eb0       ??$_Uninit_move@PAUGPUInterpolant@brook@@PAU12@V?$allocator@UGPUInterpolant@brook@@@std@@U_Undefined_move_tag@4@@std@@YAPAUGPUInterpolant@brook@@PAU12@00AAV?$allocator@UGPUInterpolant@brook@@@0@U_Undefined_move_tag@0@U_Range_checked_iterator_tag@0@@Z 00422eb0 f i brook:gpukernel.obj
 0001:00021ed0       ??$_Ucopy@PAVInput@GPUKernel@brook@@@?$vector@VInput@GPUKernel@brook@@V?$allocator@VInput@GPUKernel@brook@@@std@@@std@@IAEPAVInput@GPUKernel@brook@@PAV234@00@Z 00422ed0 f i brook:gpukernel.obj
 0001:00021f00       ??1?$vector@PAVGPUStream@brook@@V?$allocator@PAVGPUStream@brook@@@std@@@std@@QAE@XZ 00422f00 f i brook:gpukernel.obj
 0001:00021f30       ?clear@?$vector@PAVGPUStream@brook@@V?$allocator@PAVGPUStream@brook@@@std@@@std@@QAEXXZ 00422f30 f i brook:gpukernel.obj
 0001:00021f70       ??1?$vector@PAVGPUIterator@brook@@V?$allocator@PAVGPUIterator@brook@@@std@@@std@@QAE@XZ 00422f70 f i brook:gpukernel.obj
 0001:00021fa0       ?clear@?$vector@PAVGPUIterator@brook@@V?$allocator@PAVGPUIterator@brook@@@std@@@std@@QAEXXZ 00422fa0 f i brook:gpukernel.obj
 0001:00021fe0       ?_Ufill@?$vector@VInput@GPUKernel@brook@@V?$allocator@VInput@GPUKernel@brook@@@std@@@std@@IAEPAVInput@GPUKernel@brook@@PAV345@IABV345@@Z 00422fe0 f i brook:gpukernel.obj
 0001:00022020       ?_Ufill@?$vector@Ufloat4@@V?$allocator@Ufloat4@@@std@@@std@@IAEPAUfloat4@@PAU3@IABU3@@Z 00423020 f i brook:gpukernel.obj
 0001:00022060       ?_Ufill@?$vector@VArgumentInfo@GPUKernel@brook@@V?$allocator@VArgumentInfo@GPUKernel@brook@@@std@@@std@@IAEPAVArgumentInfo@GPUKernel@brook@@PAV345@IABV345@@Z 00423060 f i brook:gpukernel.obj
 0001:000220a0       ?_Ufill@?$vector@VReduceArgumentInfo@GPUKernel@brook@@V?$allocator@VReduceArgumentInfo@GPUKernel@brook@@@std@@@std@@IAEPAVReduceArgumentInfo@GPUKernel@brook@@PAV345@IABV345@@Z 004230a0 f i brook:gpukernel.obj
 0001:000220e0       ?_Ufill@?$vector@UGPUInterpolant@brook@@V?$allocator@UGPUInterpolant@brook@@@std@@@std@@IAEPAUGPUInterpolant@brook@@PAU34@IABU34@@Z 004230e0 f i brook:gpukernel.obj
 0001:00022120       ?_Destroy@?$vector@Ufloat4@@V?$allocator@Ufloat4@@@std@@@std@@IAEXPAUfloat4@@0@Z 00423120 f i brook:gpukernel.obj
 0001:00022130       ?_Destroy@?$vector@VArgumentInfo@GPUKernel@brook@@V?$allocator@VArgumentInfo@GPUKernel@brook@@@std@@@std@@IAEXPAVArgumentInfo@GPUKernel@brook@@0@Z 00423130 f i brook:gpukernel.obj
 0001:00022140       ?_Destroy@?$vector@VReduceArgumentInfo@GPUKernel@brook@@V?$allocator@VReduceArgumentInfo@GPUKernel@brook@@@std@@@std@@IAEXPAVReduceArgumentInfo@GPUKernel@brook@@0@Z 00423140 f i brook:gpukernel.obj
 0001:00022150       ?_Destroy@?$vector@UGPUInterpolant@brook@@V?$allocator@UGPUInterpolant@brook@@@std@@@std@@IAEXPAUGPUInterpolant@brook@@0@Z 00423150 f i brook:gpukernel.obj
 0001:00022160       ?_Destroy@?$vector@VInput@GPUKernel@brook@@V?$allocator@VInput@GPUKernel@brook@@@std@@@std@@IAEXPAVInput@GPUKernel@brook@@0@Z 00423160 f i brook:gpukernel.obj
 0001:00022170       ??$unchecked_uninitialized_fill_n@PAPAVGPUStream@brook@@IPAV12@V?$allocator@PAVGPUStream@brook@@@std@@@stdext@@YAXPAPAVGPUStream@brook@@IABQAV12@AAV?$allocator@PAVGPUStream@brook@@@std@@@Z 00423170 f i brook:gpukernel.obj
 0001:000221a0       ??$unchecked_uninitialized_fill_n@PAPAVGPUIterator@brook@@IPAV12@V?$allocator@PAVGPUIterator@brook@@@std@@@stdext@@YAXPAPAVGPUIterator@brook@@IABQAV12@AAV?$allocator@PAVGPUIterator@brook@@@std@@@Z 004231a0 f i brook:gpukernel.obj
 0001:000221d0       ??$_Umove@PAPAVGPUStream@brook@@@?$vector@PAVGPUStream@brook@@V?$allocator@PAVGPUStream@brook@@@std@@@std@@IAEPAPAVGPUStream@brook@@PAPAV23@00@Z 004231d0 f i brook:gpukernel.obj
 0001:00022200       ??$_Umove@PAPAVGPUIterator@brook@@@?$vector@PAVGPUIterator@brook@@V?$allocator@PAVGPUIterator@brook@@@std@@@std@@IAEPAPAVGPUIterator@brook@@PAPAV23@00@Z 00423200 f i brook:gpukernel.obj
 0001:00022230       ??$_Ucopy@V?$_Vector_const_iterator@VInput@GPUKernel@brook@@V?$allocator@VInput@GPUKernel@brook@@@std@@@std@@@?$vector@VInput@GPUKernel@brook@@V?$allocator@VInput@GPUKernel@brook@@@std@@@std@@IAEPAVInput@GPUKernel@brook@@V?$_Vector_const_iterator@VInput@GPUKernel@brook@@V?$allocator@VInput@GPUKernel@brook@@@std@@@1@0PAV234@@Z 00423230 f i brook:gpukernel.obj
 0001:00022260       ??$_Unchecked_uninitialized_move@PAVInput@GPUKernel@brook@@PAV123@V?$allocator@VInput@GPUKernel@brook@@@std@@@stdext@@YAPAVInput@GPUKernel@brook@@PAV123@00AAV?$allocator@VInput@GPUKernel@brook@@@std@@@Z 00423260 f i brook:gpukernel.obj
 0001:00022290       ??$_Unchecked_uninitialized_move@PAUfloat4@@PAU1@V?$allocator@Ufloat4@@@std@@@stdext@@YAPAUfloat4@@PAU1@00AAV?$allocator@Ufloat4@@@std@@@Z 00423290 f i brook:gpukernel.obj
 0001:000222c0       ??$_Unchecked_uninitialized_move@PAVArgumentInfo@GPUKernel@brook@@PAV123@V?$allocator@VArgumentInfo@GPUKernel@brook@@@std@@@stdext@@YAPAVArgumentInfo@GPUKernel@brook@@PAV123@00AAV?$allocator@VArgumentInfo@GPUKernel@brook@@@std@@@Z 004232c0 f i brook:gpukernel.obj
 0001:000222f0       ??$_Unchecked_uninitialized_move@PAVReduceArgumentInfo@GPUKernel@brook@@PAV123@V?$allocator@VReduceArgumentInfo@GPUKernel@brook@@@std@@@stdext@@YAPAVReduceArgumentInfo@GPUKernel@brook@@PAV123@00AAV?$allocator@VReduceArgumentInfo@GPUKernel@brook@@@std@@@Z 004232f0 f i brook:gpukernel.obj
 0001:00022320       ??$_Unchecked_uninitialized_move@PAUGPUInterpolant@brook@@PAU12@V?$allocator@UGPUInterpolant@brook@@@std@@@stdext@@YAPAUGPUInterpolant@brook@@PAU12@00AAV?$allocator@UGPUInterpolant@brook@@@std@@@Z 00423320 f i brook:gpukernel.obj
 0001:00022350       ?erase@?$vector@VInput@GPUKernel@brook@@V?$allocator@VInput@GPUKernel@brook@@@std@@@std@@QAE?AV?$_Vector_iterator@VInput@GPUKernel@brook@@V?$allocator@VInput@GPUKernel@brook@@@std@@@2@V32@0@Z 00423350 f i brook:gpukernel.obj
 0001:000223c0       ?_Ufill@?$vector@PAVGPUStream@brook@@V?$allocator@PAVGPUStream@brook@@@std@@@std@@IAEPAPAVGPUStream@brook@@PAPAV34@IABQAV34@@Z 004233c0 f i brook:gpukernel.obj
 0001:000223f0       ?_Ufill@?$vector@PAVGPUIterator@brook@@V?$allocator@PAVGPUIterator@brook@@@std@@@std@@IAEPAPAVGPUIterator@brook@@PAPAV34@IABQAV34@@Z 004233f0 f i brook:gpukernel.obj
 0001:00022420       ?erase@?$vector@Ufloat4@@V?$allocator@Ufloat4@@@std@@@std@@QAE?AV?$_Vector_iterator@Ufloat4@@V?$allocator@Ufloat4@@@std@@@2@V32@0@Z 00423420 f i brook:gpukernel.obj
 0001:00022470       ?_Tidy@?$vector@Ufloat4@@V?$allocator@Ufloat4@@@std@@@std@@IAEXXZ 00423470 f i brook:gpukernel.obj
 0001:000224a0       ?erase@?$vector@VArgumentInfo@GPUKernel@brook@@V?$allocator@VArgumentInfo@GPUKernel@brook@@@std@@@std@@QAE?AV?$_Vector_iterator@VArgumentInfo@GPUKernel@brook@@V?$allocator@VArgumentInfo@GPUKernel@brook@@@std@@@2@V32@0@Z 004234a0 f i brook:gpukernel.obj
 0001:00022510       ?_Tidy@?$vector@VArgumentInfo@GPUKernel@brook@@V?$allocator@VArgumentInfo@GPUKernel@brook@@@std@@@std@@IAEXXZ 00423510 f i brook:gpukernel.obj
 0001:00022540       ?erase@?$vector@VReduceArgumentInfo@GPUKernel@brook@@V?$allocator@VReduceArgumentInfo@GPUKernel@brook@@@std@@@std@@QAE?AV?$_Vector_iterator@VReduceArgumentInfo@GPUKernel@brook@@V?$allocator@VReduceArgumentInfo@GPUKernel@brook@@@std@@@2@V32@0@Z 00423540 f i brook:gpukernel.obj
 0001:000225b0       ?_Tidy@?$vector@VReduceArgumentInfo@GPUKernel@brook@@V?$allocator@VReduceArgumentInfo@GPUKernel@brook@@@std@@@std@@IAEXXZ 004235b0 f i brook:gpukernel.obj
 0001:000225e0       ?erase@?$vector@UGPUInterpolant@brook@@V?$allocator@UGPUInterpolant@brook@@@std@@@std@@QAE?AV?$_Vector_iterator@UGPUInterpolant@brook@@V?$allocator@UGPUInterpolant@brook@@@std@@@2@V32@0@Z 004235e0 f i brook:gpukernel.obj
 0001:00022640       ?_Tidy@?$vector@UGPUInterpolant@brook@@V?$allocator@UGPUInterpolant@brook@@@std@@@std@@IAEXXZ 00423640 f i brook:gpukernel.obj
 0001:00022670       ?_Tidy@?$vector@VInput@GPUKernel@brook@@V?$allocator@VInput@GPUKernel@brook@@@std@@@std@@IAEXXZ 00423670 f i brook:gpukernel.obj
 0001:000226a0       ??$_Umove@PAVInput@GPUKernel@brook@@@?$vector@VInput@GPUKernel@brook@@V?$allocator@VInput@GPUKernel@brook@@@std@@@std@@IAEPAVInput@GPUKernel@brook@@PAV234@00@Z 004236a0 f i brook:gpukernel.obj
 0001:000226d0       ??$_Umove@PAUfloat4@@@?$vector@Ufloat4@@V?$allocator@Ufloat4@@@std@@@std@@IAEPAUfloat4@@PAU2@00@Z 004236d0 f i brook:gpukernel.obj
 0001:00022700       ??$_Umove@PAVArgumentInfo@GPUKernel@brook@@@?$vector@VArgumentInfo@GPUKernel@brook@@V?$allocator@VArgumentInfo@GPUKernel@brook@@@std@@@std@@IAEPAVArgumentInfo@GPUKernel@brook@@PAV234@00@Z 00423700 f i brook:gpukernel.obj
 0001:00022730       ??$_Umove@PAVReduceArgumentInfo@GPUKernel@brook@@@?$vector@VReduceArgumentInfo@GPUKernel@brook@@V?$allocator@VReduceArgumentInfo@GPUKernel@brook@@@std@@@std@@IAEPAVReduceArgumentInfo@GPUKernel@brook@@PAV234@00@Z 00423730 f i brook:gpukernel.obj
 0001:00022760       ??$_Umove@PAUGPUInterpolant@brook@@@?$vector@UGPUInterpolant@brook@@V?$allocator@UGPUInterpolant@brook@@@std@@@std@@IAEPAUGPUInterpolant@brook@@PAU23@00@Z 00423760 f i brook:gpukernel.obj
 0001:00022790       ?clear@?$vector@VInput@GPUKernel@brook@@V?$allocator@VInput@GPUKernel@brook@@@std@@@std@@QAEXXZ 00423790 f i brook:gpukernel.obj
 0001:000227d0       ??1?$vector@Ufloat4@@V?$allocator@Ufloat4@@@std@@@std@@QAE@XZ 004237d0 f i brook:gpukernel.obj
 0001:00022800       ?clear@?$vector@Ufloat4@@V?$allocator@Ufloat4@@@std@@@std@@QAEXXZ 00423800 f i brook:gpukernel.obj
 0001:00022840       ??1?$vector@VArgumentInfo@GPUKernel@brook@@V?$allocator@VArgumentInfo@GPUKernel@brook@@@std@@@std@@QAE@XZ 00423840 f i brook:gpukernel.obj
 0001:00022870       ?clear@?$vector@VArgumentInfo@GPUKernel@brook@@V?$allocator@VArgumentInfo@GPUKernel@brook@@@std@@@std@@QAEXXZ 00423870 f i brook:gpukernel.obj
 0001:000228b0       ??1?$vector@VReduceArgumentInfo@GPUKernel@brook@@V?$allocator@VReduceArgumentInfo@GPUKernel@brook@@@std@@@std@@QAE@XZ 004238b0 f i brook:gpukernel.obj
 0001:000228e0       ?clear@?$vector@VReduceArgumentInfo@GPUKernel@brook@@V?$allocator@VReduceArgumentInfo@GPUKernel@brook@@@std@@@std@@QAEXXZ 004238e0 f i brook:gpukernel.obj
 0001:00022920       ??1?$vector@UGPUInterpolant@brook@@V?$allocator@UGPUInterpolant@brook@@@std@@@std@@QAE@XZ 00423920 f i brook:gpukernel.obj
 0001:00022950       ?clear@?$vector@UGPUInterpolant@brook@@V?$allocator@UGPUInterpolant@brook@@@std@@@std@@QAEXXZ 00423950 f i brook:gpukernel.obj
 0001:00022990       ??1?$vector@VInput@GPUKernel@brook@@V?$allocator@VInput@GPUKernel@brook@@@std@@@std@@QAE@XZ 00423990 f i brook:gpukernel.obj
 0001:000229c0       ?_Xlen@?$vector@VTechnique@GPUKernel@brook@@V?$allocator@VTechnique@GPUKernel@brook@@@std@@@std@@KAXXZ 004239c0 f i brook:gpukernel.obj
 0001:00022a40       ?_Xlen@?$vector@PAVGPUStream@brook@@V?$allocator@PAVGPUStream@brook@@@std@@@std@@KAXXZ 00423a40 f i brook:gpukernel.obj
 0001:00022ac0       ?_Xlen@?$vector@PAVGPUIterator@brook@@V?$allocator@PAVGPUIterator@brook@@@std@@@std@@KAXXZ 00423ac0 f i brook:gpukernel.obj
 0001:00022b40       ?_Xlen@?$vector@Ufloat4@@V?$allocator@Ufloat4@@@std@@@std@@KAXXZ 00423b40 f i brook:gpukernel.obj
 0001:00022bc0       ?_Xlen@?$vector@VArgumentInfo@GPUKernel@brook@@V?$allocator@VArgumentInfo@GPUKernel@brook@@@std@@@std@@KAXXZ 00423bc0 f i brook:gpukernel.obj
 0001:00022c40       ?_Xlen@?$vector@VReduceArgumentInfo@GPUKernel@brook@@V?$allocator@VReduceArgumentInfo@GPUKernel@brook@@@std@@@std@@KAXXZ 00423c40 f i brook:gpukernel.obj
 0001:00022cc0       ?_Xlen@?$vector@UGPUInterpolant@brook@@V?$allocator@UGPUInterpolant@brook@@@std@@@std@@KAXXZ 00423cc0 f i brook:gpukernel.obj
 0001:00022d40       ?_Xlen@?$vector@VInput@GPUKernel@brook@@V?$allocator@VInput@GPUKernel@brook@@@std@@@std@@KAXXZ 00423d40 f i brook:gpukernel.obj
 0001:00022dc0       ?_Xlen@?$vector@VPass@GPUKernel@brook@@V?$allocator@VPass@GPUKernel@brook@@@std@@@std@@KAXXZ 00423dc0 f i brook:gpukernel.obj
 0001:00022e40       ?clearArguments@GPUKernel@brook@@AAEXXZ 00423e40 f   brook:gpukernel.obj
 0001:00023080       ?clearInputs@GPUKernel@brook@@AAEXXZ 00424080 f   brook:gpukernel.obj
 0001:000230c0       ??1Pass@GPUKernel@brook@@QAE@XZ 004240c0 f i brook:gpukernel.obj
 0001:00023130       ?_Buy@?$vector@VTechnique@GPUKernel@brook@@V?$allocator@VTechnique@GPUKernel@brook@@@std@@@std@@IAE_NI@Z 00424130 f i brook:gpukernel.obj
 0001:00023180       ?_Buy@?$vector@PAVGPUStream@brook@@V?$allocator@PAVGPUStream@brook@@@std@@@std@@IAE_NI@Z 00424180 f i brook:gpukernel.obj
 0001:000231d0       ?_Buy@?$vector@PAVGPUIterator@brook@@V?$allocator@PAVGPUIterator@brook@@@std@@@std@@IAE_NI@Z 004241d0 f i brook:gpukernel.obj
 0001:00023220       ?_Buy@?$vector@Ufloat4@@V?$allocator@Ufloat4@@@std@@@std@@IAE_NI@Z 00424220 f i brook:gpukernel.obj
 0001:00023270       ?_Buy@?$vector@VArgumentInfo@GPUKernel@brook@@V?$allocator@VArgumentInfo@GPUKernel@brook@@@std@@@std@@IAE_NI@Z 00424270 f i brook:gpukernel.obj
 0001:000232c0       ?_Buy@?$vector@VReduceArgumentInfo@GPUKernel@brook@@V?$allocator@VReduceArgumentInfo@GPUKernel@brook@@@std@@@std@@IAE_NI@Z 004242c0 f i brook:gpukernel.obj
 0001:00023310       ?_Buy@?$vector@UGPUInterpolant@brook@@V?$allocator@UGPUInterpolant@brook@@@std@@@std@@IAE_NI@Z 00424310 f i brook:gpukernel.obj
 0001:00023360       ?_Buy@?$vector@VInput@GPUKernel@brook@@V?$allocator@VInput@GPUKernel@brook@@@std@@@std@@IAE_NI@Z 00424360 f i brook:gpukernel.obj
 0001:000233b0       ?_Insert_n@?$vector@VInput@GPUKernel@brook@@V?$allocator@VInput@GPUKernel@brook@@@std@@@std@@IAEXV?$_Vector_iterator@VInput@GPUKernel@brook@@V?$allocator@VInput@GPUKernel@brook@@@std@@@2@IABVInput@GPUKernel@brook@@@Z 004243b0 f i brook:gpukernel.obj
 0001:00023610       ?_Buy@?$vector@VPass@GPUKernel@brook@@V?$allocator@VPass@GPUKernel@brook@@@std@@@std@@IAE_NI@Z 00424610 f i brook:gpukernel.obj
 0001:00023660       ?_Insert_n@?$vector@PAVGPUStream@brook@@V?$allocator@PAVGPUStream@brook@@@std@@@std@@IAEXV?$_Vector_iterator@PAVGPUStream@brook@@V?$allocator@PAVGPUStream@brook@@@std@@@2@IABQAVGPUStream@brook@@@Z 00424660 f i brook:gpukernel.obj
 0001:00023820       ?_Insert_n@?$vector@PAVGPUIterator@brook@@V?$allocator@PAVGPUIterator@brook@@@std@@@std@@IAEXV?$_Vector_iterator@PAVGPUIterator@brook@@V?$allocator@PAVGPUIterator@brook@@@std@@@2@IABQAVGPUIterator@brook@@@Z 00424820 f i brook:gpukernel.obj
 0001:000239e0       ?_Insert_n@?$vector@Ufloat4@@V?$allocator@Ufloat4@@@std@@@std@@IAEXV?$_Vector_iterator@Ufloat4@@V?$allocator@Ufloat4@@@std@@@2@IABUfloat4@@@Z 004249e0 f i brook:gpukernel.obj
 0001:00023c40       ?_Insert_n@?$vector@VArgumentInfo@GPUKernel@brook@@V?$allocator@VArgumentInfo@GPUKernel@brook@@@std@@@std@@IAEXV?$_Vector_iterator@VArgumentInfo@GPUKernel@brook@@V?$allocator@VArgumentInfo@GPUKernel@brook@@@std@@@2@IABVArgumentInfo@GPUKernel@brook@@@Z 00424c40 f i brook:gpukernel.obj
 0001:00023ea0       ?_Insert_n@?$vector@VReduceArgumentInfo@GPUKernel@brook@@V?$allocator@VReduceArgumentInfo@GPUKernel@brook@@@std@@@std@@IAEXV?$_Vector_iterator@VReduceArgumentInfo@GPUKernel@brook@@V?$allocator@VReduceArgumentInfo@GPUKernel@brook@@@std@@@2@IABVReduceArgumentInfo@GPUKernel@brook@@@Z 00424ea0 f i brook:gpukernel.obj
 0001:00024100       ?_Insert_n@?$vector@UGPUInterpolant@brook@@V?$allocator@UGPUInterpolant@brook@@@std@@@std@@IAEXV?$_Vector_iterator@UGPUInterpolant@brook@@V?$allocator@UGPUInterpolant@brook@@@std@@@2@IABUGPUInterpolant@brook@@@Z 00425100 f i brook:gpukernel.obj
 0001:000243e0       ??0?$vector@VInput@GPUKernel@brook@@V?$allocator@VInput@GPUKernel@brook@@@std@@@std@@QAE@ABV01@@Z 004253e0 f i brook:gpukernel.obj
 0001:000244d0       ??4?$vector@VInput@GPUKernel@brook@@V?$allocator@VInput@GPUKernel@brook@@@std@@@std@@QAEAAV01@ABV01@@Z 004254d0 f i brook:gpukernel.obj
 0001:00024600       ??_GPass@GPUKernel@brook@@QAEPAXI@Z 00425600 f i brook:gpukernel.obj
 0001:00024620       ??0?$vector@VTechnique@GPUKernel@brook@@V?$allocator@VTechnique@GPUKernel@brook@@@std@@@std@@QAE@XZ 00425620 f i brook:gpukernel.obj
 0001:00024630       ??0?$vector@PAVGPUStream@brook@@V?$allocator@PAVGPUStream@brook@@@std@@@std@@QAE@XZ 00425630 f i brook:gpukernel.obj
 0001:00024640       ??0?$vector@PAVGPUIterator@brook@@V?$allocator@PAVGPUIterator@brook@@@std@@@std@@QAE@XZ 00425640 f i brook:gpukernel.obj
 0001:00024650       ??0?$vector@Ufloat4@@V?$allocator@Ufloat4@@@std@@@std@@QAE@XZ 00425650 f i brook:gpukernel.obj
 0001:00024660       ??0?$vector@VArgumentInfo@GPUKernel@brook@@V?$allocator@VArgumentInfo@GPUKernel@brook@@@std@@@std@@QAE@XZ 00425660 f i brook:gpukernel.obj
 0001:00024670       ??0?$vector@VReduceArgumentInfo@GPUKernel@brook@@V?$allocator@VReduceArgumentInfo@GPUKernel@brook@@@std@@@std@@QAE@XZ 00425670 f i brook:gpukernel.obj
 0001:00024680       ??0?$vector@UGPUInterpolant@brook@@V?$allocator@UGPUInterpolant@brook@@@std@@@std@@QAE@XZ 00425680 f i brook:gpukernel.obj
 0001:00024690       ??0?$vector@VInput@GPUKernel@brook@@V?$allocator@VInput@GPUKernel@brook@@@std@@@std@@QAE@XZ 00425690 f i brook:gpukernel.obj
 0001:000246a0       ?insert@?$vector@VInput@GPUKernel@brook@@V?$allocator@VInput@GPUKernel@brook@@@std@@@std@@QAE?AV?$_Vector_iterator@VInput@GPUKernel@brook@@V?$allocator@VInput@GPUKernel@brook@@@std@@@2@V32@ABVInput@GPUKernel@brook@@@Z 004256a0 f i brook:gpukernel.obj
 0001:00024730       ??0?$vector@VPass@GPUKernel@brook@@V?$allocator@VPass@GPUKernel@brook@@@std@@@std@@QAE@XZ 00425730 f i brook:gpukernel.obj
 0001:00024740       ?insert@?$vector@PAVGPUStream@brook@@V?$allocator@PAVGPUStream@brook@@@std@@@std@@QAE?AV?$_Vector_iterator@PAVGPUStream@brook@@V?$allocator@PAVGPUStream@brook@@@std@@@2@V32@ABQAVGPUStream@brook@@@Z 00425740 f i brook:gpukernel.obj
 0001:000247d0       ?insert@?$vector@PAVGPUIterator@brook@@V?$allocator@PAVGPUIterator@brook@@@std@@@std@@QAE?AV?$_Vector_iterator@PAVGPUIterator@brook@@V?$allocator@PAVGPUIterator@brook@@@std@@@2@V32@ABQAVGPUIterator@brook@@@Z 004257d0 f i brook:gpukernel.obj
 0001:00024860       ?insert@?$vector@Ufloat4@@V?$allocator@Ufloat4@@@std@@@std@@QAE?AV?$_Vector_iterator@Ufloat4@@V?$allocator@Ufloat4@@@std@@@2@V32@ABUfloat4@@@Z 00425860 f i brook:gpukernel.obj
 0001:000248f0       ?insert@?$vector@VArgumentInfo@GPUKernel@brook@@V?$allocator@VArgumentInfo@GPUKernel@brook@@@std@@@std@@QAE?AV?$_Vector_iterator@VArgumentInfo@GPUKernel@brook@@V?$allocator@VArgumentInfo@GPUKernel@brook@@@std@@@2@V32@ABVArgumentInfo@GPUKernel@brook@@@Z 004258f0 f i brook:gpukernel.obj
 0001:00024980       ?insert@?$vector@VReduceArgumentInfo@GPUKernel@brook@@V?$allocator@VReduceArgumentInfo@GPUKernel@brook@@@std@@@std@@QAE?AV?$_Vector_iterator@VReduceArgumentInfo@GPUKernel@brook@@V?$allocator@VReduceArgumentInfo@GPUKernel@brook@@@std@@@2@V32@ABVReduceArgumentInfo@GPUKernel@brook@@@Z 00425980 f i brook:gpukernel.obj
 0001:00024a10       ?resize@?$vector@PAXV?$allocator@PAX@std@@@std@@QAEXIPAX@Z 00425a10 f i brook:gpukernel.obj
 0001:00024ad0       ?resize@?$vector@UGPUInterpolant@brook@@V?$allocator@UGPUInterpolant@brook@@@std@@@std@@QAEXIUGPUInterpolant@brook@@@Z 00425ad0 f i brook:gpukernel.obj
 0001:00024bb0       ?insert@?$vector@UGPUInterpolant@brook@@V?$allocator@UGPUInterpolant@brook@@@std@@@std@@QAE?AV?$_Vector_iterator@UGPUInterpolant@brook@@V?$allocator@UGPUInterpolant@brook@@@std@@@2@V32@ABUGPUInterpolant@brook@@@Z 00425bb0 f i brook:gpukernel.obj
 0001:00024c60       ??0Pass@GPUKernel@brook@@QAE@ABV012@@Z 00425c60 f i brook:gpukernel.obj
 0001:00024cf0       ??4Pass@GPUKernel@brook@@QAEAAV012@ABV012@@Z 00425cf0 f i brook:gpukernel.obj
 0001:00024d40       ??$_Copy_opt@PAVPass@GPUKernel@brook@@PAV123@Uforward_iterator_tag@std@@@std@@YAPAVPass@GPUKernel@brook@@PAV123@00Uforward_iterator_tag@0@U_Nonscalar_ptr_iterator_tag@0@U_Range_checked_iterator_tag@0@@Z 00425d40 f i brook:gpukernel.obj
 0001:00024db0       ??$_Construct@VPass@GPUKernel@brook@@V123@@std@@YAXPAVPass@GPUKernel@brook@@ABV123@@Z 00425db0 f i brook:gpukernel.obj
 0001:00024e10       ??$_Destroy@VPass@GPUKernel@brook@@@std@@YAXPAVPass@GPUKernel@brook@@@Z 00425e10 f i brook:gpukernel.obj
 0001:00024e20       ??$_Copy_backward_opt@PAVPass@GPUKernel@brook@@PAV123@Uforward_iterator_tag@std@@@std@@YAPAVPass@GPUKernel@brook@@PAV123@00Uforward_iterator_tag@0@U_Nonscalar_ptr_iterator_tag@0@U_Range_checked_iterator_tag@0@@Z 00425e20 f i brook:gpukernel.obj
 0001:00024e90       ?push_back@?$vector@VInput@GPUKernel@brook@@V?$allocator@VInput@GPUKernel@brook@@@std@@@std@@QAEXABVInput@GPUKernel@brook@@@Z 00425e90 f i brook:gpukernel.obj
 0001:00024f20       ?push_back@?$vector@PAVGPUStream@brook@@V?$allocator@PAVGPUStream@brook@@@std@@@std@@QAEXABQAVGPUStream@brook@@@Z 00425f20 f i brook:gpukernel.obj
 0001:00024f90       ?push_back@?$vector@PAVGPUIterator@brook@@V?$allocator@PAVGPUIterator@brook@@@std@@@std@@QAEXABQAVGPUIterator@brook@@@Z 00425f90 f i brook:gpukernel.obj
 0001:00025000       ?push_back@?$vector@Ufloat4@@V?$allocator@Ufloat4@@@std@@@std@@QAEXABUfloat4@@@Z 00426000 f i brook:gpukernel.obj
 0001:00025090       ?push_back@?$vector@VArgumentInfo@GPUKernel@brook@@V?$allocator@VArgumentInfo@GPUKernel@brook@@@std@@@std@@QAEXABVArgumentInfo@GPUKernel@brook@@@Z 00426090 f i brook:gpukernel.obj
 0001:00025120       ?push_back@?$vector@VReduceArgumentInfo@GPUKernel@brook@@V?$allocator@VReduceArgumentInfo@GPUKernel@brook@@@std@@@std@@QAEXABVReduceArgumentInfo@GPUKernel@brook@@@Z 00426120 f i brook:gpukernel.obj
 0001:000251b0       ?resize@?$vector@PAXV?$allocator@PAX@std@@@std@@QAEXI@Z 004261b0 f i brook:gpukernel.obj
 0001:000251c0       ?resize@?$vector@UGPUInterpolant@brook@@V?$allocator@UGPUInterpolant@brook@@@std@@@std@@QAEXI@Z 004261c0 f i brook:gpukernel.obj
 0001:00025220       ?push_back@?$vector@UGPUInterpolant@brook@@V?$allocator@UGPUInterpolant@brook@@@std@@@std@@QAEXABUGPUInterpolant@brook@@@Z 00426220 f i brook:gpukernel.obj
 0001:000252c0       ??0Pass@GPUKernel@brook@@QAE@XZ 004262c0 f i brook:gpukernel.obj
 0001:00025320       ??$_Copy_opt@PAVPass@GPUKernel@brook@@PAV123@@std@@YAPAVPass@GPUKernel@brook@@PAV123@00Urandom_access_iterator_tag@0@U_Nonscalar_ptr_iterator_tag@0@U_Range_checked_iterator_tag@0@@Z 00426320 f i brook:gpukernel.obj
 0001:00025380       ??$_Fill@PAVPass@GPUKernel@brook@@V123@@std@@YAXPAVPass@GPUKernel@brook@@0ABV123@@Z 00426380 f i brook:gpukernel.obj
 0001:000253e0       ?construct@?$allocator@VPass@GPUKernel@brook@@@std@@QAEXPAVPass@GPUKernel@brook@@ABV345@@Z 004263e0 f i brook:gpukernel.obj
 0001:00025400       ?destroy@?$allocator@VPass@GPUKernel@brook@@@std@@QAEXPAVPass@GPUKernel@brook@@@Z 00426400 f i brook:gpukernel.obj
 0001:00025410       ??$_Copy_backward_opt@PAVPass@GPUKernel@brook@@PAV123@@std@@YAPAVPass@GPUKernel@brook@@PAV123@00Urandom_access_iterator_tag@0@U_Nonscalar_ptr_iterator_tag@0@U_Range_checked_iterator_tag@0@@Z 00426410 f i brook:gpukernel.obj
 0001:00025470       ??$_Uninit_copy@PBVPass@GPUKernel@brook@@PAV123@V?$allocator@VPass@GPUKernel@brook@@@std@@@std@@YAPAVPass@GPUKernel@brook@@PBV123@0PAV123@AAV?$allocator@VPass@GPUKernel@brook@@@0@U_Nonscalar_ptr_iterator_tag@0@U_Range_checked_iterator_tag@0@@Z 00426470 f i brook:gpukernel.obj
 0001:00025510       ??$_Uninit_copy@PAVPass@GPUKernel@brook@@PAV123@V?$allocator@VPass@GPUKernel@brook@@@std@@@std@@YAPAVPass@GPUKernel@brook@@PAV123@00AAV?$allocator@VPass@GPUKernel@brook@@@0@U_Nonscalar_ptr_iterator_tag@0@U_Range_checked_iterator_tag@0@@Z 00426510 f i brook:gpukernel.obj
 0001:000255b0       ?addConstant@Pass@GPUKernel@brook@@QAEXABVgpu_input_desc@desc@3@@Z 004265b0 f i brook:gpukernel.obj
 0001:000255e0       ?addSampler@Pass@GPUKernel@brook@@QAEXABVgpu_input_desc@desc@3@@Z 004265e0 f i brook:gpukernel.obj
 0001:00025610       ?addInterpolant@Pass@GPUKernel@brook@@QAEXABVgpu_input_desc@desc@3@@Z 00426610 f i brook:gpukernel.obj
 0001:00025640       ?addOutput@Pass@GPUKernel@brook@@QAEXABVgpu_input_desc@desc@3@@Z 00426640 f i brook:gpukernel.obj
 0001:00025670       ?pushArgument@GPUKernel@brook@@AAEXPAVArgumentType@12@I@Z 00426670 f   brook:gpukernel.obj
 0001:000256a0       ?endReduction@GPUKernel@brook@@AAEXAAVReductionState@12@@Z 004266a0 f   brook:gpukernel.obj
 0001:00025810       ??$unchecked_copy@PAVPass@GPUKernel@brook@@PAV123@@stdext@@YAPAVPass@GPUKernel@brook@@PAV123@00@Z 00426810 f i brook:gpukernel.obj
 0001:00025870       ??$fill@PAVPass@GPUKernel@brook@@V123@@std@@YAXPAVPass@GPUKernel@brook@@0ABV123@@Z 00426870 f i brook:gpukernel.obj
 0001:00025880       ??$_Move_backward_opt@PAVPass@GPUKernel@brook@@PAV123@Urandom_access_iterator_tag@std@@U_Undefined_move_tag@5@@std@@YAPAVPass@GPUKernel@brook@@PAV123@00Urandom_access_iterator_tag@0@U_Undefined_move_tag@0@U_Range_checked_iterator_tag@0@@Z 00426880 f i brook:gpukernel.obj
 0001:000258a0       ??$unchecked_uninitialized_copy@V?$_Vector_const_iterator@VPass@GPUKernel@brook@@V?$allocator@VPass@GPUKernel@brook@@@std@@@std@@PAVPass@GPUKernel@brook@@V?$allocator@VPass@GPUKernel@brook@@@2@@stdext@@YAPAVPass@GPUKernel@brook@@V?$_Vector_const_iterator@VPass@GPUKernel@brook@@V?$allocator@VPass@GPUKernel@brook@@@std@@@std@@0PAV123@AAV?$allocator@VPass@GPUKernel@brook@@@5@@Z 004268a0 f i brook:gpukernel.obj
 0001:000258d0       ??$_Destroy_range@VPass@GPUKernel@brook@@V?$allocator@VPass@GPUKernel@brook@@@std@@@std@@YAXPAVPass@GPUKernel@brook@@0AAV?$allocator@VPass@GPUKernel@brook@@@0@U_Nonscalar_ptr_iterator_tag@0@@Z 004268d0 f i brook:gpukernel.obj
 0001:00025900       ??$_Uninit_fill_n@PAVPass@GPUKernel@brook@@IV123@V?$allocator@VPass@GPUKernel@brook@@@std@@@std@@YAXPAVPass@GPUKernel@brook@@IABV123@AAV?$allocator@VPass@GPUKernel@brook@@@0@U_Nonscalar_ptr_iterator_tag@0@U_Range_checked_iterator_tag@0@@Z 00426900 f i brook:gpukernel.obj
 0001:000259a0       ??$unchecked_uninitialized_copy@PAVPass@GPUKernel@brook@@PAV123@V?$allocator@VPass@GPUKernel@brook@@@std@@@stdext@@YAPAVPass@GPUKernel@brook@@PAV123@00AAV?$allocator@VPass@GPUKernel@brook@@@std@@@Z 004269a0 f i brook:gpukernel.obj
 0001:000259d0       ?PushStream@GPUKernel@brook@@UAEXPAVStream@2@@Z 004269d0 f   brook:gpukernel.obj
 0001:00025a30       ?PushIter@GPUKernel@brook@@UAEXPAVIter@2@@Z 00426a30 f   brook:gpukernel.obj
 0001:00025a90       ?PushConstant@GPUKernel@brook@@UAEXABUfloat4@@@Z 00426a90 f   brook:gpukernel.obj
 0001:00025ae0       ?PushGatherStream@GPUKernel@brook@@UAEXPAVStream@2@@Z 00426ae0 f   brook:gpukernel.obj
 0001:00025b40       ?PushReduce@GPUKernel@brook@@UAEXPAXW4StreamType@2@@Z 00426b40 f   brook:gpukernel.obj
 0001:00025ba0       ?PushOutput@GPUKernel@brook@@UAEXPAVStream@2@@Z 00426ba0 f   brook:gpukernel.obj
 0001:00025c00       ??$_Unchecked_move_backward@PAVPass@GPUKernel@brook@@PAV123@@stdext@@YAPAVPass@GPUKernel@brook@@PAV123@00@Z 00426c00 f i brook:gpukernel.obj
 0001:00025c30       ??$_Ucopy@V?$_Vector_const_iterator@VPass@GPUKernel@brook@@V?$allocator@VPass@GPUKernel@brook@@@std@@@std@@@?$vector@VPass@GPUKernel@brook@@V?$allocator@VPass@GPUKernel@brook@@@std@@@std@@IAEPAVPass@GPUKernel@brook@@V?$_Vector_const_iterator@VPass@GPUKernel@brook@@V?$allocator@VPass@GPUKernel@brook@@@std@@@1@0PAV234@@Z 00426c30 f i brook:gpukernel.obj
 0001:00025c60       ??$_Destroy_range@VPass@GPUKernel@brook@@V?$allocator@VPass@GPUKernel@brook@@@std@@@std@@YAXPAVPass@GPUKernel@brook@@0AAV?$allocator@VPass@GPUKernel@brook@@@0@@Z 00426c60 f i brook:gpukernel.obj
 0001:00025c90       ??$unchecked_uninitialized_fill_n@PAVPass@GPUKernel@brook@@IV123@V?$allocator@VPass@GPUKernel@brook@@@std@@@stdext@@YAXPAVPass@GPUKernel@brook@@IABV123@AAV?$allocator@VPass@GPUKernel@brook@@@std@@@Z 00426c90 f i brook:gpukernel.obj
 0001:00025cc0       ??$_Uninit_move@PAVPass@GPUKernel@brook@@PAV123@V?$allocator@VPass@GPUKernel@brook@@@std@@U_Undefined_move_tag@5@@std@@YAPAVPass@GPUKernel@brook@@PAV123@00AAV?$allocator@VPass@GPUKernel@brook@@@0@U_Undefined_move_tag@0@U_Range_checked_iterator_tag@0@@Z 00426cc0 f i brook:gpukernel.obj
 0001:00025ce0       ??$_Ucopy@PAVPass@GPUKernel@brook@@@?$vector@VPass@GPUKernel@brook@@V?$allocator@VPass@GPUKernel@brook@@@std@@@std@@IAEPAVPass@GPUKernel@brook@@PAV234@00@Z 00426ce0 f i brook:gpukernel.obj
 0001:00025d10       ?dumpReductionBuffer@GPUKernel@brook@@AAEXPAXIIII@Z 00426d10 f   brook:gpukernel.obj
 0001:00025f90       ?getGlobalConstant@GPUKernel@brook@@AAE?AUfloat4@@I@Z 00426f90 f   brook:gpukernel.obj
 0001:00026010       ?getGlobalSampler@GPUKernel@brook@@AAEPAXI@Z 00427010 f   brook:gpukernel.obj
 0001:00026070       ?getGlobalInterpolant@GPUKernel@brook@@AAEXIAAUGPUInterpolant@2@@Z 00427070 f   brook:gpukernel.obj
 0001:00026140       ?getGlobalOutput@GPUKernel@brook@@AAEPAXI@Z 00427140 f   brook:gpukernel.obj
 0001:000261a0       ?getTexture@ArgumentType@GPUKernel@brook@@UAEPAXPAV23@II@Z 004271a0 f   brook:gpukernel.obj
 0001:000261c0       ?getInterpolant@ArgumentType@GPUKernel@brook@@UAEXPAV23@IIAAUGPUInterpolant@3@@Z 004271c0 f   brook:gpukernel.obj
 0001:000261e0       ?getConstant@ArgumentType@GPUKernel@brook@@UAE?AUfloat4@@PAV23@II@Z 004271e0 f   brook:gpukernel.obj
 0001:00026200       ?getInterpolant@StreamArgumentType@GPUKernel@brook@@UAEXPAV23@IIAAUGPUInterpolant@3@@Z 00427200 f   brook:gpukernel.obj
 0001:00026260       ?getConstant@StreamArgumentType@GPUKernel@brook@@UAE?AUfloat4@@PAV23@II@Z 00427260 f   brook:gpukernel.obj
 0001:00026390       ?getConstant@IteratorArgumentType@GPUKernel@brook@@UAE?AUfloat4@@PAV23@II@Z 00427390 f   brook:gpukernel.obj
 0001:000264c0       ?getConstant@GatherArgumentType@GPUKernel@brook@@UAE?AUfloat4@@PAV23@II@Z 004274c0 f   brook:gpukernel.obj
 0001:000265f0       ?getInterpolant@OutputArgumentType@GPUKernel@brook@@UAEXPAV23@IIAAUGPUInterpolant@3@@Z 004275f0 f   brook:gpukernel.obj
 0001:00026650       ?getConstant@OutputArgumentType@GPUKernel@brook@@UAE?AUfloat4@@PAV23@II@Z 00427650 f   brook:gpukernel.obj
 0001:000266c0       ?_Destroy@?$vector@VPass@GPUKernel@brook@@V?$allocator@VPass@GPUKernel@brook@@@std@@@std@@IAEXPAVPass@GPUKernel@brook@@0@Z 004276c0 f i brook:gpukernel.obj
 0001:000266f0       ?_Ufill@?$vector@VPass@GPUKernel@brook@@V?$allocator@VPass@GPUKernel@brook@@@std@@@std@@IAEPAVPass@GPUKernel@brook@@PAV345@IABV345@@Z 004276f0 f i brook:gpukernel.obj
 0001:00026730       ??$_Unchecked_uninitialized_move@PAVPass@GPUKernel@brook@@PAV123@V?$allocator@VPass@GPUKernel@brook@@@std@@@stdext@@YAPAVPass@GPUKernel@brook@@PAV123@00AAV?$allocator@VPass@GPUKernel@brook@@@std@@@Z 00427730 f i brook:gpukernel.obj
 0001:00026760       ?dumpReductionState@GPUKernel@brook@@AAEXAAVReductionState@12@@Z 00427760 f   brook:gpukernel.obj
 0001:00026970       ?bindConstant@GPUKernel@brook@@AAEXPAXIABVInput@12@@Z 00427970 f   brook:gpukernel.obj
 0001:00026a10       ?bindSampler@GPUKernel@brook@@AAEXIABVInput@12@@Z 00427a10 f   brook:gpukernel.obj
 0001:00026a90       ?bindInterpolant@GPUKernel@brook@@AAEXIABVInput@12@@Z 00427a90 f   brook:gpukernel.obj
 0001:00026b70       ?bindOutput@GPUKernel@brook@@AAEXIABVInput@12@@Z 00427b70 f   brook:gpukernel.obj
 0001:00026bf0       ?erase@?$vector@VPass@GPUKernel@brook@@V?$allocator@VPass@GPUKernel@brook@@@std@@@std@@QAE?AV?$_Vector_iterator@VPass@GPUKernel@brook@@V?$allocator@VPass@GPUKernel@brook@@@std@@@2@V32@0@Z 00427bf0 f i brook:gpukernel.obj
 0001:00026c60       ?_Tidy@?$vector@VPass@GPUKernel@brook@@V?$allocator@VPass@GPUKernel@brook@@@std@@@std@@IAEXXZ 00427c60 f i brook:gpukernel.obj
 0001:00026cb0       ??0?$vector@VPass@GPUKernel@brook@@V?$allocator@VPass@GPUKernel@brook@@@std@@@std@@QAE@ABV01@@Z 00427cb0 f i brook:gpukernel.obj
 0001:00026db0       ??$_Umove@PAVPass@GPUKernel@brook@@@?$vector@VPass@GPUKernel@brook@@V?$allocator@VPass@GPUKernel@brook@@@std@@@std@@IAEPAVPass@GPUKernel@brook@@PAV234@00@Z 00427db0 f i brook:gpukernel.obj
 0001:00026de0       ?clear@?$vector@VPass@GPUKernel@brook@@V?$allocator@VPass@GPUKernel@brook@@@std@@@std@@QAEXXZ 00427de0 f i brook:gpukernel.obj
 0001:00026e20       ?executePass@GPUKernel@brook@@AAEXABVPass@12@@Z 00427e20 f   brook:gpukernel.obj
 0001:00027100       ??1?$vector@VPass@GPUKernel@brook@@V?$allocator@VPass@GPUKernel@brook@@@std@@@std@@QAE@XZ 00428100 f i brook:gpukernel.obj
 0001:00027110       ?_Insert_n@?$vector@VPass@GPUKernel@brook@@V?$allocator@VPass@GPUKernel@brook@@@std@@@std@@IAEXV?$_Vector_iterator@VPass@GPUKernel@brook@@V?$allocator@VPass@GPUKernel@brook@@@std@@@2@IABVPass@GPUKernel@brook@@@Z 00428110 f i brook:gpukernel.obj
 0001:00027400       ??0Technique@GPUKernel@brook@@QAE@ABV012@@Z 00428400 f i brook:gpukernel.obj
 0001:00027430       ??4?$vector@VPass@GPUKernel@brook@@V?$allocator@VPass@GPUKernel@brook@@@std@@@std@@QAEAAV01@ABV01@@Z 00428430 f i brook:gpukernel.obj
 0001:000275b0       ??$_Construct@VTechnique@GPUKernel@brook@@V123@@std@@YAXPAVTechnique@GPUKernel@brook@@ABV123@@Z 004285b0 f i brook:gpukernel.obj
 0001:00027620       ?executeTechnique@GPUKernel@brook@@AAEXABVTechnique@12@@Z 00428620 f   brook:gpukernel.obj
 0001:00027690       ?executeReductionTechnique@GPUKernel@brook@@AAEXI@Z 00428690 f   brook:gpukernel.obj
 0001:00027720       ?executeReductionStep@GPUKernel@brook@@AAEXAAVReductionState@12@@Z 00428720 f   brook:gpukernel.obj
 0001:000280f0       ?executeSlopStep@GPUKernel@brook@@AAEXAAVReductionState@12@@Z 004290f0 f   brook:gpukernel.obj
 0001:000282b0       ??0Technique@GPUKernel@brook@@QAE@XZ 004292b0 f i brook:gpukernel.obj
 0001:000282c0       ??1Technique@GPUKernel@brook@@QAE@XZ 004292c0 f i brook:gpukernel.obj
 0001:000282d0       ?resize@?$vector@VPass@GPUKernel@brook@@V?$allocator@VPass@GPUKernel@brook@@@std@@@std@@QAEXIVPass@GPUKernel@brook@@@Z 004292d0 f i brook:gpukernel.obj
 0001:000283e0       ??4Technique@GPUKernel@brook@@QAEAAV012@ABV012@@Z 004293e0 f i brook:gpukernel.obj
 0001:00028410       ?construct@?$allocator@VTechnique@GPUKernel@brook@@@std@@QAEXPAVTechnique@GPUKernel@brook@@ABV345@@Z 00429410 f i brook:gpukernel.obj
 0001:00028430       ??$_Copy_opt@PAVTechnique@GPUKernel@brook@@PAV123@Uforward_iterator_tag@std@@@std@@YAPAVTechnique@GPUKernel@brook@@PAV123@00Uforward_iterator_tag@0@U_Nonscalar_ptr_iterator_tag@0@U_Range_checked_iterator_tag@0@@Z 00429430 f i brook:gpukernel.obj
 0001:00028480       ??_GTechnique@GPUKernel@brook@@QAEPAXI@Z 00429480 f i brook:gpukernel.obj
 0001:000284b0       ??$_Copy_backward_opt@PAVTechnique@GPUKernel@brook@@PAV123@Uforward_iterator_tag@std@@@std@@YAPAVTechnique@GPUKernel@brook@@PAV123@00Uforward_iterator_tag@0@U_Nonscalar_ptr_iterator_tag@0@U_Range_checked_iterator_tag@0@@Z 004294b0 f i brook:gpukernel.obj
 0001:00028500       ?Map@GPUKernel@brook@@UAEXXZ 00429500 f   brook:gpukernel.obj
 0001:00029110       ?reduceToStream@GPUKernel@brook@@AAEXPAXII@Z 0042a110 f   brook:gpukernel.obj
 0001:00029360       ?resize@?$vector@VPass@GPUKernel@brook@@V?$allocator@VPass@GPUKernel@brook@@@std@@@std@@QAEXI@Z 0042a360 f i brook:gpukernel.obj
 0001:00029390       ??$_Copy_opt@PAVTechnique@GPUKernel@brook@@PAV123@@std@@YAPAVTechnique@GPUKernel@brook@@PAV123@00Urandom_access_iterator_tag@0@U_Nonscalar_ptr_iterator_tag@0@U_Range_checked_iterator_tag@0@@Z 0042a390 f i brook:gpukernel.obj
 0001:000293f0       ??$_Fill@PAVTechnique@GPUKernel@brook@@V123@@std@@YAXPAVTechnique@GPUKernel@brook@@0ABV123@@Z 0042a3f0 f i brook:gpukernel.obj
 0001:00029430       ??$_Copy_backward_opt@PAVTechnique@GPUKernel@brook@@PAV123@@std@@YAPAVTechnique@GPUKernel@brook@@PAV123@00Urandom_access_iterator_tag@0@U_Nonscalar_ptr_iterator_tag@0@U_Range_checked_iterator_tag@0@@Z 0042a430 f i brook:gpukernel.obj
 0001:00029490       ??$_Destroy@VTechnique@GPUKernel@brook@@@std@@YAXPAVTechnique@GPUKernel@brook@@@Z 0042a490 f i brook:gpukernel.obj
 0001:000294a0       ?Reduce@GPUKernel@brook@@UAEXXZ 0042a4a0 f   brook:gpukernel.obj
 0001:00029690       ??$unchecked_copy@PAVTechnique@GPUKernel@brook@@PAV123@@stdext@@YAPAVTechnique@GPUKernel@brook@@PAV123@00@Z 0042a690 f i brook:gpukernel.obj
 0001:000296f0       ??$fill@PAVTechnique@GPUKernel@brook@@V123@@std@@YAXPAVTechnique@GPUKernel@brook@@0ABV123@@Z 0042a6f0 f i brook:gpukernel.obj
 0001:00029700       ??$_Move_backward_opt@PAVTechnique@GPUKernel@brook@@PAV123@Urandom_access_iterator_tag@std@@U_Undefined_move_tag@5@@std@@YAPAVTechnique@GPUKernel@brook@@PAV123@00Urandom_access_iterator_tag@0@U_Undefined_move_tag@0@U_Range_checked_iterator_tag@0@@Z 0042a700 f i brook:gpukernel.obj
 0001:00029720       ?destroy@?$allocator@VTechnique@GPUKernel@brook@@@std@@QAEXPAVTechnique@GPUKernel@brook@@@Z 0042a720 f i brook:gpukernel.obj
 0001:00029730       ??$_Uninit_copy@PAVTechnique@GPUKernel@brook@@PAV123@V?$allocator@VTechnique@GPUKernel@brook@@@std@@@std@@YAPAVTechnique@GPUKernel@brook@@PAV123@00AAV?$allocator@VTechnique@GPUKernel@brook@@@0@U_Nonscalar_ptr_iterator_tag@0@U_Range_checked_iterator_tag@0@@Z 0042a730 f i brook:gpukernel.obj
 0001:000297c0       ??$_Unchecked_move_backward@PAVTechnique@GPUKernel@brook@@PAV123@@stdext@@YAPAVTechnique@GPUKernel@brook@@PAV123@00@Z 0042a7c0 f i brook:gpukernel.obj
 0001:000297f0       ??$_Destroy_range@VTechnique@GPUKernel@brook@@V?$allocator@VTechnique@GPUKernel@brook@@@std@@@std@@YAXPAVTechnique@GPUKernel@brook@@0AAV?$allocator@VTechnique@GPUKernel@brook@@@0@U_Nonscalar_ptr_iterator_tag@0@@Z 0042a7f0 f i brook:gpukernel.obj
 0001:000298e0       ??$_Uninit_fill_n@PAVTechnique@GPUKernel@brook@@IV123@V?$allocator@VTechnique@GPUKernel@brook@@@std@@@std@@YAXPAVTechnique@GPUKernel@brook@@IABV123@AAV?$allocator@VTechnique@GPUKernel@brook@@@0@U_Nonscalar_ptr_iterator_tag@0@U_Range_checked_iterator_tag@0@@Z 0042a8e0 f i brook:gpukernel.obj
 0001:00029970       ??$unchecked_uninitialized_copy@PAVTechnique@GPUKernel@brook@@PAV123@V?$allocator@VTechnique@GPUKernel@brook@@@std@@@stdext@@YAPAVTechnique@GPUKernel@brook@@PAV123@00AAV?$allocator@VTechnique@GPUKernel@brook@@@std@@@Z 0042a970 f i brook:gpukernel.obj
 0001:000299a0       ??$_Destroy_range@VTechnique@GPUKernel@brook@@V?$allocator@VTechnique@GPUKernel@brook@@@std@@@std@@YAXPAVTechnique@GPUKernel@brook@@0AAV?$allocator@VTechnique@GPUKernel@brook@@@0@@Z 0042a9a0 f i brook:gpukernel.obj
 0001:000299c0       ??$unchecked_uninitialized_fill_n@PAVTechnique@GPUKernel@brook@@IV123@V?$allocator@VTechnique@GPUKernel@brook@@@std@@@stdext@@YAXPAVTechnique@GPUKernel@brook@@IABV123@AAV?$allocator@VTechnique@GPUKernel@brook@@@std@@@Z 0042a9c0 f i brook:gpukernel.obj
 0001:000299f0       ??$_Uninit_move@PAVTechnique@GPUKernel@brook@@PAV123@V?$allocator@VTechnique@GPUKernel@brook@@@std@@U_Undefined_move_tag@5@@std@@YAPAVTechnique@GPUKernel@brook@@PAV123@00AAV?$allocator@VTechnique@GPUKernel@brook@@@0@U_Undefined_move_tag@0@U_Range_checked_iterator_tag@0@@Z 0042a9f0 f i brook:gpukernel.obj
 0001:00029a10       ?_Destroy@?$vector@VTechnique@GPUKernel@brook@@V?$allocator@VTechnique@GPUKernel@brook@@@std@@@std@@IAEXPAVTechnique@GPUKernel@brook@@0@Z 0042aa10 f i brook:gpukernel.obj
 0001:00029a30       ?_Ufill@?$vector@VTechnique@GPUKernel@brook@@V?$allocator@VTechnique@GPUKernel@brook@@@std@@@std@@IAEPAVTechnique@GPUKernel@brook@@PAV345@IABV345@@Z 0042aa30 f i brook:gpukernel.obj
 0001:00029a70       ??$_Unchecked_uninitialized_move@PAVTechnique@GPUKernel@brook@@PAV123@V?$allocator@VTechnique@GPUKernel@brook@@@std@@@stdext@@YAPAVTechnique@GPUKernel@brook@@PAV123@00AAV?$allocator@VTechnique@GPUKernel@brook@@@std@@@Z 0042aa70 f i brook:gpukernel.obj
 0001:00029aa0       ?_Tidy@?$vector@VTechnique@GPUKernel@brook@@V?$allocator@VTechnique@GPUKernel@brook@@@std@@@std@@IAEXXZ 0042aaa0 f i brook:gpukernel.obj
 0001:00029ae0       ?erase@?$vector@VTechnique@GPUKernel@brook@@V?$allocator@VTechnique@GPUKernel@brook@@@std@@@std@@QAE?AV?$_Vector_iterator@VTechnique@GPUKernel@brook@@V?$allocator@VTechnique@GPUKernel@brook@@@std@@@2@V32@0@Z 0042aae0 f i brook:gpukernel.obj
 0001:00029b40       ??$_Umove@PAVTechnique@GPUKernel@brook@@@?$vector@VTechnique@GPUKernel@brook@@V?$allocator@VTechnique@GPUKernel@brook@@@std@@@std@@IAEPAVTechnique@GPUKernel@brook@@PAV234@00@Z 0042ab40 f i brook:gpukernel.obj
 0001:00029b70       ??1?$vector@VTechnique@GPUKernel@brook@@V?$allocator@VTechnique@GPUKernel@brook@@@std@@@std@@QAE@XZ 0042ab70 f i brook:gpukernel.obj
 0001:00029bb0       ?_Insert_n@?$vector@VTechnique@GPUKernel@brook@@V?$allocator@VTechnique@GPUKernel@brook@@@std@@@std@@IAEXV?$_Vector_iterator@VTechnique@GPUKernel@brook@@V?$allocator@VTechnique@GPUKernel@brook@@@std@@@2@IABVTechnique@GPUKernel@brook@@@Z 0042abb0 f i brook:gpukernel.obj
 0001:00029ec0       ??0GPUKernel@brook@@AAE@PAVGPURuntime@1@@Z 0042aec0 f   brook:gpukernel.obj
 0001:00029fc0       ??1GPUKernel@brook@@EAE@XZ 0042afc0 f   brook:gpukernel.obj
 0001:0002a180       ?resize@?$vector@VTechnique@GPUKernel@brook@@V?$allocator@VTechnique@GPUKernel@brook@@@std@@@std@@QAEXIVTechnique@GPUKernel@brook@@@Z 0042b180 f i brook:gpukernel.obj
 0001:0002a290       ??_EGPUKernel@brook@@EAEPAXI@Z 0042b290 f i brook:gpukernel.obj
 0001:0002a290       ??_GGPUKernel@brook@@EAEPAXI@Z 0042b290 f i brook:gpukernel.obj
 0001:0002a2b0       ?resize@?$vector@VTechnique@GPUKernel@brook@@V?$allocator@VTechnique@GPUKernel@brook@@@std@@@std@@QAEXI@Z 0042b2b0 f i brook:gpukernel.obj
 0001:0002a2e0       ?initialize@GPUKernel@brook@@AAE_NPBDPBVgpu_kernel_desc@desc@2@@Z 0042b2e0 f   brook:gpukernel.obj
 0001:0002a7a0       ?initialize@GPUKernel@brook@@AAE_NQAPBX@Z 0042b7a0 f   brook:gpukernel.obj
 0001:0002a870       ?create@GPUKernel@brook@@SAPAV12@PAVGPURuntime@2@QAPBX@Z 0042b870 f   brook:gpukernel.obj
 0001:0002a910       ??Bint2@@QBEPBHXZ          0042b910 f i brook:gpustream.obj
 0001:0002a920       ??Bint3@@QBEPBHXZ          0042b920 f i brook:gpustream.obj
 0001:0002a930       ??Bint4@@QBEPBHXZ          0042b930 f i brook:gpustream.obj
 0001:0002a940       ?getElementSize@GPUStreamData@brook@@QBEIXZ 0042b940 f i brook:gpustream.obj
 0001:0002a950       ??0Field@GPUStreamData@brook@@QAE@W4StreamType@2@IPAX@Z 0042b950 f i brook:gpustream.obj
 0001:0002a970       ?acquireReference@GPUStreamData@brook@@QAEXXZ 0042b970 f   brook:gpustream.obj
 0001:0002a980       ??0GPUStream@brook@@QAE@PAVGPUStreamData@1@PBI1@Z 0042b980 f   brook:gpustream.obj
 0001:0002aa10       ?getTotalSize@GPUStreamData@brook@@QBEIXZ 0042ba10 f i brook:gpustream.obj
 0001:0002aa20       ?getDomainMin@GPUStream@brook@@UBEPBIXZ 0042ba20 f i brook:gpustream.obj
 0001:0002aa30       ?getDomainMax@GPUStream@brook@@UBEPBIXZ 0042ba30 f i brook:gpustream.obj
 0001:0002aa40       ?getDimension@GPUStream@brook@@UBEIXZ 0042ba40 f i brook:gpustream.obj
 0001:0002aa50       ?getTotalSize@GPUStream@brook@@UBEIXZ 0042ba50 f i brook:gpustream.obj
 0001:0002aa60       ?getATTextureShapeConstant@GPUStream@brook@@QAE?AUfloat4@@XZ 0042ba60 f   brook:gpustream.obj
 0001:0002aac0       ?getATDomainMinConstant@GPUStream@brook@@QAE?AUfloat4@@XZ 0042bac0 f   brook:gpustream.obj
 0001:0002aba0       ?getGatherConstant@GPUStream@brook@@QBE?AUfloat4@@XZ 0042bba0 f   brook:gpustream.obj
 0001:0002abe0       ??A?$vector@VField@GPUStreamData@brook@@V?$allocator@VField@GPUStreamData@brook@@@std@@@std@@QBEABVField@GPUStreamData@brook@@I@Z 0042bbe0 f i brook:gpustream.obj
 0001:0002ac20       ?capacity@?$vector@VField@GPUStreamData@brook@@V?$allocator@VField@GPUStreamData@brook@@@std@@@std@@QBEIXZ 0042bc20 f i brook:gpustream.obj
 0001:0002ac40       ??0?$allocator@VField@GPUStreamData@brook@@@std@@QAE@XZ 0042bc40 f i brook:gpustream.obj
 0001:0002ac50       ??0?$allocator@VField@GPUStreamData@brook@@@std@@QAE@ABV01@@Z 0042bc50 f i brook:gpustream.obj
 0001:0002ac60       ?deallocate@?$allocator@VField@GPUStreamData@brook@@@std@@QAEXPAVField@GPUStreamData@brook@@I@Z 0042bc60 f i brook:gpustream.obj
 0001:0002ac70       ?max_size@?$allocator@VField@GPUStreamData@brook@@@std@@QBEIXZ 0042bc70 f i brook:gpustream.obj
 0001:0002ac80       ??G?$_Vector_const_iterator@VField@GPUStreamData@brook@@V?$allocator@VField@GPUStreamData@brook@@@std@@@std@@QBEHABV01@@Z 0042bc80 f i brook:gpustream.obj
 0001:0002acc0       ??0?$_Ranit@VField@GPUStreamData@brook@@HPBV123@ABV123@@std@@QAE@XZ 0042bcc0 f i brook:gpustream.obj
 0001:0002acd0       ??Y?$_Vector_const_iterator@VField@GPUStreamData@brook@@V?$allocator@VField@GPUStreamData@brook@@@std@@@std@@QAEAAV01@H@Z 0042bcd0 f i brook:gpustream.obj
 0001:0002ad10       ??$_Allocate@VField@GPUStreamData@brook@@@std@@YAPAVField@GPUStreamData@brook@@IPAV123@@Z 0042bd10 f i brook:gpustream.obj
 0001:0002ad70       ??$_Ptr_cat@PAVField@GPUStreamData@brook@@PAV123@@std@@YA?AU_Nonscalar_ptr_iterator_tag@0@AAPAVField@GPUStreamData@brook@@0@Z 0042bd70 f i brook:gpustream.obj
 0001:0002ad80       ??$_Fill@PAVField@GPUStreamData@brook@@V123@@std@@YAXPAVField@GPUStreamData@brook@@0ABV123@@Z 0042bd80 f i brook:gpustream.obj
 0001:0002adb0       ??$_Iter_random@PAVField@GPUStreamData@brook@@PAV123@@std@@YA?AUrandom_access_iterator_tag@0@ABQAVField@GPUStreamData@brook@@0@Z 0042bdb0 f i brook:gpustream.obj
 0001:0002adc0       ??$_Move_cat@PAVField@GPUStreamData@brook@@@std@@YA?AU_Undefined_move_tag@0@ABQAVField@GPUStreamData@brook@@@Z 0042bdc0 f i brook:gpustream.obj
 0001:0002add0       ??$_Checked_base@PAVField@GPUStreamData@brook@@@std@@YAPAVField@GPUStreamData@brook@@AAPAV123@U_Unchanged_checked_iterator_base_type_tag@0@@Z 0042bdd0 f i brook:gpustream.obj
 0001:0002ade0       ??$_Construct@VField@GPUStreamData@brook@@V123@@std@@YAXPAVField@GPUStreamData@brook@@ABV123@@Z 0042bde0 f i brook:gpustream.obj
 0001:0002ae00       ??$_Destroy@VField@GPUStreamData@brook@@@std@@YAXPAVField@GPUStreamData@brook@@@Z 0042be00 f i brook:gpustream.obj
 0001:0002ae10       ??$_Copy_backward_opt@PAVField@GPUStreamData@brook@@PAV123@Uforward_iterator_tag@std@@@std@@YAPAVField@GPUStreamData@brook@@PAV123@00Uforward_iterator_tag@0@U_Nonscalar_ptr_iterator_tag@0@U_Range_checked_iterator_tag@0@@Z 0042be10 f i brook:gpustream.obj
 0001:0002ae40       ?getFieldCount@GPUStreamData@brook@@QBEIXZ 0042be40 f i brook:gpustream.obj
 0001:0002ae60       ?getIndexedFieldType@GPUStreamData@brook@@QBE?AW4StreamType@2@I@Z 0042be60 f i brook:gpustream.obj
 0001:0002aea0       ?getFieldCount@GPUStream@brook@@UBEIXZ 0042bea0 f i brook:gpustream.obj
 0001:0002aed0       ?getIndexedFieldType@GPUStream@brook@@UBE?AW4StreamType@2@I@Z 0042bed0 f i brook:gpustream.obj
 0001:0002af10       ?getOutputRegion@GPUStreamData@brook@@QAEXPBI0AAUGPURegion@2@@Z 0042bf10 f   brook:gpustream.obj
 0001:0002afd0       ?getStreamInterpolant@GPUStreamData@brook@@QAEXPBI0IIAAUGPUInterpolant@2@@Z 0042bfd0 f   brook:gpustream.obj
 0001:0002b030       ?getOutputRegion@GPUStream@brook@@QAEXAAUGPURegion@2@@Z 0042c030 f   brook:gpustream.obj
 0001:0002b050       ?getStreamInterpolant@GPUStream@brook@@QAEXIIAAUGPUInterpolant@2@@Z 0042c050 f   brook:gpustream.obj
 0001:0002b080       ?getIndexedFieldRenderData@GPUStream@brook@@UAEPAXI@Z 0042c080 f   brook:gpustream.obj
 0001:0002b0d0       ?synchronizeRenderData@GPUStream@brook@@UAEXXZ 0042c0d0 f   brook:gpustream.obj
 0001:0002b160       ??0?$_Vector_val@VField@GPUStreamData@brook@@V?$allocator@VField@GPUStreamData@brook@@@std@@@std@@IAE@V?$allocator@VField@GPUStreamData@brook@@@1@@Z 0042c160 f i brook:gpustream.obj
 0001:0002b170       ?max_size@?$vector@VField@GPUStreamData@brook@@V?$allocator@VField@GPUStreamData@brook@@@std@@@std@@QBEIXZ 0042c170 f i brook:gpustream.obj
 0001:0002b180       ?allocate@?$allocator@VField@GPUStreamData@brook@@@std@@QAEPAVField@GPUStreamData@brook@@I@Z 0042c180 f i brook:gpustream.obj
 0001:0002b1a0       ??G?$_Vector_iterator@VField@GPUStreamData@brook@@V?$allocator@VField@GPUStreamData@brook@@@std@@@std@@QBEHABV?$_Vector_const_iterator@VField@GPUStreamData@brook@@V?$allocator@VField@GPUStreamData@brook@@@std@@@1@@Z 0042c1a0 f i brook:gpustream.obj
 0001:0002b1e0       ??Y?$_Vector_iterator@VField@GPUStreamData@brook@@V?$allocator@VField@GPUStreamData@brook@@@std@@@std@@QAEAAV01@H@Z 0042c1e0 f i brook:gpustream.obj
 0001:0002b220       ??0?$_Vector_const_iterator@VField@GPUStreamData@brook@@V?$allocator@VField@GPUStreamData@brook@@@std@@@std@@QAE@PAVField@GPUStreamData@brook@@PBU_Container_base@1@@Z 0042c220 f i brook:gpustream.obj
 0001:0002b260       ??$_Checked_base@PAVField@GPUStreamData@brook@@@std@@YAPAVField@GPUStreamData@brook@@AAPAV123@@Z 0042c260 f i brook:gpustream.obj
 0001:0002b270       ?construct@?$allocator@VField@GPUStreamData@brook@@@std@@QAEXPAVField@GPUStreamData@brook@@ABV345@@Z 0042c270 f i brook:gpustream.obj
 0001:0002b290       ?destroy@?$allocator@VField@GPUStreamData@brook@@@std@@QAEXPAVField@GPUStreamData@brook@@@Z 0042c290 f i brook:gpustream.obj
 0001:0002b2a0       ??$_Copy_backward_opt@PAVField@GPUStreamData@brook@@PAV123@@std@@YAPAVField@GPUStreamData@brook@@PAV123@00Urandom_access_iterator_tag@0@U_Nonscalar_ptr_iterator_tag@0@U_Range_checked_iterator_tag@0@@Z 0042c2a0 f i brook:gpustream.obj
 0001:0002b2f0       ??$_Uninit_copy@PAVField@GPUStreamData@brook@@PAV123@V?$allocator@VField@GPUStreamData@brook@@@std@@@std@@YAPAVField@GPUStreamData@brook@@PAV123@00AAV?$allocator@VField@GPUStreamData@brook@@@0@U_Nonscalar_ptr_iterator_tag@0@U_Range_checked_iterator_tag@0@@Z 0042c2f0 f i brook:gpustream.obj
 0001:0002b320       ?getExtents@GPUStreamData@brook@@QBEPBIXZ 0042c320 f i brook:gpustream.obj
 0001:0002b340       ?getExtents@GPUStream@brook@@UBEPBIXZ 0042c340 f i brook:gpustream.obj
 0001:0002b370       ?setDomainData@GPUStreamData@brook@@QAEXPBXPBI1@Z 0042c370 f   brook:gpustream.obj
 0001:0002b4c0       ?getDomainData@GPUStreamData@brook@@QAEXPAXPBI1@Z 0042c4c0 f   brook:gpustream.obj
 0001:0002b610       ??0GPUStream@brook@@QAE@PAVGPUStreamData@1@@Z 0042c610 f   brook:gpustream.obj
 0001:0002b6a0       ?getATLinearizeConstant@GPUStream@brook@@QAE?AUfloat4@@XZ 0042c6a0 f   brook:gpustream.obj
 0001:0002b7e0       ??0?$_Vector_iterator@VField@GPUStreamData@brook@@V?$allocator@VField@GPUStreamData@brook@@@std@@@std@@QAE@PAVField@GPUStreamData@brook@@PBU_Container_base@1@@Z 0042c7e0 f i brook:gpustream.obj
 0001:0002b820       ??H?$_Vector_iterator@VField@GPUStreamData@brook@@V?$allocator@VField@GPUStreamData@brook@@@std@@@std@@QBE?AV01@H@Z 0042c820 f i brook:gpustream.obj
 0001:0002b860       ??$fill@PAVField@GPUStreamData@brook@@V123@@std@@YAXPAVField@GPUStreamData@brook@@0ABV123@@Z 0042c860 f i brook:gpustream.obj
 0001:0002b890       ??$_Uninit_fill_n@PAVField@GPUStreamData@brook@@IV123@V?$allocator@VField@GPUStreamData@brook@@@std@@@std@@YAXPAVField@GPUStreamData@brook@@IABV123@AAV?$allocator@VField@GPUStreamData@brook@@@0@U_Nonscalar_ptr_iterator_tag@0@U_Range_checked_iterator_tag@0@@Z 0042c890 f i brook:gpustream.obj
 0001:0002b8c0       ??$_Destroy_range@VField@GPUStreamData@brook@@V?$allocator@VField@GPUStreamData@brook@@@std@@@std@@YAXPAVField@GPUStreamData@brook@@0AAV?$allocator@VField@GPUStreamData@brook@@@0@U_Nonscalar_ptr_iterator_tag@0@@Z 0042c8c0 f i brook:gpustream.obj
 0001:0002b8d0       ??$_Move_backward_opt@PAVField@GPUStreamData@brook@@PAV123@Urandom_access_iterator_tag@std@@U_Undefined_move_tag@5@@std@@YAPAVField@GPUStreamData@brook@@PAV123@00Urandom_access_iterator_tag@0@U_Undefined_move_tag@0@U_Range_checked_iterator_tag@0@@Z 0042c8d0 f i brook:gpustream.obj
 0001:0002b8f0       ??$unchecked_uninitialized_copy@PAVField@GPUStreamData@brook@@PAV123@V?$allocator@VField@GPUStreamData@brook@@@std@@@stdext@@YAPAVField@GPUStreamData@brook@@PAV123@00AAV?$allocator@VField@GPUStreamData@brook@@@std@@@Z 0042c8f0 f i brook:gpustream.obj
 0001:0002b920       ?Read@GPUStream@brook@@UAEXPBX@Z 0042c920 f i brook:gpustream.obj
 0001:0002b940       ?Write@GPUStream@brook@@UAEXPAX@Z 0042c940 f i brook:gpustream.obj
 0001:0002b960       ?setData@GPUStreamData@brook@@QAEXPBX@Z 0042c960 f   brook:gpustream.obj
 0001:0002b9b0       ?getData@GPUStreamData@brook@@QAEXPAX@Z 0042c9b0 f   brook:gpustream.obj
 0001:0002ba00       ?map@GPUStreamData@brook@@QAEPAXI@Z 0042ca00 f   brook:gpustream.obj
 0001:0002ba50       ?unmap@GPUStreamData@brook@@QAEXI@Z 0042ca50 f   brook:gpustream.obj
 0001:0002ba70       ?getData@GPUStream@brook@@UAEPAXI@Z 0042ca70 f   brook:gpustream.obj
 0001:0002bac0       ?releaseData@GPUStream@brook@@UAEXI@Z 0042cac0 f   brook:gpustream.obj
 0001:0002bae0       ?end@?$vector@VField@GPUStreamData@brook@@V?$allocator@VField@GPUStreamData@brook@@@std@@@std@@QAE?AV?$_Vector_iterator@VField@GPUStreamData@brook@@V?$allocator@VField@GPUStreamData@brook@@@std@@@2@XZ 0042cae0 f i brook:gpustream.obj
 0001:0002bb10       ?begin@?$vector@VField@GPUStreamData@brook@@V?$allocator@VField@GPUStreamData@brook@@@std@@@std@@QAE?AV?$_Vector_iterator@VField@GPUStreamData@brook@@V?$allocator@VField@GPUStreamData@brook@@@std@@@2@XZ 0042cb10 f i brook:gpustream.obj
 0001:0002bb40       ??$unchecked_uninitialized_fill_n@PAVField@GPUStreamData@brook@@IV123@V?$allocator@VField@GPUStreamData@brook@@@std@@@stdext@@YAXPAVField@GPUStreamData@brook@@IABV123@AAV?$allocator@VField@GPUStreamData@brook@@@std@@@Z 0042cb40 f i brook:gpustream.obj
 0001:0002bb70       ??$_Destroy_range@VField@GPUStreamData@brook@@V?$allocator@VField@GPUStreamData@brook@@@std@@@std@@YAXPAVField@GPUStreamData@brook@@0AAV?$allocator@VField@GPUStreamData@brook@@@0@@Z 0042cb70 f i brook:gpustream.obj
 0001:0002bb80       ??$_Unchecked_move_backward@PAVField@GPUStreamData@brook@@PAV123@@stdext@@YAPAVField@GPUStreamData@brook@@PAV123@00@Z 0042cb80 f i brook:gpustream.obj
 0001:0002bbb0       ??$_Uninit_move@PAVField@GPUStreamData@brook@@PAV123@V?$allocator@VField@GPUStreamData@brook@@@std@@U_Undefined_move_tag@5@@std@@YAPAVField@GPUStreamData@brook@@PAV123@00AAV?$allocator@VField@GPUStreamData@brook@@@0@U_Undefined_move_tag@0@U_Range_checked_iterator_tag@0@@Z 0042cbb0 f i brook:gpustream.obj
 0001:0002bbd0       ?_Ufill@?$vector@VField@GPUStreamData@brook@@V?$allocator@VField@GPUStreamData@brook@@@std@@@std@@IAEPAVField@GPUStreamData@brook@@PAV345@IABV345@@Z 0042cbd0 f i brook:gpustream.obj
 0001:0002bc10       ?_Destroy@?$vector@VField@GPUStreamData@brook@@V?$allocator@VField@GPUStreamData@brook@@@std@@@std@@IAEXPAVField@GPUStreamData@brook@@0@Z 0042cc10 f i brook:gpustream.obj
 0001:0002bc20       ??$_Unchecked_uninitialized_move@PAVField@GPUStreamData@brook@@PAV123@V?$allocator@VField@GPUStreamData@brook@@@std@@@stdext@@YAPAVField@GPUStreamData@brook@@PAV123@00AAV?$allocator@VField@GPUStreamData@brook@@@std@@@Z 0042cc20 f i brook:gpustream.obj
 0001:0002bc50       ?_Tidy@?$vector@VField@GPUStreamData@brook@@V?$allocator@VField@GPUStreamData@brook@@@std@@@std@@IAEXXZ 0042cc50 f i brook:gpustream.obj
 0001:0002bc80       ??$_Umove@PAVField@GPUStreamData@brook@@@?$vector@VField@GPUStreamData@brook@@V?$allocator@VField@GPUStreamData@brook@@@std@@@std@@IAEPAVField@GPUStreamData@brook@@PAV234@00@Z 0042cc80 f i brook:gpustream.obj
 0001:0002bcb0       ??1?$vector@VField@GPUStreamData@brook@@V?$allocator@VField@GPUStreamData@brook@@@std@@@std@@QAE@XZ 0042ccb0 f i brook:gpustream.obj
 0001:0002bce0       ?_Xlen@?$vector@VField@GPUStreamData@brook@@V?$allocator@VField@GPUStreamData@brook@@@std@@@std@@KAXXZ 0042cce0 f i brook:gpustream.obj
 0001:0002bd60       ?_Buy@?$vector@VField@GPUStreamData@brook@@V?$allocator@VField@GPUStreamData@brook@@@std@@@std@@IAE_NI@Z 0042cd60 f i brook:gpustream.obj
 0001:0002bdb0       ?_Insert_n@?$vector@VField@GPUStreamData@brook@@V?$allocator@VField@GPUStreamData@brook@@@std@@@std@@IAEXV?$_Vector_iterator@VField@GPUStreamData@brook@@V?$allocator@VField@GPUStreamData@brook@@@std@@@2@IABVField@GPUStreamData@brook@@@Z 0042cdb0 f i brook:gpustream.obj
 0001:0002c060       ??0?$vector@VField@GPUStreamData@brook@@V?$allocator@VField@GPUStreamData@brook@@@std@@@std@@QAE@XZ 0042d060 f i brook:gpustream.obj
 0001:0002c070       ?insert@?$vector@VField@GPUStreamData@brook@@V?$allocator@VField@GPUStreamData@brook@@@std@@@std@@QAE?AV?$_Vector_iterator@VField@GPUStreamData@brook@@V?$allocator@VField@GPUStreamData@brook@@@std@@@2@V32@ABVField@GPUStreamData@brook@@@Z 0042d070 f i brook:gpustream.obj
 0001:0002c120       ??0GPUStreamData@brook@@QAE@PAVGPURuntime@1@@Z 0042d120 f   brook:gpustream.obj
 0001:0002c1a0       ?push_back@?$vector@VField@GPUStreamData@brook@@V?$allocator@VField@GPUStreamData@brook@@@std@@@std@@QAEXABVField@GPUStreamData@brook@@@Z 0042d1a0 f i brook:gpustream.obj
 0001:0002c240       ??1GPUStreamData@brook@@QAE@XZ 0042d240 f   brook:gpustream.obj
 0001:0002c380       ??_GGPUStreamData@brook@@QAEPAXI@Z 0042d380 f i brook:gpustream.obj
 0001:0002c3a0       ?initialize@GPUStreamData@brook@@QAE_NIPBW4StreamType@2@IPBI_N@Z 0042d3a0 f   brook:gpustream.obj
 0001:0002caf0       ?Domain@GPUStream@brook@@UAEPAVStream@2@HH@Z 0042daf0 f   brook:gpustream.obj
 0001:0002cb70       ?Domain@GPUStream@brook@@UAEPAVStream@2@ABUint2@@0@Z 0042db70 f   brook:gpustream.obj
 0001:0002cc00       ?Domain@GPUStream@brook@@UAEPAVStream@2@ABUint3@@0@Z 0042dc00 f   brook:gpustream.obj
 0001:0002ccb0       ?Domain@GPUStream@brook@@UAEPAVStream@2@ABUint4@@0@Z 0042dcb0 f   brook:gpustream.obj
 0001:0002cd70       ?releaseReference@GPUStreamData@brook@@QAEXXZ 0042dd70 f   brook:gpustream.obj
 0001:0002cd90       ?create@GPUStream@brook@@SAPAV12@PAVGPURuntime@2@IPBW4StreamType@2@IPBI_N@Z 0042dd90 f   brook:gpustream.obj
 0001:0002ce80       ??1GPUStream@brook@@EAE@XZ 0042de80 f   brook:gpustream.obj
 0001:0002cef0       ??_GGPUStream@brook@@EAEPAXI@Z 0042def0 f i brook:gpustream.obj
 0001:0002cef0       ??_EGPUStream@brook@@EAEPAXI@Z 0042def0 f i brook:gpustream.obj
 0001:0002cf10       ??0float2@@QAE@XZ          0042df10 f i brook:gpuiterator.obj
 0001:0002cf90       ?getInterpolant@GPUIterator@brook@@QAEXIIAAUGPUInterpolant@2@@Z 0042df90 f   brook:gpuiterator.obj
 0001:0002d060       ?releaseData@GPUIterator@brook@@UAEXI@Z 0042e060 f   brook:gpuiterator.obj
 0001:0002d070       ??0GPUIterator@brook@@AAE@PAVGPURuntime@1@W4StreamType@1@@Z 0042e070 f   brook:gpuiterator.obj
 0001:0002d0b0       ?getExtents@GPUIterator@brook@@UBEPBIXZ 0042e0b0 f i brook:gpuiterator.obj
 0001:0002d0c0       ?getDimension@GPUIterator@brook@@UBEIXZ 0042e0c0 f i brook:gpuiterator.obj
 0001:0002d0d0       ?getTotalSize@GPUIterator@brook@@UBEIXZ 0042e0d0 f i brook:gpuiterator.obj
 0001:0002d0e0       ?getDomainMin@GPUIterator@brook@@UBEPBIXZ 0042e0e0 f i brook:gpuiterator.obj
 0001:0002d0f0       ?getDomainMax@GPUIterator@brook@@UBEPBIXZ 0042e0f0 f i brook:gpuiterator.obj
 0001:0002d100       ??1GPUIterator@brook@@UAE@XZ 0042e100 f i brook:gpuiterator.obj
 0001:0002d110       ??_EGPUIterator@brook@@UAEPAXI@Z 0042e110 f i brook:gpuiterator.obj
 0001:0002d110       ??_GGPUIterator@brook@@UAEPAXI@Z 0042e110 f i brook:gpuiterator.obj
 0001:0002d130       ?initialize@GPUIterator@brook@@AAE_NIQBIQBM@Z 0042e130 f   brook:gpuiterator.obj
 0001:0002d650       ?getData@GPUIterator@brook@@UAEPAXI@Z 0042e650 f   brook:gpuiterator.obj
 0001:0002d8d0       ?create@GPUIterator@brook@@SAPAV12@PAVGPURuntime@2@W4StreamType@2@IQBIQBM@Z 0042e8d0 f   brook:gpuiterator.obj
 0001:0002d9c0       ?initglfunc@brook@@YAXXZ   0042e9c0 f   brook:oglfunc.obj
 0001:0002dda0       ??1OGLWriteQuery@brook@@UAE@XZ 0042eda0 f   brook:oglwritequery.obj
 0001:0002de10       ?acquireReference@OGLWriteQuery@brook@@UAEXXZ 0042ee10 f i brook:oglwritequery.obj
 0001:0002de20       ?releaseReference@OGLWriteQuery@brook@@UAEXXZ 0042ee20 f i brook:oglwritequery.obj
 0001:0002de30       ?begin@OGLWriteQuery@brook@@UAEXXZ 0042ee30 f   brook:oglwritequery.obj
 0001:0002de50       ?end@OGLWriteQuery@brook@@UAEXXZ 0042ee50 f   brook:oglwritequery.obj
 0001:0002de60       ?poll@OGLWriteQuery@brook@@UAE_NXZ 0042ee60 f   brook:oglwritequery.obj
 0001:0002de80       ?wait@OGLWriteQuery@brook@@UAEXXZ 0042ee80 f   brook:oglwritequery.obj
 0001:0002de90       ?count@OGLWriteQuery@brook@@UAEIXZ 0042ee90 f   brook:oglwritequery.obj
 0001:0002dec0       ??0OGLWriteQuery@brook@@QAE@XZ 0042eec0 f   brook:oglwritequery.obj
 0001:0002df30       ??_GOGLWriteQuery@brook@@UAEPAXI@Z 0042ef30 f i brook:oglwritequery.obj
 0001:0002df30       ??_EOGLWriteQuery@brook@@UAEPAXI@Z 0042ef30 f i brook:oglwritequery.obj
 0001:0002df50       ?width@OGLTexture@brook@@QBEIXZ 0042ef50 f i brook:oglkernel.obj
 0001:0002df60       ?height@OGLTexture@brook@@QBEIXZ 0042ef60 f i brook:oglkernel.obj
 0001:0002df70       ?getPassthroughVertexShader@OGLContext@brook@@UAEPAXPBD@Z 0042ef70 f   brook:oglkernel.obj
 0001:0002df80       ?bindVertexShader@OGLContext@brook@@UAEXPAX@Z 0042ef80 f   brook:oglkernel.obj
 0001:0002df90       ?get1DInterpolant@OGLContext@brook@@UBEXABUfloat4@@0IAAUGPUInterpolant@2@@Z 0042ef90 f   brook:oglkernel.obj
 0001:0002e260       ?get2DInterpolant@OGLContext@brook@@UBEXABUfloat2@@0IIAAUGPUInterpolant@2@@Z 0042f260 f   brook:oglkernel.obj
 0001:0002e580       ?getStreamIndexofConstant@OGLContext@brook@@UBE?AUfloat4@@PAX@Z 0042f580 f   brook:oglkernel.obj
 0001:0002e5b0       ?getStreamGatherConstant@OGLContext@brook@@UBE?AUfloat4@@IPBI00@Z 0042f5b0 f   brook:oglkernel.obj
 0001:0002e640       ?getStreamInterpolant@OGLContext@brook@@UBEXQAXIPBI1IIAAUGPUInterpolant@2@@Z 0042f640 f   brook:oglkernel.obj
 0001:0002e700       ?getStreamOutputRegion@OGLContext@brook@@UBEXQAXIPBI1AAUGPURegion@2@@Z 0042f700 f   brook:oglkernel.obj
 0001:0002e770       ?getStreamReduceInterpolant@OGLContext@brook@@UBEXQAXIIIIIIAAUGPUInterpolant@2@@Z 0042f770 f   brook:oglkernel.obj
 0001:0002e800       ?getStreamReduceOutputRegion@OGLContext@brook@@UBEXQAXIIIIAAUGPURegion@2@@Z 0042f800 f   brook:oglkernel.obj
 0001:0002e850       ?length@?$basic_string@DU?$char_traits@D@std@@V?$allocator@D@2@@std@@QBEIXZ 0042f850 f i brook:oglkernel.obj
 0001:0002e860       ??0?$basic_string@DU?$char_traits@D@std@@V?$allocator@D@2@@std@@QAE@PBDI@Z 0042f860 f i brook:oglkernel.obj
 0001:0002e890       ??4?$basic_string@DU?$char_traits@D@std@@V?$allocator@D@2@@std@@QAEAAV01@ABV01@@Z 0042f890 f i brook:oglkernel.obj
 0001:0002e8b0       ??0OGLPixelShader@brook@@QAE@IPBD@Z 0042f8b0 f   brook:oglkernel.obj
 0001:0002eac0       ?getPassthroughPixelShader@OGLContext@brook@@UAEPAXPBD@Z 0042fac0 f   brook:oglkernel.obj
 0001:0002eb90       ?createPixelShader@OGLContext@brook@@UAEPAXPBD@Z 0042fb90 f   brook:oglkernel.obj
 0001:0002edb0       ?bindConstant@OGLContext@brook@@UAEXPAXIABUfloat4@@@Z 0042fdb0 f   brook:oglkernel.obj
 0001:0002ee90       ?bindTexture@OGLContext@brook@@UAEXIPAX@Z 0042fe90 f   brook:oglkernel.obj
 0001:0002ef10       ?bindOutput@OGLContext@brook@@UAEXIPAX@Z 0042ff10 f   brook:oglkernel.obj
 0001:0002ef60       ?bindPixelShader@OGLContext@brook@@UAEXPAX@Z 0042ff60 f   brook:oglkernel.obj
 0001:0002efb0       ?disableOutput@OGLContext@brook@@UAEXI@Z 0042ffb0 f   brook:oglkernel.obj
 0001:0002efe0       ?drawRectangle@OGLContext@brook@@UAEXABUGPURegion@2@PBUGPUInterpolant@2@I@Z 0042ffe0 f   brook:oglkernel.obj
 0001:0002f5a0       ?bytesize@OGLTexture@brook@@QBEIXZ 004305a0 f i brook:oglstream.obj
 0001:0002f5b0       ?numInternalComponents@OGLTexture@brook@@QBEIXZ 004305b0 f i brook:oglstream.obj
 0001:0002f5c0       ?nativeFormat@OGLTexture@brook@@QBEHXZ 004305c0 f i brook:oglstream.obj
 0001:0002f5d0       ?copy_to_pbuffer@OGLContext@brook@@AAEXPAVOGLTexture@2@@Z 004305d0 f   brook:oglstream.obj
 0001:0002f8b0       ?setTextureData@OGLContext@brook@@UAEXPAXPBMIIIPBI22_N@Z 004308b0 f   brook:oglstream.obj
 0001:0002fae0       ?getTextureData@OGLContext@brook@@UAEXPAXPAMIIIPBI22_N@Z 00430ae0 f   brook:oglstream.obj
 0001:0002fc80       ?releaseTexture@OGLContext@brook@@UAEXPAX@Z 00430c80 f   brook:oglstream.obj
 0001:0002fca0       ??1OGLTexture@brook@@UAE@XZ 00430ca0 f   brook:ogltexture.obj
 0001:0002fcd0       ?isFastSetPath@OGLTexture@brook@@UBE_NIIII@Z 00430cd0 f   brook:ogltexture.obj
 0001:0002fd00       ?isFastGetPath@OGLTexture@brook@@UBE_NIIII@Z 00430d00 f   brook:ogltexture.obj
 0001:0002fd30       ?getRectToCopy@OGLTexture@brook@@QAEXIPBI00AAH111AAIAA_N_N@Z 00430d30 f   brook:ogltexture.obj
 0001:0002fe70       ?setATData@OGLTexture@brook@@QAEXPBXIIPBI11PAX@Z 00430e70 f   brook:ogltexture.obj
 0001:00030020       ?getATData@OGLTexture@brook@@QAEXPAXIIPBI11PBX@Z 00431020 f   brook:ogltexture.obj
 0001:000301e0       ??_GOGLTexture@brook@@UAEPAXI@Z 004311e0 f i brook:ogltexture.obj
 0001:000301e0       ??_EOGLTexture@brook@@UAEPAXI@Z 004311e0 f i brook:ogltexture.obj
 0001:00030220       ??0OGLTexture@brook@@QAE@IIW4TextureFormat@GPUContext@1@QAY02$$CBI111@Z 00431220 f   brook:ogltexture.obj
 0001:00030450       ?copyToTextureFormat@OGLTexture@brook@@UBEXPBXIIPAX@Z 00431450 f   brook:ogltexture.obj
 0001:000304c0       ?copyFromTextureFormat@OGLTexture@brook@@UBEXPBXIIPAX@Z 004314c0 f   brook:ogltexture.obj
 0001:00030530       ?__check_gl@brook@@YAXHPAD@Z 00431530 f   brook:oglcheckgl.obj
 0001:000305ee       _GetModuleHandleA@4        004315ee f   kernel32:KERNEL32.dll
 0001:000305f4       _DeleteDC@4                004315f4 f   gdi32:GDI32.dll
 0001:000305fa       _SetPixelFormat@12         004315fa f   gdi32:GDI32.dll
 0001:00030600       _ChoosePixelFormat@8       00431600 f   gdi32:GDI32.dll
 0001:00030606       _DestroyWindow@4           00431606 f   user32:USER32.dll
 0001:0003060c       _CreateWindowExA@48        0043160c f   user32:USER32.dll
 0001:00030612       _RegisterClassA@4          00431612 f   user32:USER32.dll
 0001:00030618       _LoadCursorA@8             00431618 f   user32:USER32.dll
 0001:0003061e       _LoadIconA@8               0043161e f   user32:USER32.dll
 0001:00030624       _DefWindowProcA@16         00431624 f   user32:USER32.dll
 0001:0003062a       _GetClassInfoA@12          0043162a f   user32:USER32.dll
 0001:00030630       _GetDC@4                   00431630 f   user32:USER32.dll
 0001:00030636       _ShowWindow@8              00431636 f   user32:USER32.dll
 0001:0003063c       _PostQuitMessage@4         0043163c f   user32:USER32.dll
 0001:00030642       _SetWindowLongA@12         00431642 f   user32:USER32.dll
 0001:00030648       _GetWindowLongA@8          00431648 f   user32:USER32.dll
 0001:0003064e       _RegisterClassExA@4        0043164e f   user32:USER32.dll
 0001:00030654       _GetDesktopWindow@0        00431654 f   user32:USER32.dll
 0001:0003065a       _glGetString@4             0043165a f   opengl32:OPENGL32.dll
 0001:00030660       _wglDeleteContext@4        00431660 f   opengl32:OPENGL32.dll
 0001:00030666       _wglMakeCurrent@8          00431666 f   opengl32:OPENGL32.dll
 0001:0003066c       _wglShareLists@8           0043166c f   opengl32:OPENGL32.dll
 0001:00030672       _wglCreateContext@4        00431672 f   opengl32:OPENGL32.dll
 0001:00030678       _glEnable@4                00431678 f   opengl32:OPENGL32.dll
 0001:0003067e       _glFinish@0                0043167e f   opengl32:OPENGL32.dll
 0001:00030684       _glGetIntegerv@8           00431684 f   opengl32:OPENGL32.dll
 0001:0003068a       _wglGetProcAddress@4       0043168a f   opengl32:OPENGL32.dll
 0001:00030690       _glGetError@0              00431690 f   opengl32:OPENGL32.dll
 0001:00030696       _glBindTexture@8           00431696 f   opengl32:OPENGL32.dll
 0001:0003069c       _glCopyTexSubImage2D@32    0043169c f   opengl32:OPENGL32.dll
 0001:000306a2       _glReadBuffer@4            004316a2 f   opengl32:OPENGL32.dll
 0001:000306a8       _glEnd@0                   004316a8 f   opengl32:OPENGL32.dll
 0001:000306ae       _glVertex2fv@4             004316ae f   opengl32:OPENGL32.dll
 0001:000306b4       _glBegin@4                 004316b4 f   opengl32:OPENGL32.dll
 0001:000306ba       _glViewport@16             004316ba f   opengl32:OPENGL32.dll
 0001:000306c0       _glDrawBuffer@4            004316c0 f   opengl32:OPENGL32.dll
 0001:000306c6       _glVertex2f@8              004316c6 f   opengl32:OPENGL32.dll
 0001:000306cc       _glTexCoord2f@8            004316cc f   opengl32:OPENGL32.dll
 0001:000306d2       _glTexSubImage2D@36        004316d2 f   opengl32:OPENGL32.dll
 0001:000306d8       _glReadPixels@28           004316d8 f   opengl32:OPENGL32.dll
 0001:000306de       _glPixelStorei@8           004316de f   opengl32:OPENGL32.dll
 0001:000306e4       _glDeleteTextures@8        004316e4 f   opengl32:OPENGL32.dll
 0001:000306ea       _glTexParameterf@12        004316ea f   opengl32:OPENGL32.dll
 0001:000306f0       _glTexImage2D@36           004316f0 f   opengl32:OPENGL32.dll
 0001:000306f6       _glGenTextures@8           004316f6 f   opengl32:OPENGL32.dll
 0001:000306fc       _D3DXAssembleShader@28     004316fc f   d3dx9:d3dx9_30.dll
 0001:00030702       _Direct3DCreate9@4         00431702 f   d3d9:d3d9.dll
 0001:00030708       ??0invalid_argument@std@@QAE@ABV?$basic_string@DU?$char_traits@D@std@@V?$allocator@D@2@@1@@Z 00431708 f i libcpmt:string.obj
 0001:00030720       ??1invalid_argument@std@@UAE@XZ 00431720 f i libcpmt:string.obj
 0001:0003072b       ??_Ginvalid_argument@std@@UAEPAXI@Z 0043172b f i libcpmt:string.obj
 0001:0003072b       ??_Einvalid_argument@std@@UAEPAXI@Z 0043172b f i libcpmt:string.obj
 0001:0003074d       ??0out_of_range@std@@QAE@ABV?$basic_string@DU?$char_traits@D@std@@V?$allocator@D@2@@1@@Z 0043174d f i libcpmt:string.obj
 0001:00030765       ??1out_of_range@std@@UAE@XZ 00431765 f i libcpmt:string.obj
 0001:00030770       ??_Eout_of_range@std@@UAEPAXI@Z 00431770 f i libcpmt:string.obj
 0001:00030770       ??_Gout_of_range@std@@UAEPAXI@Z 00431770 f i libcpmt:string.obj
 0001:00030792       ?_Xlen@_String_base@std@@SAXXZ 00431792 f   libcpmt:string.obj
 0001:000307d1       ?_Xran@_String_base@std@@SAXXZ 004317d1 f   libcpmt:string.obj
 0001:00030810       ??0out_of_range@std@@QAE@ABV01@@Z 00431810 f i libcpmt:string.obj
 0001:00030828       ?_Xinvarg@_String_base@std@@SAXXZ 00431828 f   libcpmt:string.obj
 0001:00030867       ??0invalid_argument@std@@QAE@ABV01@@Z 00431867 f i libcpmt:string.obj
 0001:0003087f       ??0_Mutex@std@@QAE@XZ      0043187f f   libcpmt:xmutex.obj
 0001:00030897       ??1_Mutex@std@@QAE@XZ      00431897 f   libcpmt:xmutex.obj
 0001:000308ac       ?_Lock@_Mutex@std@@QAEXXZ  004318ac f   libcpmt:xmutex.obj
 0001:000308b5       ?_Unlock@_Mutex@std@@QAEXXZ 004318b5 f   libcpmt:xmutex.obj
 0001:000308be       ?_Mutex_ctor@_Mutex@std@@CAXPAV12@@Z 004318be f   libcpmt:xmutex.obj
 0001:000308d4       ?_Mutex_dtor@_Mutex@std@@CAXPAV12@@Z 004318d4 f   libcpmt:xmutex.obj
 0001:000308eb       ?_Mutex_Lock@_Mutex@std@@CAXPAV12@@Z 004318eb f   libcpmt:xmutex.obj
 0001:000308f8       ?_Mutex_Unlock@_Mutex@std@@CAXPAV12@@Z 004318f8 f   libcpmt:xmutex.obj
 0001:00030905       ?uncaught_exception@std@@YA_NXZ 00431905 f   libcpmt:uncaught.obj
 0001:0003090a       __Tolower                  0043190a f   libcpmt:_tolower.obj
 0001:00030a19       __Getctype                 00431a19 f   libcpmt:_tolower.obj
 0001:00030a74       ??0_Init_locks@std@@QAE@XZ 00431a74 f   libcpmt:xlock.obj
 0001:00030aa3       ??1_Init_locks@std@@QAE@XZ 00431aa3 f   libcpmt:xlock.obj
 0001:00030acc       ?_Init_locks_ctor@_Init_locks@std@@CAXPAV12@@Z 00431acc f   libcpmt:xlock.obj
 0001:00030af5       ?_Init_locks_dtor@_Init_locks@std@@CAXPAV12@@Z 00431af5 f   libcpmt:xlock.obj
 0001:00030b1e       ??0_Lockit@std@@QAE@XZ     00431b1e f   libcpmt:xlock.obj
 0001:00030b33       ??0_Lockit@std@@QAE@H@Z    00431b33 f   libcpmt:xlock.obj
 0001:00030b54       ??1_Lockit@std@@QAE@XZ     00431b54 f   libcpmt:xlock.obj
 0001:00030b66       ?_Lockit_ctor@_Lockit@std@@CAXPAV12@@Z 00431b66 f   libcpmt:xlock.obj
 0001:00030b72       ?_Lockit_ctor@_Lockit@std@@CAXPAV12@H@Z 00431b72 f   libcpmt:xlock.obj
 0001:00030b8f       ?_Lockit_dtor@_Lockit@std@@CAXPAV12@@Z 00431b8f f   libcpmt:xlock.obj
 0001:00030ba5       ?_Lockit_ctor@_Lockit@std@@SAXH@Z 00431ba5 f   libcpmt:xlock.obj
 0001:00030bbc       ?_Lockit_dtor@_Lockit@std@@SAXH@Z 00431bbc f   libcpmt:xlock.obj
 0001:00030bd3       ??0locale@std@@QAE@W4_Uninitialized@1@@Z 00431bd3 f i libcpmt:locale0.obj
 0001:00030bd8       ??0locale@std@@AAE@PAV_Locimp@01@@Z 00431bd8 f i libcpmt:locale0.obj
 0001:00030be3       ??0_Fac_node@std@@QAE@PAU01@PAVfacet@locale@1@@Z 00431be3 f i libcpmt:locale0.obj
 0001:00030bf5       ??1_Fac_node@std@@QAE@XZ   00431bf5 f i libcpmt:locale0.obj
 0001:00030c0a       ??_G_Fac_node@std@@QAEPAXI@Z 00431c0a f i libcpmt:locale0.obj
 0001:00030c26       __Deletegloballocale       00431c26 f   libcpmt:locale0.obj
 0001:00030c6c       ?_Getgloballocale@locale@std@@CAPAV_Locimp@12@XZ 00431c6c f   libcpmt:locale0.obj
 0001:00030c72       ?_Setgloballocale@locale@std@@CAXPAX@Z 00431c72 f   libcpmt:locale0.obj
 0001:00030c97       ?_Clocptr_func@_Locimp@locale@std@@CAAAPAV123@XZ 00431c97 f   libcpmt:locale0.obj
 0001:00030c9d       ?_Id_cnt_func@id@locale@std@@CAAAHXZ 00431c9d f   libcpmt:locale0.obj
 0001:00030ca3       ?_Id_func@?$ctype@D@std@@SAAAVid@locale@2@XZ 00431ca3 f   libcpmt:locale0.obj
 0001:00030ca9       ?_Id_func@?$ctype@_W@std@@SAAAVid@locale@2@XZ 00431ca9 f   libcpmt:locale0.obj
 0001:00030caf       ?_Id_func@?$codecvt@_WDH@std@@SAAAVid@locale@2@XZ 00431caf f   libcpmt:locale0.obj
 0001:00030cb5       ?_Id_func@?$ctype@G@std@@SAAAVid@locale@2@XZ 00431cb5 f   libcpmt:locale0.obj
 0001:00030cbb       ?_Id_func@?$codecvt@GDH@std@@SAAAVid@locale@2@XZ 00431cbb f   libcpmt:locale0.obj
 0001:00030cc1       ?_Locimp_dtor@_Locimp@locale@std@@CAXPAV123@@Z 00431cc1 f   libcpmt:locale0.obj
 0001:00030d21       __Fac_tidy                 00431d21 f   libcpmt:locale0.obj
 0001:00030d64       ?facet_Register@facet@locale@std@@CAXPAV123@@Z 00431d64 f   libcpmt:locale0.obj
 0001:00030d9d       ?_Locinfo_dtor@_Locinfo@std@@SAXPAV12@@Z 00431d9d f   libcpmt:locale0.obj
 0001:00030dc0       ??4?$basic_string@DU?$char_traits@D@std@@V?$allocator@D@2@@std@@QAEAAV01@PBD@Z 00431dc0 f i libcpmt:locale0.obj
 0001:00030dc5       ??0_Locimp@locale@std@@AAE@_N@Z 00431dc5 f i libcpmt:locale0.obj
 0001:00030e0e       ??1_Locimp@locale@std@@MAE@XZ 00431e0e f i libcpmt:locale0.obj
 0001:00030e4b       ??_E_Locimp@locale@std@@MAEPAXI@Z 00431e4b f i libcpmt:locale0.obj
 0001:00030e4b       ??_G_Locimp@locale@std@@MAEPAXI@Z 00431e4b f i libcpmt:locale0.obj
 0001:00030e67       ?_Init@locale@std@@CAPAV_Locimp@12@XZ 00431e67 f   libcpmt:locale0.obj
 0001:00030f01       ?_Locinfo_ctor@_Locinfo@std@@SAXPAV12@PBD@Z 00431f01 f   libcpmt:locale0.obj
 0001:00030f4b       ?classic@locale@std@@SAABV12@XZ 00431f4b f   libcpmt:locale0.obj
 0001:00030f56       ?empty@locale@std@@SA?AV12@XZ 00431f56 f   libcpmt:locale0.obj
 0001:00030f98       ?_Callfns@ios_base@std@@AAEXW4event@12@@Z 00431f98 f i libcpmt:ios.obj
 0001:00030fba       ?_Tidy@ios_base@std@@AAAXXZ 00431fba f i libcpmt:ios.obj
 0001:00031000       ?_Fpz_func@std@@YAAA_JXZ   00432000 f   libcpmt:ios.obj
 0001:00031006       ?_BADOFF_func@std@@YAABJXZ 00432006 f   libcpmt:ios.obj
 0001:0003100c       ?_Index_func@ios_base@std@@CAAAHXZ 0043200c f   libcpmt:ios.obj
 0001:00031012       ?_Sync_func@ios_base@std@@CAAA_NXZ 00432012 f   libcpmt:ios.obj
 0001:00031018       ?_Addstd@ios_base@std@@SAXPAV12@@Z 00432018 f   libcpmt:ios.obj
 0001:00031068       ?_Ios_base_dtor@ios_base@std@@CAXPAV12@@Z 00432068 f   libcpmt:ios.obj
 0001:000310a6       __Toupper                  004320a6 f   libcpmt:_toupper.obj
 0001:000311ba       __invoke_watson_if_error   004321ba f i libcpmt:fiopen.obj
 0001:000311dc       ?_Xfsopen@std@@YAPAU_iobuf@@PB_W0H@Z 004321dc f   libcpmt:fiopen.obj
 0001:00031291       ?_Fiopen@std@@YAPAU_iobuf@@PB_WHH@Z 00432291 f   libcpmt:fiopen.obj
 0001:00031346       ?_Fiopen@std@@YAPAU_iobuf@@PBGHH@Z 00432346 f   libcpmt:fiopen.obj
 0001:0003134b       ?_Fiopen@std@@YAPAU_iobuf@@PBDHH@Z 0043234b f   libcpmt:fiopen.obj
 0001:000313a6       ?setf@ios_base@std@@QAEHH@Z 004323a6 f i libcpmt:cerr.obj
 0001:000313bb       ?_Cerr_func@std@@YAAAV?$basic_ostream@DU?$char_traits@D@std@@@1@XZ 004323bb f   libcpmt:cerr.obj
 0001:000313c1       ?tie@?$basic_ios@DU?$char_traits@D@std@@@std@@QAEPAV?$basic_ostream@DU?$char_traits@D@std@@@2@PAV32@@Z 004323c1 f i libcpmt:cerr.obj
 0001:000313ce       ??0_Init_cerr@std@@QAE@XZ  004323ce f i libcpmt:cerr.obj
 0001:00031402       __Wcrtomb                  00432402 f   libcpmt:xwctomb.obj
 0001:00031483       __Getcvt                   00432483 f   libcpmt:xwctomb.obj
 0001:00031497       ___Wcrtomb_lk              00432497 f   libcpmt:xwctomb.obj
 0001:0003149c       ??_U@YAPAXI@Z              0043249c f   libcpmt:newaop.obj
 0001:000314a1       __Once                     004324a1 f   libcpmt:xmtx.obj
 0001:000314d8       __Mtxinit                  004324d8 f   libcpmt:xmtx.obj
 0001:000314e3       __Mtxdst                   004324e3 f   libcpmt:xmtx.obj
 0001:000314ee       __Mtxlock                  004324ee f   libcpmt:xmtx.obj
 0001:000314f9       __Mtxunlock                004324f9 f   libcpmt:xmtx.obj
 0001:00031504       ?_Atexit@@YAXP6AXXZ@Z      00432504 f   libcpmt:iosptrs.obj
 0001:00031524       ??1_Init_atexit@@QAE@XZ    00432524 f i libcpmt:iosptrs.obj
 0001:00031589       __GetLocaleForCP           00432589 f   libcpmt:xmbtowc.obj
 0001:0003166c       __Mbrtowc                  0043266c f   libcpmt:xmbtowc.obj
 0001:000317dd       _memcpy_s                  004327dd f   LIBCMT:memcpy_s.obj
 0001:00031858       _memmove_s                 00432858 f   LIBCMT:memmove_s.obj
 0001:000318b3       ??0exception@std@@QAE@XZ   004328b3 f   LIBCMT:stdexcpt.obj
 0001:000318c4       ??0exception@std@@QAE@ABQBD@Z 004328c4 f   LIBCMT:stdexcpt.obj
 0001:00031912       ??0exception@std@@QAE@ABQBDH@Z 00432912 f   LIBCMT:stdexcpt.obj
 0001:0003192a       ??0exception@std@@QAE@ABV01@@Z 0043292a f   LIBCMT:stdexcpt.obj
 0001:00031982       ??4exception@std@@QAEAAV01@ABV01@@Z 00432982 f   LIBCMT:stdexcpt.obj
 0001:000319d8       ??1exception@std@@UAE@XZ   004329d8 f   LIBCMT:stdexcpt.obj
 0001:000319ee       ?what@exception@std@@UBEPBDXZ 004329ee f   LIBCMT:stdexcpt.obj
 0001:000319fb       ??0bad_cast@std@@QAE@PBD@Z 004329fb f   LIBCMT:stdexcpt.obj
 0001:00031a14       ??0bad_cast@std@@QAE@ABV01@@Z 00432a14 f   LIBCMT:stdexcpt.obj
 0001:00031a2c       ??1bad_cast@std@@UAE@XZ    00432a2c f   LIBCMT:stdexcpt.obj
 0001:00031a37       ??0bad_typeid@std@@QAE@PBD@Z 00432a37 f   LIBCMT:stdexcpt.obj
 0001:00031a50       ??0bad_typeid@std@@QAE@ABV01@@Z 00432a50 f   LIBCMT:stdexcpt.obj
 0001:00031a68       ??1bad_typeid@std@@UAE@XZ  00432a68 f   LIBCMT:stdexcpt.obj
 0001:00031a73       ??0__non_rtti_object@std@@QAE@PBD@Z 00432a73 f   LIBCMT:stdexcpt.obj
 0001:00031a8b       ??0__non_rtti_object@std@@QAE@ABV01@@Z 00432a8b f   LIBCMT:stdexcpt.obj
 0001:00031aa3       ??1__non_rtti_object@std@@UAE@XZ 00432aa3 f   LIBCMT:stdexcpt.obj
 0001:00031aae       ??_Eexception@std@@UAEPAXI@Z 00432aae f i LIBCMT:stdexcpt.obj
 0001:00031aae       ??_Gexception@std@@UAEPAXI@Z 00432aae f i LIBCMT:stdexcpt.obj
 0001:00031aca       ??_Gbad_cast@std@@UAEPAXI@Z 00432aca f i LIBCMT:stdexcpt.obj
 0001:00031aca       ??_Ebad_cast@std@@UAEPAXI@Z 00432aca f i LIBCMT:stdexcpt.obj
 0001:00031aec       ??_Gbad_typeid@std@@UAEPAXI@Z 00432aec f i LIBCMT:stdexcpt.obj
 0001:00031aec       ??_Ebad_typeid@std@@UAEPAXI@Z 00432aec f i LIBCMT:stdexcpt.obj
 0001:00031b0e       ??_G__non_rtti_object@std@@UAEPAXI@Z 00432b0e f i LIBCMT:stdexcpt.obj
 0001:00031b0e       ??_E__non_rtti_object@std@@UAEPAXI@Z 00432b0e f i LIBCMT:stdexcpt.obj
 0001:00031b30       ?name@type_info@@QBEPBDPAU__type_info_node@@@Z 00432b30 f   LIBCMT:typinfo.obj
 0001:00031b3f       ??1type_info@@UAE@XZ       00432b3f f   LIBCMT:typinfo.obj
 0001:00031b4d       ??_Gtype_info@@UAEPAXI@Z   00432b4d f i LIBCMT:typinfo.obj
 0001:00031b4d       ??_Etype_info@@UAEPAXI@Z   00432b4d f i LIBCMT:typinfo.obj
 0001:00031b69       ?_name_internal_method@type_info@@QBEPBDPAU__type_info_node@@@Z 00432b69 f   LIBCMT:typinfo.obj
 0001:00031b78       ?_type_info_dtor_internal_method@type_info@@QAEXXZ 00432b78 f   LIBCMT:typinfo.obj
 0001:00031b80       ??8type_info@@QBE_NABV0@@Z 00432b80 f   LIBCMT:typinfo.obj
 0001:00031b9b       ??9type_info@@QBE_NABV0@@Z 00432b9b f   LIBCMT:typinfo.obj
 0001:00031bb7       ?before@type_info@@QBEHABV1@@Z 00432bb7 f   LIBCMT:typinfo.obj
 0001:00031bd6       ?raw_name@type_info@@QBEPBDXZ 00432bd6 f   LIBCMT:typinfo.obj
 0001:00031bda       ??0type_info@@AAE@ABV0@@Z  00432bda f   LIBCMT:typinfo.obj
 0001:00031be5       ??4type_info@@AAEAAV0@ABV0@@Z 00432be5 f   LIBCMT:typinfo.obj
 0001:00031bea       ??3@YAXPAX@Z               00432bea f   LIBCMT:delete.obj
 0001:00031bef       __fpclear                  00432bef f   LIBCMT:fpinit.obj
 0001:00031bf0       __cfltcvt_init             00432bf0 f   LIBCMT:fpinit.obj
 0001:00031c50       ___setfflag                00432c50 f   LIBCMT:fpinit.obj
 0001:00031c60       __fpmath                   00432c60 f   LIBCMT:fpinit.obj
 0001:00031c80       _log                       00432c80 f   LIBCMT:log.obj
 0001:00031cc0       __CIlog                    00432cc0 f   LIBCMT:log.obj
 0001:00031cfb       __CIlog_default            00432cfb f   LIBCMT:log.obj
 0001:00031d0f       __log_default              00432d0f     LIBCMT:log.obj
 0001:00031dd0       _printf                    00432dd0 f   LIBCMT:printf.obj
 0001:00031e7f       __printf_l                 00432e7f f   LIBCMT:printf.obj
 0001:00031e95       __printf_s_l               00432e95 f   LIBCMT:printf.obj
 0001:00031eab       _printf_s                  00432eab f   LIBCMT:printf.obj
 0001:00031ebf       __printf_p_l               00432ebf f   LIBCMT:printf.obj
 0001:00031ed5       __printf_p                 00432ed5 f   LIBCMT:printf.obj
 0001:00031ee9       __set_printf_count_output  00432ee9 f   LIBCMT:printf.obj
 0001:00031f0e       __get_printf_count_output  00432f0e f   LIBCMT:printf.obj
 0001:00031f24       __initp_misc_invarg        00432f24 f   LIBCMT:invarg.obj
 0001:00031f2e       __invoke_watson            00432f2e f   LIBCMT:invarg.obj
 0001:0003202a       __set_invalid_parameter_handler 0043302a f   LIBCMT:invarg.obj
 0001:0003204c       __get_invalid_parameter_handler 0043304c f   LIBCMT:invarg.obj
 0001:00032059       ?_invoke_watson@@YAXPBG00II@Z 00433059 f   LIBCMT:invarg.obj
 0001:00032062       __invalid_parameter        00433062 f   LIBCMT:invarg.obj
 0001:00032086       __invalid_parameter_noinfo 00433086 f   LIBCMT:invarg.obj
 0001:00032096       ?_invalid_parameter@@YAXPBG00II@Z 00433096 f   LIBCMT:invarg.obj
 0001:0003209f       ??0bad_alloc@std@@QAE@XZ   0043309f f i LIBCMT:new.obj
 0001:000320b8       ??2@YAPAXI@Z               004330b8 f   LIBCMT:new.obj
 0001:00032122       __CxxThrowException@8      00433122 f   LIBCMT:throw.obj
 0001:0003216c       ?_JumpToContinuation@@YGXPAXPAUEHRegistrationNode@@@Z 0043316c f   LIBCMT:trnsctrl.obj
 0001:0003219c       ?_CallMemberFunction0@@YGXPAX0@Z 0043319c f   LIBCMT:trnsctrl.obj
 0001:000321a3       ?_CallMemberFunction1@@YGXPAX00@Z 004331a3 f   LIBCMT:trnsctrl.obj
 0001:000321aa       ?_CallMemberFunction2@@YGXPAX00H@Z 004331aa f   LIBCMT:trnsctrl.obj
 0001:000321b1       ?_UnwindNestedFrames@@YGXPAUEHRegistrationNode@@PAUEHExceptionRecord@@@Z 004331b1 f   LIBCMT:trnsctrl.obj
 0001:00032203       ___CxxFrameHandler         00433203 f   LIBCMT:trnsctrl.obj
 0001:00032239       ___CxxFrameHandler3        00433239 f   LIBCMT:trnsctrl.obj
 0001:0003226f       ___CxxFrameHandler2        0043326f f   LIBCMT:trnsctrl.obj
 0001:000322a5       ___CxxLongjmpUnwind@4      004332a5 f   LIBCMT:trnsctrl.obj
 0001:000322ef       ?_CallSETranslator@@YAHPAUEHExceptionRecord@@PAUEHRegistrationNode@@PAX2PBU_s_FuncInfo@@H1@Z 004332ef f   LIBCMT:trnsctrl.obj
 0001:00032461       ?_GetRangeOfTrysToCheck@@YAPBU_s_TryBlockMapEntry@@PBU_s_FuncInfo@@HHPAI1@Z 00433461 f   LIBCMT:trnsctrl.obj
 0001:000324d4       __CreateFrameInfo          004334d4 f   LIBCMT:trnsctrl.obj
 0001:000324fc       __IsExceptionObjectToBeDestroyed 004334fc f   LIBCMT:trnsctrl.obj
 0001:0003251d       __FindAndUnlinkFrame       0043351d f   LIBCMT:trnsctrl.obj
 0001:00032569       ?_CallCatchBlock2@@YAPAXPAUEHRegistrationNode@@PBU_s_FuncInfo@@PAXHK@Z 00433569 f   LIBCMT:trnsctrl.obj
 0001:000325c7       @__security_check_cookie@4 004335c7 f   LIBCMT:secchk.obj
 0001:00032683       ___onexitinit              00433683 f   LIBCMT:onexit.obj
 0001:000326b2       __onexit                   004336b2 f   LIBCMT:onexit.obj
 0001:000326ee       _atexit                    004336ee f   LIBCMT:onexit.obj
 0001:00032700       __set_osplatform           00433700 f i LIBCMT:crt0.obj
 0001:0003270a       __set_osver                0043370a f i LIBCMT:crt0.obj
 0001:00032714       __set_winver               00433714 f i LIBCMT:crt0.obj
 0001:0003271e       __set_winmajor             0043371e f i LIBCMT:crt0.obj
 0001:00032728       __set_winminor             00433728 f i LIBCMT:crt0.obj
 0001:0003294d       _mainCRTStartup            0043394d f   LIBCMT:crt0.obj
 0001:00032960       _floor                     00433960 f   LIBCMT:floor_pentium4.obj
 0001:000329a0       __floor_pentium4           004339a0 f   LIBCMT:floor_pentium4.obj
 0001:00032a81       __copysign                 00433a81 f   LIBCMT:ieeemisc.obj
 0001:00032aa7       __chgsign                  00433aa7 f   LIBCMT:ieeemisc.obj
 0001:00032ad2       __scalb                    00433ad2 f   LIBCMT:ieeemisc.obj
 0001:00032ae8       __logb                     00433ae8 f   LIBCMT:ieeemisc.obj
 0001:00032bcb       __nextafter                00433bcb f   LIBCMT:ieeemisc.obj
 0001:00032e60       __finite                   00433e60 f   LIBCMT:ieeemisc.obj
 0001:00032e75       __isnan                    00433e75 f   LIBCMT:ieeemisc.obj
 0001:00032ea3       __fpclass                  00433ea3 f   LIBCMT:ieeemisc.obj
 0001:00032f40       _memcpy                    00433f40 f   LIBCMT:memcpy.obj
 0001:000332a5       _free                      004342a5 f   LIBCMT:free.obj
 0001:00033333       _V6_HeapAlloc              00434333 f   LIBCMT:malloc.obj
 0001:00033382       __heap_alloc               00434382 f i LIBCMT:malloc.obj
 0001:000333f7       _malloc                    004343f7 f   LIBCMT:malloc.obj
 0001:000334ba       __flush                    004344ba f   LIBCMT:fflush.obj
 0001:0003351c       __fflush_nolock            0043451c f   LIBCMT:fflush.obj
 0001:00033638       _fflush                    00434638 f   LIBCMT:fflush.obj
 0001:0003368b       __flushall                 0043468b f   LIBCMT:fflush.obj
 0001:00033694       _fprintf                   00434694 f   LIBCMT:fprintf.obj
 0001:000337e3       __fprintf_l                004347e3 f   LIBCMT:fprintf.obj
 0001:000337fd       __fprintf_s_l              004347fd f   LIBCMT:fprintf.obj
 0001:00033817       _fprintf_s                 00434817 f   LIBCMT:fprintf.obj
 0001:0003382f       __fprintf_p_l              0043482f f   LIBCMT:fprintf.obj
 0001:00033849       __fprintf_p                00434849 f   LIBCMT:fprintf.obj
 0001:00033861       ___iob_func                00434861 f   LIBCMT:_file.obj
 0001:00033867       ___initstdio               00434867 f   LIBCMT:_file.obj
 0001:00033918       ___endstdio                00434918 f   LIBCMT:_file.obj
 0001:00033938       __lock_file                00434938 f   LIBCMT:_file.obj
 0001:00033967       __lock_file2               00434967 f   LIBCMT:_file.obj
 0001:0003398a       __unlock_file              0043498a f   LIBCMT:_file.obj
 0001:000339b9       __unlock_file2             004349b9 f   LIBCMT:_file.obj
 0001:000339dc       __getenv_helper_nolock     004349dc f   LIBCMT:getenv.obj
 0001:00033b92       _getenv                    00434b92 f   LIBCMT:getenv.obj
 0001:00033c15       _getenv_s                  00434c15 f   LIBCMT:getenv.obj
 0001:00033ced       __dupenv_s                 00434ced f   LIBCMT:getenv.obj
 0001:00033de0       _memset                    00434de0 f   LIBCMT:memset.obj
 0001:00033e5a       ??_V@YAXPAX@Z              00434e5a f   LIBCMT:delete2.obj
 0001:00033e5f       _atol                      00434e5f f   LIBCMT:atox.obj
 0001:00033e70       __atol_l                   00434e70 f   LIBCMT:atox.obj
 0001:00033e85       _atoi                      00434e85 f   LIBCMT:atox.obj
 0001:00033e8a       __atoi_l                   00434e8a f   LIBCMT:atox.obj
 0001:00033e8f       __atoi64                   00434e8f f   LIBCMT:atox.obj
 0001:00033ea0       __atoi64_l                 00434ea0 f   LIBCMT:atox.obj
 0001:00033eb5       _fgetc                     00434eb5 f   LIBCMT:fgetc.obj
 0001:00033fec       _getc                      00434fec f   LIBCMT:fgetc.obj
 0001:00034123       __getc_nolock              00435123 f   LIBCMT:fgetc.obj
 0001:0003413d       _fputc                     0043513d f   LIBCMT:fputc.obj
 0001:0003427c       _putc                      0043527c f   LIBCMT:fputc.obj
 0001:000343bb       __ungetc_nolock            004353bb f   LIBCMT:ungetc.obj
 0001:000344d9       _ungetc                    004354d9 f   LIBCMT:ungetc.obj
 0001:0003454b       _setvbuf                   0043554b f   LIBCMT:setvbuf.obj
 0001:00034649       __fwrite_nolock            00435649 f   LIBCMT:fwrite.obj
 0001:00034763       _fwrite                    00435763 f   LIBCMT:fwrite.obj
 0001:000347f0       _fgetpos                   004357f0 f   LIBCMT:fgetpos.obj
 0001:0003485b       __fseek_nolock             0043585b f   LIBCMT:fseek.obj
 0001:000348e2       _fseek                     004358e2 f   LIBCMT:fseek.obj
 0001:00034967       _fsetpos                   00435967 f   LIBCMT:fsetpos.obj
 0001:000349a9       __fclose_nolock            004359a9 f   LIBCMT:fclose.obj
 0001:00034a1c       _fclose                    00435a1c f   LIBCMT:fclose.obj
 0001:00034a98       __purecall                 00435a98 f   LIBCMT:purevirt.obj
 0001:00034ac2       __set_purecall_handler     00435ac2 f   LIBCMT:purevirt.obj
 0001:00034ae4       __get_purecall_handler     00435ae4 f   LIBCMT:purevirt.obj
 0001:00034af1       _localeconv                00435af1 f   LIBCMT:lconv.obj
 0001:00034b20       _memchr                    00435b20 f   LIBCMT:memchr.obj
 0001:00034bd0       _strcspn                   00435bd0 f   LIBCMT:strcspn.obj
 0001:00034c16       _sprintf                   00435c16 f   LIBCMT:sprintf.obj
 0001:00034c91       __sprintf_l                00435c91 f   LIBCMT:sprintf.obj
 0001:00034cab       _sprintf_s                 00435cab f   LIBCMT:sprintf.obj
 0001:00034cc7       __sprintf_s_l              00435cc7 f   LIBCMT:sprintf.obj
 0001:00034ce4       __snprintf_s               00435ce4 f   LIBCMT:sprintf.obj
 0001:00034d03       __snprintf_s_l             00435d03 f   LIBCMT:sprintf.obj
 0001:00034d23       __sprintf_p                00435d23 f   LIBCMT:sprintf.obj
 0001:00034d3f       __sprintf_p_l              00435d3f f   LIBCMT:sprintf.obj
 0001:00034d5c       __scprintf                 00435d5c f   LIBCMT:sprintf.obj
 0001:00034d6d       __scprintf_p               00435d6d f   LIBCMT:sprintf.obj
 0001:00034d7e       __scprintf_l               00435d7e f   LIBCMT:sprintf.obj
 0001:00034d94       __scprintf_p_l             00435d94 f   LIBCMT:sprintf.obj
 0001:00034daa       __amsg_exit                00435daa f   LIBCMT:crt0dat.obj
 0001:00034dce       ___crtCorExitProcess       00435dce f   LIBCMT:crt0dat.obj
 0001:00034df4       ___crtExitProcess          00435df4 f   LIBCMT:crt0dat.obj
 0001:00034e09       __lockexit                 00435e09 f   LIBCMT:crt0dat.obj
 0001:00034e12       __unlockexit               00435e12 f   LIBCMT:crt0dat.obj
 0001:00034e33       __initterm_e               00435e33 f   LIBCMT:crt0dat.obj
 0001:00034e53       __get_osplatform           00435e53 f   LIBCMT:crt0dat.obj
 0001:00034e8a       __get_osver                00435e8a f   LIBCMT:crt0dat.obj
 0001:00034ec6       __get_winver               00435ec6 f   LIBCMT:crt0dat.obj
 0001:00034f02       __get_winmajor             00435f02 f   LIBCMT:crt0dat.obj
 0001:00034f3e       __get_winminor             00435f3e f   LIBCMT:crt0dat.obj
 0001:00034f7a       __get_wpgmptr              00435f7a f   LIBCMT:crt0dat.obj
 0001:00034fb1       __get_pgmptr               00435fb1 f   LIBCMT:crt0dat.obj
 0001:00034fe8       __cinit                    00435fe8 f   LIBCMT:crt0dat.obj
 0001:00035148       _exit                      00436148 f   LIBCMT:crt0dat.obj
 0001:00035159       __exit                     00436159 f   LIBCMT:crt0dat.obj
 0001:0003516a       __cexit                    0043616a f   LIBCMT:crt0dat.obj
 0001:00035179       __c_exit                   00436179 f   LIBCMT:crt0dat.obj
 0001:00035188       __init_pointers            00436188 f   LIBCMT:crt0dat.obj
 0001:000351e0       _strstr                    004361e0 f   LIBCMT:strstr.obj
 0001:00035278       ?__ArrayUnwind@@YGXPAXIHP6EX0@Z@Z 00436278 f   LIBCMT:ehvecdtr.obj
 0001:000352d6       ??_M@YGXPAXIHP6EX0@Z@Z     004362d6 f   LIBCMT:ehvecdtr.obj
 0001:00035339       ??0_LocaleUpdate@@QAE@PAUlocaleinfo_struct@@@Z 00436339 f i LIBCMT:strtol.obj
 0001:000353bb       ??1_LocaleUpdate@@QAE@XZ   004363bb f i LIBCMT:strtol.obj
 0001:000353c9       ?GetLocaleT@_LocaleUpdate@@QAEPAUlocaleinfo_struct@@XZ 004363c9 f i LIBCMT:strtol.obj
 0001:000355f7       _strtol                    004365f7 f   LIBCMT:strtol.obj
 0001:00035620       __strtol_l                 00436620 f   LIBCMT:strtol.obj
 0001:0003563b       _strtoul                   0043663b f   LIBCMT:strtol.obj
 0001:00035665       __strtoul_l                00436665 f   LIBCMT:strtol.obj
 0001:00035680       ??_L@YGXPAXIHP6EX0@Z1@Z    00436680 f   LIBCMT:ehvecctr.obj
 0001:000356f0       _strlen                    004366f0 f   LIBCMT:strlen.obj
 0001:0003577b       __EH_prolog3               0043677b f   LIBCMT:ehprolg3.obj
 0001:000357ae       __EH_prolog3_catch         004367ae f   LIBCMT:ehprolg3.obj
 0001:000357e4       __EH_prolog3_GS            004367e4 f   LIBCMT:ehprolg3.obj
 0001:0003581a       __EH_prolog3_catch_GS      0043681a f   LIBCMT:ehprolg3.obj
 0001:00035853       __EH_epilog3               00436853 f   LIBCMT:ehprolg3.obj
 0001:00035867       __EH_epilog3_GS            00436867 f   LIBCMT:ehprolg3.obj
 0001:00035876       __EH_epilog3_catch_GS      00436876 f   LIBCMT:ehprolg3.obj
 0001:00035885       ??0bad_exception@std@@QAE@PBD@Z 00436885 f i LIBCMT:frame.obj
 0001:0003589e       ??1bad_exception@std@@UAE@XZ 0043689e f i LIBCMT:frame.obj
 0001:000358a9       ??_Ebad_exception@std@@UAEPAXI@Z 004368a9 f i LIBCMT:frame.obj
 0001:000358a9       ??_Gbad_exception@std@@UAEPAXI@Z 004368a9 f i LIBCMT:frame.obj
 0001:000358cb       ___TypeMatch               004368cb f   LIBCMT:frame.obj
 0001:00035927       ___FrameUnwindFilter       00436927 f   LIBCMT:frame.obj
 0001:0003596b       ___FrameUnwindToState      0043696b f   LIBCMT:frame.obj
 0001:00035a91       ___DestructExceptionObject 00436a91 f   LIBCMT:frame.obj
 0001:00035ae5       ___AdjustPointer           00436ae5 f   LIBCMT:frame.obj
 0001:00035b0a       ?__uncaught_exception@@YA_NXZ 00436b0a f   LIBCMT:frame.obj
 0001:00035b1d       ___CxxRegisterExceptionObject 00436b1d f   LIBCMT:frame.obj
 0001:00035bd0       ___CxxDetectRethrow        00436bd0 f   LIBCMT:frame.obj
 0001:00035c1c       ___CxxUnregisterExceptionObject 00436c1c f   LIBCMT:frame.obj
 0001:00035d57       ___CxxQueryExceptionSize   00436d57 f   LIBCMT:frame.obj
 0001:00035d5b       ___CxxCallUnwindDtor       00436d5b f   LIBCMT:frame.obj
 0001:00035d8d       ___CxxCallUnwindDelDtor    00436d8d f   LIBCMT:frame.obj
 0001:00035dc0       ___CxxCallUnwindStdDelDtor 00436dc0 f   LIBCMT:frame.obj
 0001:00035df2       ___CxxCallUnwindVecDtor    00436df2 f   LIBCMT:frame.obj
 0001:00035f1f       ?_is_exception_typeof@@YAHABVtype_info@@PAU_EXCEPTION_POINTERS@@@Z 00436f1f f   LIBCMT:frame.obj
 0001:0003613d       ___BuildCatchObjectHelper  0043713d f   LIBCMT:frame.obj
 0001:000362bc       ___BuildCatchObject        004372bc f   LIBCMT:frame.obj
 0001:0003634d       ___CxxExceptionFilter      0043734d f   LIBCMT:frame.obj
 0001:00036944       ??0bad_exception@std@@QAE@ABV01@@Z 00437944 f i LIBCMT:frame.obj
 0001:0003695c       ___InternalCxxFrameHandler 0043795c f   LIBCMT:frame.obj
 0001:00036a40       __MarkAllocaS              00437a40 f i LIBCMT:a_map.obj
 0001:00036a52       __freea                    00437a52 f i LIBCMT:a_map.obj
 0001:00036e29       ___crtLCMapStringA         00437e29 f   LIBCMT:a_map.obj
 0001:00036e6c       ___pwctype_func            00437e6c f   LIBCMT:ctype.obj
 0001:00036e72       ___pctype_func             00437e72 f   LIBCMT:ctype.obj
 0001:00036e9b       __isalpha_l                00437e9b f i LIBCMT:_ctype.obj
 0001:00036eef       _isalpha                   00437eef f i LIBCMT:_ctype.obj
 0001:00036f1a       __isupper_l                00437f1a f i LIBCMT:_ctype.obj
 0001:00036f69       _isupper                   00437f69 f i LIBCMT:_ctype.obj
 0001:00036f92       __islower_l                00437f92 f i LIBCMT:_ctype.obj
 0001:00036fe1       _islower                   00437fe1 f i LIBCMT:_ctype.obj
 0001:0003700a       __isdigit_l                0043800a f i LIBCMT:_ctype.obj
 0001:00037059       _isdigit                   00438059 f i LIBCMT:_ctype.obj
 0001:00037082       __isxdigit_l               00438082 f i LIBCMT:_ctype.obj
 0001:000370d6       _isxdigit                  004380d6 f i LIBCMT:_ctype.obj
 0001:00037101       __isspace_l                00438101 f i LIBCMT:_ctype.obj
 0001:00037150       _isspace                   00438150 f i LIBCMT:_ctype.obj
 0001:00037179       __ispunct_l                00438179 f i LIBCMT:_ctype.obj
 0001:000371c8       _ispunct                   004381c8 f i LIBCMT:_ctype.obj
 0001:000371f1       __isalnum_l                004381f1 f i LIBCMT:_ctype.obj
 0001:00037245       _isalnum                   00438245 f i LIBCMT:_ctype.obj
 0001:00037270       __isprint_l                00438270 f i LIBCMT:_ctype.obj
 0001:000372c4       _isprint                   004382c4 f i LIBCMT:_ctype.obj
 0001:000372ef       __isgraph_l                004382ef f i LIBCMT:_ctype.obj
 0001:00037343       _isgraph                   00438343 f i LIBCMT:_ctype.obj
 0001:0003736e       __iscntrl_l                0043836e f i LIBCMT:_ctype.obj
 0001:000373bd       _iscntrl                   004383bd f i LIBCMT:_ctype.obj
 0001:000373e6       ___isascii                 004383e6 f i LIBCMT:_ctype.obj
 0001:000373f3       ___toascii                 004383f3 f i LIBCMT:_ctype.obj
 0001:000373fb       __iscsymf_l                004383fb f i LIBCMT:_ctype.obj
 0001:0003741a       ___iscsymf                 0043841a f i LIBCMT:_ctype.obj
 0001:00037434       __iscsym_l                 00438434 f i LIBCMT:_ctype.obj
 0001:00037453       ___iscsym                  00438453 f i LIBCMT:_ctype.obj
 0001:0003746f       ___init_ctype              0043846f f   LIBCMT:initctyp.obj
 0001:00037804       ____mb_cur_max_func        00438804 f   LIBCMT:initctyp.obj
 0001:0003782d       ____mb_cur_max_l_func      0043882d f   LIBCMT:initctyp.obj
 0001:00037843       ____lc_codepage_func       00438843 f   LIBCMT:initctyp.obj
 0001:00037869       ____lc_collate_cp_func     00438869 f   LIBCMT:initctyp.obj
 0001:0003788f       ____lc_handle_func         0043888f f   LIBCMT:initctyp.obj
 0001:000378b5       _wait_a_bit                004388b5 f i LIBCMT:crtheap.obj
 0001:000378d6       __set_malloc_crt_max_wait  004388d6 f   LIBCMT:crtheap.obj
 0001:000378e6       __malloc_crt               004388e6 f   LIBCMT:crtheap.obj
 0001:00037926       __calloc_crt               00438926 f   LIBCMT:crtheap.obj
 0001:0003796e       __realloc_crt              0043896e f   LIBCMT:crtheap.obj
 0001:000379b9       __recalloc_crt             004389b9 f   LIBCMT:crtheap.obj
 0001:00037a09       @_malloc_crt_fastcall@4    00438a09 f   LIBCMT:crtheap.obj
 0001:00037a11       @_calloc_crt_fastcall@8    00438a11 f   LIBCMT:crtheap.obj
 0001:00037a1b       @_realloc_crt_fastcall@8   00438a1b f   LIBCMT:crtheap.obj
 0001:00037a25       ____setlc_active_func      00438a25 f   LIBCMT:setlocal.obj
 0001:00037a2b       ____unguarded_readlc_active_add_func 00438a2b f   LIBCMT:setlocal.obj
 0001:00037a31       ___freetlocinfo            00438a31 f   LIBCMT:setlocal.obj
 0001:00037b71       ___addlocaleref            00438b71 f   LIBCMT:setlocal.obj
 0001:00037bf7       ___removelocaleref         00438bf7 f   LIBCMT:setlocal.obj
 0001:00037ce5       ___updatetlocinfo          00438ce5 f   LIBCMT:setlocal.obj
 0001:00037d5b       __configthreadlocale       00438d5b f   LIBCMT:setlocal.obj
 0001:00037e14       __free_locale              00438e14 f   LIBCMT:setlocal.obj
 0001:00037eaa       ___free_locale             00438eaa f   LIBCMT:setlocal.obj
 0001:00037eaf       __get_current_locale       00438eaf f   LIBCMT:setlocal.obj
 0001:00037f37       ___get_current_locale      00438f37 f   LIBCMT:setlocal.obj
 0001:00037f3c       ___init_dummy              00438f3c f   LIBCMT:setlocal.obj
 0001:00037f3f       __strcats                  00438f3f f   LIBCMT:setlocal.obj
 0001:00037f7d       ___lc_strtolc              00438f7d f   LIBCMT:setlocal.obj
 0001:000380a6       ___lc_lctostr              004390a6 f   LIBCMT:setlocal.obj
 0001:00038282       __expandlocale             00439282 f   LIBCMT:setlocal.obj
 0001:0003891a       __create_locale            0043991a f   LIBCMT:setlocal.obj
 0001:00038a0d       ___create_locale           00439a0d f   LIBCMT:setlocal.obj
 0001:00038a12       _setlocale                 00439a12 f   LIBCMT:setlocal.obj
 0001:00038b82       __fsopen                   00439b82 f   LIBCMT:fopen.obj
 0001:00038c46       _fopen                     00439c46 f   LIBCMT:fopen.obj
 0001:00038c59       _fopen_s                   00439c59 f   LIBCMT:fopen.obj
 0001:00038cd8       __wcstombs_l_helper        00439cd8 f   LIBCMT:wcstombs.obj
 0001:00038f1e       __wcstombs_l               00439f1e f   LIBCMT:wcstombs.obj
 0001:00038f23       _wcstombs                  00439f23 f   LIBCMT:wcstombs.obj
 0001:00038f3a       __wcstombs_s_l             00439f3a f   LIBCMT:wcstombs.obj
 0001:00038feb       _wcstombs_s                00439feb f   LIBCMT:wcstombs.obj
 0001:00039009       __wfsopen                  0043a009 f   LIBCMT:wfopen.obj
 0001:000390cf       __wfopen                   0043a0cf f   LIBCMT:wfopen.obj
 0001:000390e2       __wfopen_s                 0043a0e2 f   LIBCMT:wfopen.obj
 0001:00039132       __mbstowcs_l_helper        0043a132 f   LIBCMT:mbstowcs.obj
 0001:000392ba       __mbstowcs_l               0043a2ba f   LIBCMT:mbstowcs.obj
 0001:000392bf       _mbstowcs                  0043a2bf f   LIBCMT:mbstowcs.obj
 0001:000392e7       __mbstowcs_s_l             0043a2e7 f   LIBCMT:mbstowcs.obj
 0001:000393dd       _mbstowcs_s                0043a3dd f   LIBCMT:mbstowcs.obj
 0001:000393fb       __get_errno_from_oserr     0043a3fb f   LIBCMT:dosmap.obj
 0001:00039436       __errno                    0043a436 f   LIBCMT:dosmap.obj
 0001:00039449       ___doserrno                0043a449 f   LIBCMT:dosmap.obj
 0001:0003945c       __dosmaperr                0043a45c f   LIBCMT:dosmap.obj
 0001:0003947a       __set_errno                0043a47a f   LIBCMT:dosmap.obj
 0001:00039495       __get_errno                0043a495 f   LIBCMT:dosmap.obj
 0001:000394bf       __set_doserrno             0043a4bf f   LIBCMT:dosmap.obj
 0001:000394da       __get_doserrno             0043a4da f   LIBCMT:dosmap.obj
 0001:00039504       _abort                     0043a504 f   LIBCMT:abort.obj
 0001:000395f7       __set_abort_behavior       0043a5f7 f   LIBCMT:abort.obj
 0001:000396f0       __itoa_s                   0043a6f0 f   LIBCMT:xtoas.obj
 0001:00039718       __ltoa_s                   0043a718 f   LIBCMT:xtoas.obj
 0001:0003973d       __ultoa_s                  0043a73d f   LIBCMT:xtoas.obj
 0001:0003984b       __i64toa_s                 0043a84b f   LIBCMT:xtoas.obj
 0001:0003987e       __ui64toa_s                0043a87e f   LIBCMT:xtoas.obj
 0001:000398a0       _memmove                   0043a8a0 f   LIBCMT:memmove.obj
 0001:00039c05       _strcpy_s                  0043ac05 f   LIBCMT:strcpy_s.obj
 0001:00039c6a       ?_Type_info_dtor@type_info@@CAXPAV1@@Z 0043ac6a f   LIBCMT:typname.obj
 0001:00039cda       ?_Name_base@type_info@@CAPBDPBV1@PAU__type_info_node@@@Z 0043acda f   LIBCMT:typname.obj
 0001:00039dcf       ?_Type_info_dtor_internal@type_info@@CAXPAV1@@Z 0043adcf f   LIBCMT:typname.obj
 0001:00039e3f       ___unDNameHelper           0043ae3f f   LIBCMT:typname.obj
 0001:00039e70       ?_Name_base_internal@type_info@@CAPBDPBV1@PAU__type_info_node@@@Z 0043ae70 f   LIBCMT:typname.obj
 0001:00039f5b       ___clean_type_info_names_internal 0043af5b f   LIBCMT:typname.obj
 0001:00039fb0       _strcmp                    0043afb0 f   LIBCMT:strcmp.obj
 0001:0003a038       ?strrchr@@YAPADPADH@Z      0043b038 f i LIBCMT:cvt.obj
 0001:0003a03d       __forcdecpt_l              0043b03d f   LIBCMT:cvt.obj
 0001:0003a0ae       __cropzeros_l              0043b0ae f   LIBCMT:cvt.obj
 0001:0003a12e       __positive                 0043b12e f   LIBCMT:cvt.obj
 0001:0003a144       __fassign_l                0043b144 f   LIBCMT:cvt.obj
 0001:0003a184       __fassign                  0043b184 f   LIBCMT:cvt.obj
 0001:0003a1b8       __forcdecpt                0043b1b8 f   LIBCMT:cvt.obj
 0001:0003a1c6       __cropzeros                0043b1c6 f   LIBCMT:cvt.obj
 0001:0003a341       __cftoe_l                  0043b341 f   LIBCMT:cvt.obj
 0001:0003a40f       __cftoe                    0043b40f f   LIBCMT:cvt.obj
 0001:0003a42d       __cftoa_l                  0043b42d f   LIBCMT:cvt.obj
 0001:0003a79e       __cftoa                    0043b79e f   LIBCMT:cvt.obj
 0001:0003a8b1       __cftof_l                  0043b8b1 f   LIBCMT:cvt.obj
 0001:0003a96a       __cftof                    0043b96a f   LIBCMT:cvt.obj
 0001:0003a985       __cftog_l                  0043b985 f   LIBCMT:cvt.obj
 0001:0003aa7d       __cftog                    0043ba7d f   LIBCMT:cvt.obj
 0001:0003aa9b       __cfltcvt_l                0043ba9b f   LIBCMT:cvt.obj
 0001:0003ab21       __cfltcvt                  0043bb21 f   LIBCMT:cvt.obj
 0001:0003ab42       __initp_misc_cfltcvt_tab   0043bb42 f   LIBCMT:cmiscdat.obj
 0001:0003ab61       __setdefaultprecision      0043bb61 f   LIBCMT:fp8.obj
 0001:0003ab8a       __ms_p5_test_fdiv          0043bb8a f   LIBCMT:testfdiv.obj
 0001:0003abc6       __ms_p5_mp_test_fdiv       0043bbc6 f   LIBCMT:testfdiv.obj
 0001:0003abef       __sse2_mathfcns_init       0043bbef f   LIBCMT:mathfcns.obj
 0001:0003ac03       __set_SSE2_enable          0043bc03 f   LIBCMT:mathfcns.obj
 0001:0003ac20       __CIlog_pentium4           0043bc20 f   LIBCMT:log_pentium4.obj
 0001:0003ac38       __log_pentium4             0043bc38     LIBCMT:log_pentium4.obj
 0001:0003aea1       __fFEXP                    0043bea1     LIBCMT:87tran.obj
 0001:0003af08       __rtinfpopse               0043bf08     LIBCMT:87tran.obj
 0001:0003af0a       __rtinfnpopse              0043bf0a     LIBCMT:87tran.obj
 0001:0003af1a       __fFLN                     0043bf1a     LIBCMT:87tran.obj
 0001:0003afcf       __rtinfpop                 0043bfcf     LIBCMT:87tran.obj
 0001:0003afd1       __rtinfnpop                0043bfd1     LIBCMT:87tran.obj
 0001:0003afee       __ffexpm1                  0043bfee     LIBCMT:87tran.obj
 0001:0003b0a0       __trandisp1                0043c0a0 f   LIBCMT:87disp.obj
 0001:0003b107       __trandisp2                0043c107 f   LIBCMT:87disp.obj
 0001:0003b193       __rttospopde               0043c193     LIBCMT:87disp.obj
 0001:0003b198       __rttospop                 0043c198     LIBCMT:87disp.obj
 0001:0003b19a       __rtnospop                 0043c19a     LIBCMT:87disp.obj
 0001:0003b19c       __rttosnpop                0043c19c     LIBCMT:87disp.obj
 0001:0003b19d       __rtnospopde               0043c19d     LIBCMT:87disp.obj
 0001:0003b1a4       __rtzeropop                0043c1a4     LIBCMT:87disp.obj
 0001:0003b1a6       __rtzeronpop               0043c1a6     LIBCMT:87disp.obj
 0001:0003b1ab       __rtonepop                 0043c1ab     LIBCMT:87disp.obj
 0001:0003b1ad       __rtonenpop                0043c1ad     LIBCMT:87disp.obj
 0001:0003b1b2       __tosnan1                  0043c1b2     LIBCMT:87disp.obj
 0001:0003b1dd       __nosnan2                  0043c1dd     LIBCMT:87disp.obj
 0001:0003b1df       __tosnan2                  0043c1df     LIBCMT:87disp.obj
 0001:0003b207       __nan2                     0043c207     LIBCMT:87disp.obj
 0001:0003b246       __rtindfpop                0043c246     LIBCMT:87disp.obj
 0001:0003b248       __rtindfnpop               0043c248     LIBCMT:87disp.obj
 0001:0003b259       __rttosnpopde              0043c259     LIBCMT:87disp.obj
 0001:0003b263       __rtchsifneg               0043c263     LIBCMT:87disp.obj
 0001:0003b270       __twoToTOS                 0043c270 f   LIBCMT:common.obj
 0001:0003b285       __load_CW                  0043c285 f   LIBCMT:common.obj
 0001:0003b29c       __convertTOStoQNaN         0043c29c f   LIBCMT:common.obj
 0001:0003b2b5       __fload_withFB             0043c2b5 f   LIBCMT:common.obj
 0001:0003b2f8       __checkTOS_withFB          0043c2f8 f   LIBCMT:common.obj
 0001:0003b30e       __fast_exit                0043c30e f   LIBCMT:common.obj
 0001:0003b31b       __math_exit                0043c31b f   LIBCMT:common.obj
 0001:0003b345       __check_overflow_exit      0043c345 f   LIBCMT:common.obj
 0001:0003b359       __check_range_exit         0043c359 f   LIBCMT:common.obj
 0001:0003b400       __startTwoArgErrorHandling 0043c400 f   LIBCMT:genexcep.obj
 0001:0003b417       __startOneArgErrorHandling 0043c417 f   LIBCMT:genexcep.obj
 0001:0003b453       __stbuf                    0043c453 f   LIBCMT:_sftbuf.obj
 0001:0003b4e9       __ftbuf                    0043c4e9 f   LIBCMT:_sftbuf.obj
 0001:0003b5b9       _get_int_arg               0043c5b9 f i LIBCMT:output.obj
 0001:0003b5c6       _get_int64_arg             0043c5c6 f i LIBCMT:output.obj
 0001:0003b5d6       _get_short_arg             0043c5d6 f i LIBCMT:output.obj
 0001:0003b5e4       __output_l                 0043c5e4 f   LIBCMT:output.obj
 0001:0003bf7c       __SEH_prolog4              0043cf7c f   LIBCMT:sehprolg4.obj
 0001:0003bfc1       __SEH_epilog4              0043cfc1 f   LIBCMT:sehprolg4.obj
 0001:0003c010       __except_handler4          0043d010 f   LIBCMT:chandler4.obj
 0001:0003c1a6       _vprintf_helper            0043d1a6 f   LIBCMT:vprintf.obj
 0001:0003c236       __vprintf_l                0043d236 f   LIBCMT:vprintf.obj
 0001:0003c250       __vprintf_s_l              0043d250 f   LIBCMT:vprintf.obj
 0001:0003c26a       __vprintf_p_l              0043d26a f   LIBCMT:vprintf.obj
 0001:0003c284       _vprintf                   0043d284 f   LIBCMT:vprintf.obj
 0001:0003c29c       _vprintf_s                 0043d29c f   LIBCMT:vprintf.obj
 0001:0003c2b4       __vprintf_p                0043d2b4 f   LIBCMT:vprintf.obj
 0001:0003c2cc       __crt_debugger_hook        0043d2cc f   LIBCMT:dbghook.obj
 0001:0003c2d4       __encode_pointer           0043d2d4 f   LIBCMT:tidtable.obj
 0001:0003c337       __encoded_null             0043d337 f   LIBCMT:tidtable.obj
 0001:0003c340       __decode_pointer           0043d340 f   LIBCMT:tidtable.obj
 0001:0003c3a3       ___crtTlsAlloc@4           0043d3a3 f   LIBCMT:tidtable.obj
 0001:0003c3ac       ___fls_getvalue@4          0043d3ac f   LIBCMT:tidtable.obj
 0001:0003c3c1       ___get_flsindex            0043d3c1 f   LIBCMT:tidtable.obj
 0001:0003c3c7       ___set_flsgetvalue         0043d3c7 f   LIBCMT:tidtable.obj
 0001:0003c3f1       ___fls_setvalue@8          0043d3f1 f   LIBCMT:tidtable.obj
 0001:0003c40a       __mtterm                   0043d40a f   LIBCMT:tidtable.obj
 0001:0003c447       __initptd                  0043d447 f   LIBCMT:tidtable.obj
 0001:0003c4fb       __getptd_noexit            0043d4fb f   LIBCMT:tidtable.obj
 0001:0003c57e       __getptd                   0043d57e f   LIBCMT:tidtable.obj
 0001:0003c596       __freefls@4                0043d596 f   LIBCMT:tidtable.obj
 0001:0003c6b7       __freeptd                  0043d6b7 f   LIBCMT:tidtable.obj
 0001:0003c720       ___threadid                0043d720 f   LIBCMT:tidtable.obj
 0001:0003c726       ___threadhandle            0043d726 f   LIBCMT:tidtable.obj
 0001:0003c72c       __mtinit                   0043d72c f   LIBCMT:tidtable.obj
 0001:0003c8b0       __initp_heap_handler       0043d8b0 f   LIBCMT:handler.obj
 0001:0003c8ba       ?_set_new_handler@@YAP6AHI@ZP6AHI@Z@Z 0043d8ba f   LIBCMT:handler.obj
 0001:0003c8eb       ?_set_new_handler@@YAP6AHI@ZH@Z 0043d8eb f   LIBCMT:handler.obj
 0001:0003c8f4       ?_query_new_handler@@YAP6AHI@ZXZ 0043d8f4 f   LIBCMT:handler.obj
 0001:0003c901       __callnewh                 0043d901 f   LIBCMT:handler.obj
 0001:0003c923       ?__CxxUnhandledExceptionFilter@@YGJPAU_EXCEPTION_POINTERS@@@Z 0043d923 f   LIBCMT:unhandld.obj
 0001:0003c98f       ?__CxxSetUnhandledExceptionFilter@@YAHXZ 0043d98f f   LIBCMT:unhandld.obj
 0001:0003c9b0       ?__CxxRestoreUnhandledExceptionFilter@@YAXXZ 0043d9b0 f   LIBCMT:unhandld.obj
 0001:0003c9d4       ?terminate@@YAXXZ          0043d9d4 f   LIBCMT:hooks.obj
 0001:0003ca0d       ?unexpected@@YAXXZ         0043da0d f   LIBCMT:hooks.obj
 0001:0003ca20       ?_inconsistency@@YAXXZ     0043da20 f   LIBCMT:hooks.obj
 0001:0003ca57       __initp_eh_hooks           0043da57 f   LIBCMT:hooks.obj
 0001:0003ca70       __CallSettingFrame@12      0043da70 f   LIBCMT:lowhelpr.obj
 0001:0003ca97       __NLG_Return               0043da97     LIBCMT:lowhelpr.obj
 0001:0003cabc       ___report_gsfailure        0043dabc f   LIBCMT:gs_report.obj
 0001:0003cbc0       __msize                    0043dbc0 f   LIBCMT:msize.obj
 0001:0003cc63       __NMSG_WRITE               0043dc63 f   LIBCMT:crt0msg.obj
 0001:0003ce03       __GET_RTERRMSG             0043de03 f   LIBCMT:crt0msg.obj
 0001:0003ce23       __FF_MSGBANNER             0043de23 f   LIBCMT:crt0msg.obj
 0001:0003ce5c       __initp_misc_winxfltr      0043de5c f   LIBCMT:winxfltr.obj
 0001:0003ce8f       __XcptFilter               0043de8f f   LIBCMT:winxfltr.obj
 0001:0003cffe       ___CppXcptFilter           0043dffe f   LIBCMT:winxfltr.obj
 0001:0003d019       __setenvp                  0043e019 f   LIBCMT:stdenvp.obj
 0001:0003d0f4       __set_pgmptr               0043e0f4 f i LIBCMT:stdargv.obj
 0001:0003d296       __setargv                  0043e296 f   LIBCMT:stdargv.obj
 0001:0003d34f       ___crtGetEnvironmentStringsA 0043e34f f   LIBCMT:a_env.obj
 0001:0003d484       __ioinit                   0043e484 f   LIBCMT:ioinit.obj
 0001:0003d6c4       __ioterm                   0043e6c4 f   LIBCMT:ioinit.obj
 0001:0003d710       __RTC_Initialize           0043e710 f   LIBCMT:initsect.obj
 0001:0003d734       __RTC_Terminate            0043e734 f   LIBCMT:initsect.obj
 0001:0003d758       ___heap_select             0043e758 f   LIBCMT:heapinit.obj
 0001:0003d7b3       __heap_init                0043e7b3 f   LIBCMT:heapinit.obj
 0001:0003d80d       __heap_term                0043e80d f   LIBCMT:heapinit.obj
 0001:0003d881       __get_heap_handle          0043e881 f   LIBCMT:heapinit.obj
 0001:0003d887       ___security_init_cookie    0043e887 f   LIBCMT:gs_support.obj
 0001:0003d91b       ___libm_setusermatherr     0043e91b f   LIBCMT:libm_error.obj
 0001:0003d944       ___libm_error_support      0043e944 f   LIBCMT:libm_error.obj
 0001:0003dbf4       __floor_default            0043ebf4 f   LIBCMT:floor.obj
 0001:0003dcc5       _ldexp                     0043ecc5 f   LIBCMT:ldexp.obj
 0001:0003de73       __set_exp                  0043ee73 f   LIBCMT:util.obj
 0001:0003de9d       __get_exp                  0043ee9d f   LIBCMT:util.obj
 0001:0003deb2       __add_exp                  0043eeb2 f   LIBCMT:util.obj
 0001:0003dedc       __set_bexp                 0043eedc f   LIBCMT:util.obj
 0001:0003df01       __sptype                   0043ef01 f   LIBCMT:util.obj
 0001:0003df5c       __decomp                   0043ef5c f   LIBCMT:util.obj
 0001:0003e00b       __raise_exc_ex             0043f00b f   LIBCMT:fpexcept.obj
 0001:0003e2e5       __raise_exc                0043f2e5 f   LIBCMT:fpexcept.obj
 0001:0003e306       __raise_excf               0043f306 f   LIBCMT:fpexcept.obj
 0001:0003e327       __handle_exc               0043f327 f   LIBCMT:fpexcept.obj
 0001:0003e508       __set_errno_from_matherr   0043f508 f   LIBCMT:fpexcept.obj
 0001:0003e550       __errcode                  0043f550 f   LIBCMT:fpexcept.obj
 0001:0003e57d       __umatherr                 0043f57d f   LIBCMT:fpexcept.obj
 0001:0003e61b       __handle_qnan1             0043f61b f   LIBCMT:fpexcept.obj
 0001:0003e66e       __handle_qnan2             0043f66e f   LIBCMT:fpexcept.obj
 0001:0003e6cd       __except1                  0043f6cd f   LIBCMT:fpexcept.obj
 0001:0003e787       __except2                  0043f787 f   LIBCMT:fpexcept.obj
 0001:0003e853       __statfp                   0043f853 f   LIBCMT:fpctrl.obj
 0001:0003e85e       __clrfp                    0043f85e f   LIBCMT:fpctrl.obj
 0001:0003e86a       __ctrlfp                   0043f86a f   LIBCMT:fpctrl.obj
 0001:0003e891       __set_statfp               0043f891 f   LIBCMT:fpctrl.obj
 0001:0003e8e7       ___get_fpsr_sse2           0043f8e7 f   LIBCMT:fpctrl.obj
 0001:0003e903       ___set_fpsr_sse2           0043f903 f   LIBCMT:fpctrl.obj
 0001:0003e975       ___fclrf_sse2              0043f975 f   LIBCMT:fpctrl.obj
 0001:0003e98d       ___statfp_sse2             0043f98d f   LIBCMT:fpctrl.obj
 0001:0003e9a0       ___clrfp_sse2              0043f9a0 f   LIBCMT:fpctrl.obj
 0001:0003e9b8       ___ctrlfp_sse2             0043f9b8 f   LIBCMT:fpctrl.obj
 0001:0003e9ec       ___set_statfp_sse2         0043f9ec f   LIBCMT:fpctrl.obj
 0001:0003ea89       __VEC_memcpy               0043fa89 f   LIBCMT:p4_memcpy.obj
 0001:0003eb6c       __mtinitlocks              0043fb6c f   LIBCMT:mlock.obj
 0001:0003ebb5       __mtdeletelocks            0043fbb5 f   LIBCMT:mlock.obj
 0001:0003ec0a       __unlock                   0043fc0a f   LIBCMT:mlock.obj
 0001:0003ec1f       __lockerr_exit             0043fc1f f   LIBCMT:mlock.obj
 0001:0003ec37       __mtinitlocknum            0043fc37 f   LIBCMT:mlock.obj
 0001:0003ecfa       __lock                     0043fcfa f   LIBCMT:mlock.obj
 0001:0003ed2b       __get_sbh_threshold        0043fd2b f   LIBCMT:sbheap.obj
 0001:0003ed4c       __set_amblksiz             0043fd4c f   LIBCMT:sbheap.obj
 0001:0003ed92       __get_amblksiz             0043fd92 f   LIBCMT:sbheap.obj
 0001:0003edce       ___sbh_heap_init           0043fdce f   LIBCMT:sbheap.obj
 0001:0003ee16       ___sbh_find_block          0043fe16 f   LIBCMT:sbheap.obj
 0001:0003ee41       ___sbh_free_block          0043fe41 f   LIBCMT:sbheap.obj
 0001:0003f155       ___sbh_alloc_new_region    00440155 f   LIBCMT:sbheap.obj
 0001:0003f205       ___sbh_alloc_new_group     00440205 f   LIBCMT:sbheap.obj
 0001:0003f30b       ___sbh_resize_block        0044030b f   LIBCMT:sbheap.obj
 0001:0003f5ea       ___sbh_heapmin             004405ea f   LIBCMT:sbheap.obj
 0001:0003f6b7       ___sbh_heap_check          004406b7 f   LIBCMT:sbheap.obj
 0001:0003f999       __set_sbh_threshold        00440999 f   LIBCMT:sbheap.obj
 0001:0003fa41       ___sbh_alloc_block         00440a41 f   LIBCMT:sbheap.obj
 0001:0003fd24       __write_nolock             00440d24 f   LIBCMT:write.obj
 0001:000402ea       __write                    004412ea f   LIBCMT:write.obj
 0001:000403c6       __fileno                   004413c6 f   LIBCMT:fileno.obj
 0001:000403f3       __commit                   004413f3 f   LIBCMT:commit.obj
 0001:000404d4       _vfprintf_helper           004414d4 f   LIBCMT:vfprintf.obj
 0001:00040622       __vfprintf_l               00441622 f   LIBCMT:vfprintf.obj
 0001:00040640       __vfprintf_s_l             00441640 f   LIBCMT:vfprintf.obj
 0001:0004065e       __vfprintf_p_l             0044165e f   LIBCMT:vfprintf.obj
 0001:0004067c       _vfprintf                  0044167c f   LIBCMT:vfprintf.obj
 0001:00040698       _vfprintf_s                00441698 f   LIBCMT:vfprintf.obj
 0001:000406b4       __vfprintf_p               004416b4 f   LIBCMT:vfprintf.obj
 0001:000406d0       __fcloseall                004416d0 f   LIBCMT:closeall.obj
 0001:0004076f       __mbsnbicoll_l             0044176f f   LIBCMT:mbsnbico.obj
 0001:0004085b       __mbsnbicoll               0044185b f   LIBCMT:mbsnbico.obj
 0001:00040872       ___wtomb_environ           00441872 f   LIBCMT:wtombenv.obj
 0001:00040907       __calloc_impl              00441907 f   LIBCMT:calloc.obj
 0001:00040a25       _calloc                    00441a25 f   LIBCMT:calloc.obj
 0001:00040a64       _strnlen                   00441a64 f   LIBCMT:strlen_s.obj
 0001:00040ad5       __VEC_memzero              00441ad5 f   LIBCMT:p4_memset.obj
 0001:00040df8       __strtoi64                 00441df8 f   LIBCMT:strtoq.obj
 0001:00040e21       __strtoi64_l               00441e21 f   LIBCMT:strtoq.obj
 0001:00040e3c       __strtoui64                00441e3c f   LIBCMT:strtoq.obj
 0001:00040e66       __strtoui64_l              00441e66 f   LIBCMT:strtoq.obj
 0001:00040e81       __filbuf                   00441e81 f   LIBCMT:_filbuf.obj
 0001:00040fa1       __flsbuf                   00441fa1 f   LIBCMT:_flsbuf.obj
 0001:00041101       __getbuf                   00442101 f   LIBCMT:_getbuf.obj
 0001:00041145       __freebuf                  00442145 f   LIBCMT:_freebuf.obj
 0001:00041171       __ftelli64_nolock          00442171 f   LIBCMT:ftelli64.obj
 0001:00041325       __ftelli64                 00442325 f   LIBCMT:ftelli64.obj
 0001:0004136f       __lseek_nolock             0044236f f   LIBCMT:lseek.obj
 0001:000413e1       __lseek                    004423e1 f   LIBCMT:lseek.obj
 0001:000414bd       __ftell_nolock             004424bd f   LIBCMT:ftell.obj
 0001:00041655       _ftell                     00442655 f   LIBCMT:ftell.obj
 0001:000416c3       __fseeki64_nolock          004426c3 f   LIBCMT:fseeki64.obj
 0001:0004175c       __fseeki64                 0044275c f   LIBCMT:fseeki64.obj
 0001:000417ab       __close_nolock             004427ab f   LIBCMT:close.obj
 0001:0004183f       __close                    0044283f f   LIBCMT:close.obj
 0001:0004190c       ___getlocaleinfo           0044290c f   LIBCMT:inithelp.obj
 0001:00041a66       __initp_misc_purevirt      00442a66 f   LIBCMT:inithelp.obj
 0001:00041a70       __vsprintf_l               00442a70 f   LIBCMT:vsprintf.obj
 0001:00041aec       _vsprintf                  00442aec f   LIBCMT:vsprintf.obj
 0001:00041b03       __vscprintf_helper         00442b03 f   LIBCMT:vsprintf.obj
 0001:00041b58       __vscprintf                00442b58 f   LIBCMT:vsprintf.obj
 0001:00041b70       __vscprintf_l              00442b70 f   LIBCMT:vsprintf.obj
 0001:00041b8a       __vscprintf_p              00442b8a f   LIBCMT:vsprintf.obj
 0001:00041ba2       __vscprintf_p_l            00442ba2 f   LIBCMT:vsprintf.obj
 0001:00041bbc       __vsnprintf_helper         00442bbc f   LIBCMT:vsnprnc.obj
 0001:00041c86       __vsnprintf_c              00442c86 f   LIBCMT:vsnprnc.obj
 0001:00041cad       __vsnprintf_c_l            00442cad f   LIBCMT:vsnprnc.obj
 0001:00041cd5       __vsprintf_s_l             00442cd5 f   LIBCMT:vsnprnc.obj
 0001:00041d5b       _vsprintf_s                00442d5b f   LIBCMT:vsnprnc.obj
 0001:00041d76       __vsnprintf_s_l            00442d76 f   LIBCMT:vsnprnc.obj
 0001:00041e7b       __vsnprintf_s              00442e7b f   LIBCMT:vsnprnc.obj
 0001:00041e99       __vsprintf_p               00442e99 f   LIBCMT:vsnprnc.obj
 0001:00041ec0       __vsprintf_p_l             00442ec0 f   LIBCMT:vsnprnc.obj
 0001:00041ef0       __ValidateImageBase        00442ef0 f   LIBCMT:pesect.obj
 0001:00041f20       __FindPESection            00442f20 f   LIBCMT:pesect.obj
 0001:00041f62       __IsNonwritableInCurrentImage 00442f62 f   LIBCMT:pesect.obj
 0001:00041fce       __initp_misc_winsig        00442fce f   LIBCMT:winsig.obj
 0001:000420b6       ___get_sigabrt             004430b6 f   LIBCMT:winsig.obj
 0001:000420c3       ___fpecode                 004430c3 f   LIBCMT:winsig.obj
 0001:000420cc       ___pxcptinfoptrs           004430cc f   LIBCMT:winsig.obj
 0001:000420d5       _signal                    004430d5 f   LIBCMT:winsig.obj
 0001:00042312       _raise                     00443312 f   LIBCMT:winsig.obj
 0001:000424c2       __initp_misc_rand_s        004434c2 f   LIBCMT:rand_s.obj
 0001:000424cc       _rand_s                    004434cc f   LIBCMT:rand_s.obj
 0001:000425d0       __initp_misc_initcrit      004435d0 f   LIBCMT:initcrit.obj
 0001:000425ea       ___crtInitCritSecAndSpinCount 004435ea f   LIBCMT:initcrit.obj
 0001:000426c0       _strchr                    004436c0 f   LIBCMT:strchr.obj
 0001:000426c6       ___from_strstr_to_strchr   004436c6     LIBCMT:strchr.obj
 0001:0004298c       ___updatetmbcinfo          0044398c f   LIBCMT:mbctype.obj
 0001:00042aaa       __setmbcp_nolock           00443aaa f   LIBCMT:mbctype.obj
 0001:00042c55       __getmbcp                  00443c55 f   LIBCMT:mbctype.obj
 0001:00042c91       __setmbcp                  00443c91 f   LIBCMT:mbctype.obj
 0001:00042e2b       ___initmbctable            00443e2b f   LIBCMT:mbctype.obj
 0001:00042e49       __isctype_l                00443e49 f   LIBCMT:isctype.obj
 0001:00042eff       __isctype                  00443eff f   LIBCMT:isctype.obj
 0001:00042f2e       ?_ValidateRead@@YAHPBXI@Z  00443f2e f   LIBCMT:validate.obj
 0001:00042f3b       ?_ValidateWrite@@YAHPAXI@Z 00443f3b f   LIBCMT:validate.obj
 0001:00042f48       ?_ValidateExecute@@YAHP6GHXZ@Z 00443f48 f   LIBCMT:validate.obj
 0001:00042f55       ___ansicp                  00443f55 f   LIBCMT:convrtcp.obj
 0001:00042f9c       ___convertcp               00443f9c f   LIBCMT:convrtcp.obj
 0001:00043150       __alloca_probe_16          00444150 f   LIBCMT:alloca16.obj
 0001:00043166       __alloca_probe_8           00444166     LIBCMT:alloca16.obj
 0001:00043334       ___crtGetStringTypeA       00444334 f   LIBCMT:a_str.obj
 0001:00043374       _realloc                   00444374 f   LIBCMT:realloc.obj
 0001:0004358f       __recalloc                 0044458f f   LIBCMT:realloc.obj
 0001:000439ef       ___free_lc_time            004449ef f   LIBCMT:inittime.obj
 0001:00043b7f       ___init_time               00444b7f f   LIBCMT:inittime.obj
 0001:00043c25       ___free_lconv_num          00444c25 f   LIBCMT:initnum.obj
 0001:00043c65       ___init_numeric            00444c65 f   LIBCMT:initnum.obj
 0001:00043e60       ___free_lconv_mon          00444e60 f   LIBCMT:initmon.obj
 0001:00043ee9       ___init_monetary           00444ee9 f   LIBCMT:initmon.obj
 0001:000441ad       ___init_collate            004451ad f   LIBCMT:initcoll.obj
 0001:000441b0       __Getdays_l                004451b0 f   LIBCMT:strftime.obj
 0001:000442ae       __Getdays                  004452ae f   LIBCMT:strftime.obj
 0001:000442b7       __Getmonths_l              004452b7 f   LIBCMT:strftime.obj
 0001:000443b5       __Getmonths                004453b5 f   LIBCMT:strftime.obj
 0001:000443be       __Gettnames_l              004453be f   LIBCMT:strftime.obj
 0001:00044713       __Gettnames                00445713 f   LIBCMT:strftime.obj
 0001:000450e3       __Strftime_l               004460e3 f   LIBCMT:strftime.obj
 0001:00045292       __strftime_l               00446292 f   LIBCMT:strftime.obj
 0001:000452b0       _strftime                  004462b0 f   LIBCMT:strftime.obj
 0001:000452cd       __Strftime                 004462cd f   LIBCMT:strftime.obj
 0001:000452eb       _strcat_s                  004462eb f   LIBCMT:strcat_s.obj
 0001:0004535c       _strncpy_s                 0044635c f   LIBCMT:strncpy_s.obj
 0001:000459c9       ___get_qualified_locale    004469c9 f   LIBCMT:getqloc.obj
 0001:0004711e       _memcmp                    0044811e f   LIBCMT:memcmp.obj
 0001:0004879e       _strncmp                   0044979e f   LIBCMT:strncmp.obj
 0001:00048860       _strpbrk                   00449860 f   LIBCMT:strpbrk.obj
 0001:000488a0       __openfile                 004498a0 f   LIBCMT:_open.obj
 0001:00048b42       __getstream                00449b42 f   LIBCMT:stream.obj
 0001:00048c68       __local_unwind4            00449c68 f   LIBCMT:exsup4.obj
 0001:00048d3e       __seh_longjmp_unwind4@4    00449d3e f   LIBCMT:exsup4.obj
 0001:00048d5a       @_EH4_CallFilterFunc@8     00449d5a f   LIBCMT:exsup4.obj
 0001:00048d71       @_EH4_TransferToHandler@8  00449d71 f   LIBCMT:exsup4.obj
 0001:00048d8a       @_EH4_GlobalUnwind@4       00449d8a f   LIBCMT:exsup4.obj
 0001:00048da4       @_EH4_LocalUnwind@16       00449da4 f   LIBCMT:exsup4.obj
 0001:00048dbb       _wcslen                    00449dbb f   LIBCMT:wcslen.obj
 0001:00048dd1       __wopenfile                00449dd1 f   LIBCMT:_wopen.obj
 0001:0004905d       __isleadbyte_l             0044a05d f i LIBCMT:_wctype.obj
 0001:00049093       _isleadbyte                0044a093 f i LIBCMT:_wctype.obj
 0001:000490a1       __iswalpha_l               0044a0a1 f i LIBCMT:_wctype.obj
 0001:000490b7       _iswalpha                  0044a0b7 f i LIBCMT:_wctype.obj
 0001:000490c8       __iswupper_l               0044a0c8 f i LIBCMT:_wctype.obj
 0001:000490db       _iswupper                  0044a0db f i LIBCMT:_wctype.obj
 0001:000490e9       __iswlower_l               0044a0e9 f i LIBCMT:_wctype.obj
 0001:000490fc       _iswlower                  0044a0fc f i LIBCMT:_wctype.obj
 0001:0004910a       __iswdigit_l               0044a10a f i LIBCMT:_wctype.obj
 0001:0004911d       _iswdigit                  0044a11d f i LIBCMT:_wctype.obj
 0001:0004912b       __iswxdigit_l              0044a12b f i LIBCMT:_wctype.obj
 0001:00049141       _iswxdigit                 0044a141 f i LIBCMT:_wctype.obj
 0001:00049152       __iswspace_l               0044a152 f i LIBCMT:_wctype.obj
 0001:00049165       _iswspace                  0044a165 f i LIBCMT:_wctype.obj
 0001:00049173       __iswpunct_l               0044a173 f i LIBCMT:_wctype.obj
 0001:00049186       _iswpunct                  0044a186 f i LIBCMT:_wctype.obj
 0001:00049194       __iswalnum_l               0044a194 f i LIBCMT:_wctype.obj
 0001:000491aa       _iswalnum                  0044a1aa f i LIBCMT:_wctype.obj
 0001:000491bb       __iswprint_l               0044a1bb f i LIBCMT:_wctype.obj
 0001:000491d1       _iswprint                  0044a1d1 f i LIBCMT:_wctype.obj
 0001:000491e2       __iswgraph_l               0044a1e2 f i LIBCMT:_wctype.obj
 0001:000491f8       _iswgraph                  0044a1f8 f i LIBCMT:_wctype.obj
 0001:00049209       __iswcntrl_l               0044a209 f i LIBCMT:_wctype.obj
 0001:0004921c       _iswcntrl                  0044a21c f i LIBCMT:_wctype.obj
 0001:0004922a       _iswascii                  0044a22a f i LIBCMT:_wctype.obj
 0001:00049236       __iswcsym_l                0044a236 f i LIBCMT:_wctype.obj
 0001:0004925c       ___iswcsym                 0044a25c f i LIBCMT:_wctype.obj
 0001:0004927d       __iswcsymf_l               0044a27d f i LIBCMT:_wctype.obj
 0001:000492a3       ___iswcsymf                0044a2a3 f i LIBCMT:_wctype.obj
 0001:000492d0       __aulldvrm                 0044a2d0 f   LIBCMT:ulldvrm.obj
 0001:00049365       ??0Block@HeapManager@@QAE@XZ 0044a365 f i LIBCMT:undname.obj
 0001:0004936b       ?Constructor@HeapManager@@QAEXP6APAXI@ZP6AXPAX@Z@Z 0044a36b f i LIBCMT:undname.obj
 0001:00049386       ?Destructor@HeapManager@@QAEXXZ 0044a386 f i LIBCMT:undname.obj
 0001:000493ac       ?getNumberOfDimensions@UnDecorator@@CAHXZ 0044a3ac f   LIBCMT:undname.obj
 0001:0004940f       ?getTypeEncoding@UnDecorator@@CAHXZ 0044a40f f i LIBCMT:undname.obj
 0001:00049883       ?doUnderScore@UnDecorator@@SAHXZ 0044a883 f i LIBCMT:undname.obj
 0001:0004988e       ?doMSKeywords@UnDecorator@@SAHXZ 0044a88e f i LIBCMT:undname.obj
 0001:0004989b       ?doPtr64@UnDecorator@@SAHXZ 0044a89b f i LIBCMT:undname.obj
 0001:000498a9       ?doFunctionReturns@UnDecorator@@SAHXZ 0044a8a9 f i LIBCMT:undname.obj
 0001:000498b7       ?doAllocationModel@UnDecorator@@SAHXZ 0044a8b7 f i LIBCMT:undname.obj
 0001:000498c5       ?doAllocationLanguage@UnDecorator@@SAHXZ 0044a8c5 f i LIBCMT:undname.obj
 0001:000498d3       ?doThisTypes@UnDecorator@@SAHXZ 0044a8d3 f i LIBCMT:undname.obj
 0001:000498e5       ?doAccessSpecifiers@UnDecorator@@SAHXZ 0044a8e5 f i LIBCMT:undname.obj
 0001:000498f3       ?doThrowTypes@UnDecorator@@SAHXZ 0044a8f3 f i LIBCMT:undname.obj
 0001:00049901       ?doMemberTypes@UnDecorator@@SAHXZ 0044a901 f i LIBCMT:undname.obj
 0001:0004990f       ?doNameOnly@UnDecorator@@SAHXZ 0044a90f f i LIBCMT:undname.obj
 0001:0004991a       ?doTypeOnly@UnDecorator@@SAHXZ 0044a91a f i LIBCMT:undname.obj
 0001:00049925       ?haveTemplateParameters@UnDecorator@@SAHXZ 0044a925 f i LIBCMT:undname.obj
 0001:00049930       ?doEcsu@UnDecorator@@SAHXZ 0044a930 f i LIBCMT:undname.obj
 0001:0004993e       ?doNoIdentCharCheck@UnDecorator@@SAHXZ 0044a93e f i LIBCMT:undname.obj
 0001:00049949       ?doEllipsis@UnDecorator@@SAHXZ 0044a949 f i LIBCMT:undname.obj
 0001:00049957       ?UScore@UnDecorator@@SAPBDW4Tokens@@@Z 0044a957 f   LIBCMT:undname.obj
 0001:00049970       ?getMemory@HeapManager@@QAEPAXIH@Z 0044a970 f   LIBCMT:undname.obj
 0001:000499f4       ??0DName@@QAE@XZ           0044a9f4 f i LIBCMT:undname.obj
 0001:00049a01       ??0DName@@QAE@PAVDNameNode@@@Z 0044aa01 f i LIBCMT:undname.obj
 0001:00049a13       ??0DName@@QAE@ABV0@@Z      0044aa13 f i LIBCMT:undname.obj
 0001:00049aaf       ?status@DName@@QBE?AW4DNameStatus@@XZ 0044aaaf f i LIBCMT:undname.obj
 0001:00049ab9       ?clearStatus@DName@@QAEXXZ 0044aab9 f i LIBCMT:undname.obj
 0001:00049abe       ?setPtrRef@DName@@QAEAAV1@XZ 0044aabe f i LIBCMT:undname.obj
 0001:00049ac5       ?isPtrRef@DName@@QBEHXZ    0044aac5 f i LIBCMT:undname.obj
 0001:00049acf       ?setIsArray@DName@@QAEXXZ  0044aacf f i LIBCMT:undname.obj
 0001:00049ad7       ?isArray@DName@@QBEHXZ     0044aad7 f i LIBCMT:undname.obj
 0001:00049ae1       ?isNoTE@DName@@QBEHXZ      0044aae1 f i LIBCMT:undname.obj
 0001:00049aeb       ?setIsNoTE@DName@@QAEXXZ   0044aaeb f i LIBCMT:undname.obj
 0001:00049af3       ?isPinPtr@DName@@QBEHXZ    0044aaf3 f i LIBCMT:undname.obj
 0001:00049afd       ?setIsPinPtr@DName@@QAEXXZ 0044aafd f i LIBCMT:undname.obj
 0001:00049b05       ?isComArray@DName@@QBEHXZ  0044ab05 f i LIBCMT:undname.obj
 0001:00049b0f       ?setIsComArray@DName@@QAEXXZ 0044ab0f f i LIBCMT:undname.obj
 0001:00049b17       ?isVCallThunk@DName@@QBEHXZ 0044ab17 f i LIBCMT:undname.obj
 0001:00049b21       ?setIsVCallThunk@DName@@QAEXXZ 0044ab21 f i LIBCMT:undname.obj
 0001:00049b29       ??4DName@@QAEAAV0@ABV0@@Z  0044ab29 f   LIBCMT:undname.obj
 0001:00049ba4       ?isFull@Replicator@@QBEHXZ 0044aba4 f i LIBCMT:undname.obj
 0001:00049bad       ??AReplicator@@QBEABVDName@@H@Z 0044abad f   LIBCMT:undname.obj
 0001:00049bd2       ??0DNameNode@@IAE@XZ       0044abd2 f   LIBCMT:undname.obj
 0001:00049bdf       ?nextNode@DNameNode@@QBEPAV1@XZ 0044abdf f i LIBCMT:undname.obj
 0001:00049be3       ??YDNameNode@@QAEAAV0@PAV0@@Z 0044abe3 f   LIBCMT:undname.obj
 0001:00049c0c       ??0charNode@@QAE@D@Z       0044ac0c f   LIBCMT:undname.obj
 0001:00049c22       ?length@charNode@@UBEHXZ   0044ac22 f i LIBCMT:undname.obj
 0001:00049c26       ?getLastChar@charNode@@UBEDXZ 0044ac26 f i LIBCMT:undname.obj
 0001:00049c2a       ?getString@charNode@@UBEPADPADH@Z 0044ac2a f   LIBCMT:undname.obj
 0001:00049c45       ?length@pcharNode@@UBEHXZ  0044ac45 f i LIBCMT:undname.obj
 0001:00049c49       ??0pDNameNode@@QAE@PAVDName@@@Z 0044ac49 f   LIBCMT:undname.obj
 0001:00049c78       ??0DNameStatusNode@@QAE@W4DNameStatus@@@Z 0044ac78 f   LIBCMT:undname.obj
 0001:00049c9d       ?length@DNameStatusNode@@UBEHXZ 0044ac9d f i LIBCMT:undname.obj
 0001:00049ca1       ?getLastChar@DNameStatusNode@@UBEDXZ 0044aca1 f i LIBCMT:undname.obj
 0001:00049d01       ?getDataIndirectType@UnDecorator@@CA?AVDName@@XZ 0044ad01 f i LIBCMT:undname.obj
 0001:00049d34       ?getThisType@UnDecorator@@CA?AVDName@@XZ 0044ad34 f i LIBCMT:undname.obj
 0001:00049d68       ??2@YAPAXIAAVHeapManager@@H@Z 0044ad68 f i LIBCMT:undname.obj
 0001:00049d7b       ??0DName@@QAE@PAV0@@Z      0044ad7b f   LIBCMT:undname.obj
 0001:00049dd1       ??0DName@@QAE@W4DNameStatus@@@Z 0044add1 f   LIBCMT:undname.obj
 0001:00049e32       ?isValid@DName@@QBEHXZ     0044ae32 f   LIBCMT:undname.obj
 0001:00049e49       ?isEmpty@DName@@QBEHXZ     0044ae49 f   LIBCMT:undname.obj
 0001:00049e5e       ?isUDC@DName@@QBEHXZ       0044ae5e f i LIBCMT:undname.obj
 0001:00049e72       ?setIsUDC@DName@@QAEXXZ    0044ae72 f i LIBCMT:undname.obj
 0001:00049e80       ?isUDTThunk@DName@@QBEHXZ  0044ae80 f i LIBCMT:undname.obj
 0001:00049e94       ?length@DName@@QBEHXZ      0044ae94 f   LIBCMT:undname.obj
 0001:00049eb9       ?getLastChar@DName@@QBEDXZ 0044aeb9 f   LIBCMT:undname.obj
 0001:00049ef1       ?getString@DName@@QBEPADPADH@Z 0044aef1 f   LIBCMT:undname.obj
 0001:00049f82       ??_5DName@@QAEAAV0@ABV0@@Z 0044af82 f   LIBCMT:undname.obj
 0001:00049fb7       ??4DName@@QAEAAV0@W4DNameStatus@@@Z 0044afb7 f   LIBCMT:undname.obj
 0001:0004a038       ??0Replicator@@QAE@XZ      0044b038 f i LIBCMT:undname.obj
 0001:0004a056       ??YReplicator@@QAEAAV0@ABVDName@@@Z 0044b056 f   LIBCMT:undname.obj
 0001:0004a09d       ?clone@DNameNode@@QAEPAV1@XZ 0044b09d f   LIBCMT:undname.obj
 0001:0004a0e4       ??0pcharNode@@QAE@PBDH@Z   0044b0e4 f   LIBCMT:undname.obj
 0001:0004a149       ?getLastChar@pcharNode@@UBEDXZ 0044b149 f i LIBCMT:undname.obj
 0001:0004a15b       ?getString@pcharNode@@UBEPADPADH@Z 0044b15b f   LIBCMT:undname.obj
 0001:0004a18c       ?length@pDNameNode@@UBEHXZ 0044b18c f i LIBCMT:undname.obj
 0001:0004a19b       ?getLastChar@pDNameNode@@UBEDXZ 0044b19b f i LIBCMT:undname.obj
 0001:0004a1aa       ?getString@pDNameNode@@UBEPADPADH@Z 0044b1aa f   LIBCMT:undname.obj
 0001:0004a1c7       ?getString@DNameStatusNode@@UBEPADPADH@Z 0044b1c7 f   LIBCMT:undname.obj
 0001:0004a1fa       ??0UnDecorator@@QAE@PADPBDHP6APADJ@ZK@Z 0044b1fa f i LIBCMT:undname.obj
 0001:0004a26d       ?getReturnType@UnDecorator@@CA?AVDName@@PAV2@@Z 0044b26d f   LIBCMT:undname.obj
 0001:0004a29c       ?getStorageConvention@UnDecorator@@CA?AVDName@@XZ 0044b29c f i LIBCMT:undname.obj
 0001:0004a2ab       ??YDName@@QAEAAV0@W4DNameStatus@@@Z 0044b2ab f   LIBCMT:undname.obj
 0001:0004a324       ??4DName@@QAEAAV0@PAV0@@Z  0044b324 f   LIBCMT:undname.obj
 0001:0004a38c       ?doPchar@DName@@AAEXPBDH@Z 0044b38c f   LIBCMT:undname.obj
 0001:0004a432       ??0DName@@QAE@D@Z          0044b432 f   LIBCMT:undname.obj
 0001:0004a458       ??0DName@@QAE@PBD@Z        0044b458 f   LIBCMT:undname.obj
 0001:0004a489       ??0DName@@QAE@AAPBDD@Z     0044b489 f   LIBCMT:undname.obj
 0001:0004a559       ??0DName@@QAE@_K@Z         0044b559 f   LIBCMT:undname.obj
 0001:0004a5c2       ??0DName@@QAE@_J@Z         0044b5c2 f   LIBCMT:undname.obj
 0001:0004a659       ??HDName@@QBE?AV0@W4DNameStatus@@@Z 0044b659 f   LIBCMT:undname.obj
 0001:0004a687       ??YDName@@QAEAAV0@ABV0@@Z  0044b687 f   LIBCMT:undname.obj
 0001:0004a6e9       ??YDName@@QAEAAV0@PAV0@@Z  0044b6e9 f   LIBCMT:undname.obj
 0001:0004a774       ??4DName@@QAEAAV0@D@Z      0044b774 f   LIBCMT:undname.obj
 0001:0004a790       ??4DName@@QAEAAV0@PBD@Z    0044b790 f   LIBCMT:undname.obj
 0001:0004a7ba       ?getCallingConvention@UnDecorator@@CA?AVDName@@XZ 0044b7ba f   LIBCMT:undname.obj
 0001:0004a860       ?getVCallThunkType@UnDecorator@@CA?AVDName@@XZ 0044b860 f i LIBCMT:undname.obj
 0001:0004a897       ??HDName@@QBE?AV0@ABV0@@Z  0044b897 f   LIBCMT:undname.obj
 0001:0004a8e8       ??HDName@@QBE?AV0@PAV0@@Z  0044b8e8 f   LIBCMT:undname.obj
 0001:0004a916       ??YDName@@QAEAAV0@D@Z      0044b916 f   LIBCMT:undname.obj
 0001:0004a980       ??YDName@@QAEAAV0@PBD@Z    0044b980 f   LIBCMT:undname.obj
 0001:0004a9ec       ?getArgumentList@UnDecorator@@CA?AVDName@@XZ 0044b9ec f   LIBCMT:undname.obj
 0001:0004aacc       ?getVdispMapType@UnDecorator@@CA?AVDName@@ABV2@@Z 0044bacc f i LIBCMT:undname.obj
 0001:0004ab1b       ??H@YA?AVDName@@DABV0@@Z   0044bb1b f i LIBCMT:undname.obj
 0001:0004ab3d       ??H@YA?AVDName@@W4DNameStatus@@ABV0@@Z 0044bb3d f i LIBCMT:undname.obj
 0001:0004ab5f       ??H@YA?AVDName@@PBDABV0@@Z 0044bb5f f i LIBCMT:undname.obj
 0001:0004ab81       ??HDName@@QBE?AV0@D@Z      0044bb81 f   LIBCMT:undname.obj
 0001:0004abaf       ??HDName@@QBE?AV0@PBD@Z    0044bbaf f   LIBCMT:undname.obj
 0001:0004abdd       ?getDimension@UnDecorator@@CA?AVDName@@_N@Z 0044bbdd f   LIBCMT:undname.obj
 0001:0004ad1e       ?getEnumType@UnDecorator@@CA?AVDName@@XZ 0044bd1e f i LIBCMT:undname.obj
 0001:0004adf2       ?getArgumentTypes@UnDecorator@@CA?AVDName@@XZ 0044bdf2 f   LIBCMT:undname.obj
 0001:0004aeb6       ?getThrowTypes@UnDecorator@@CA?AVDName@@XZ 0044beb6 f   LIBCMT:undname.obj
 0001:0004af34       ?getExtendedDataIndirectType@UnDecorator@@CA?AVDName@@AADAA_NH@Z 0044bf34 f   LIBCMT:undname.obj
 0001:0004b059       ?getArrayType@UnDecorator@@CA?AVDName@@ABV2@@Z 0044c059 f i LIBCMT:undname.obj
 0001:0004b1b8       ?getLexicalFrame@UnDecorator@@CA?AVDName@@XZ 0044c1b8 f i LIBCMT:undname.obj
 0001:0004b1e9       ?getDisplacement@UnDecorator@@CA?AVDName@@XZ 0044c1e9 f i LIBCMT:undname.obj
 0001:0004b1fb       ?getCallIndex@UnDecorator@@CA?AVDName@@XZ 0044c1fb f i LIBCMT:undname.obj
 0001:0004b20d       ?getGuardNumber@UnDecorator@@CA?AVDName@@XZ 0044c20d f i LIBCMT:undname.obj
 0001:0004b21f       ?getVfTableType@UnDecorator@@CA?AVDName@@ABV2@@Z 0044c21f f i LIBCMT:undname.obj
 0001:0004b36f       ?getStringEncoding@UnDecorator@@CA?AVDName@@PADH@Z 0044c36f f   LIBCMT:undname.obj
 0001:0004b40f       ?getSignedDimension@UnDecorator@@CA?AVDName@@XZ 0044c40f f   LIBCMT:undname.obj
 0001:0004b45f       ?getTemplateConstant@UnDecorator@@CA?AVDName@@XZ 0044c45f f   LIBCMT:undname.obj
 0001:0004b71a       ?getPtrRefDataType@UnDecorator@@CA?AVDName@@ABV2@H@Z 0044c71a f i LIBCMT:undname.obj
 0001:0004b7f3       ?getVbTableType@UnDecorator@@CA?AVDName@@ABV2@@Z 0044c7f3 f i LIBCMT:undname.obj
 0001:0004b807       ?getTemplateArgumentList@UnDecorator@@CA?AVDName@@XZ 0044c807 f   LIBCMT:undname.obj
 0001:0004b9bf       ?getOperatorName@UnDecorator@@CA?AVDName@@_NPA_N@Z 0044c9bf f i LIBCMT:undname.obj
 0001:0004bf2e       ?getTemplateName@UnDecorator@@CA?AVDName@@_N@Z 0044cf2e f   LIBCMT:undname.obj
 0001:0004c081       ?getZName@UnDecorator@@CA?AVDName@@_N@Z 0044d081 f   LIBCMT:undname.obj
 0001:0004c26b       ?getScopedName@UnDecorator@@CA?AVDName@@XZ 0044d26b f   LIBCMT:undname.obj
 0001:0004c34f       ?getECSUName@UnDecorator@@CA?AVDName@@XZ 0044d34f f i LIBCMT:undname.obj
 0001:0004c35e       ?getECSUDataType@UnDecorator@@CA?AVDName@@XZ 0044d35e f   LIBCMT:undname.obj
 0001:0004c45e       ?getSymbolName@UnDecorator@@CA?AVDName@@XZ 0044d45e f i LIBCMT:undname.obj
 0001:0004c4a4       ?getBasedType@UnDecorator@@CA?AVDName@@XZ 0044d4a4 f   LIBCMT:undname.obj
 0001:0004c536       ?composeDeclaration@UnDecorator@@CA?AVDName@@ABV2@@Z 0044d536 f i LIBCMT:undname.obj
 0001:0004d078       ?getDecoratedName@UnDecorator@@CA?AVDName@@XZ 0044e078 f   LIBCMT:undname.obj
 0001:0004d289       ?getScope@UnDecorator@@CA?AVDName@@XZ 0044e289 f   LIBCMT:undname.obj
 0001:0004d514       ?getFunctionIndirectType@UnDecorator@@CA?AVDName@@ABV2@@Z 0044e514 f   LIBCMT:undname.obj
 0001:0004d855       ?getDataIndirectType@UnDecorator@@CA?AVDName@@ABV2@D0H@Z 0044e855 f   LIBCMT:undname.obj
 0001:0004dd39       ??BUnDecorator@@QAEPADXZ   0044ed39 f i LIBCMT:undname.obj
 0001:0004de85       ?getPtrRefType@UnDecorator@@CA?AVDName@@ABV2@0D@Z 0044ee85 f   LIBCMT:undname.obj
 0001:0004df9b       ?getPointerType@UnDecorator@@CA?AVDName@@ABV2@0@Z 0044ef9b f i LIBCMT:undname.obj
 0001:0004dfb6       ?getPointerTypeArray@UnDecorator@@CA?AVDName@@ABV2@0@Z 0044efb6 f i LIBCMT:undname.obj
 0001:0004dfd1       ?getReferenceType@UnDecorator@@CA?AVDName@@ABV2@0@Z 0044efd1 f i LIBCMT:undname.obj
 0001:0004dfec       ___unDName                 0044efec f   LIBCMT:undname.obj
 0001:0004e08f       ___unDNameEx               0044f08f f   LIBCMT:undname.obj
 0001:0004e132       ?getBasicDataType@UnDecorator@@CA?AVDName@@ABV2@@Z 0044f132 f   LIBCMT:undname.obj
 0001:0004e4a6       ?getPrimaryDataType@UnDecorator@@CA?AVDName@@ABV2@@Z 0044f4a6 f   LIBCMT:undname.obj
 0001:0004e5e4       ?getDataType@UnDecorator@@CA?AVDName@@PAV2@@Z 0044f5e4 f   LIBCMT:undname.obj
 0001:0004e695       ?getExternalDataType@UnDecorator@@CA?AVDName@@ABV2@@Z 0044f695 f i LIBCMT:undname.obj
 0001:0004e700       _strrchr                   0044f700 f   LIBCMT:strrchr.obj
 0001:0004e72d       __tolower                  0044f72d f   LIBCMT:tolower.obj
 0001:0004e735       __tolower_l                0044f735 f   LIBCMT:tolower.obj
 0001:0004e84c       _tolower                   0044f84c f   LIBCMT:tolower.obj
 0001:0004e873       __atodbl_l                 0044f873 f   LIBCMT:atodbl.obj
 0001:0004e919       __atodbl                   0044f919 f   LIBCMT:atodbl.obj
 0001:0004e92c       __atoldbl_l                0044f92c f   LIBCMT:atodbl.obj
 0001:0004e9d3       __atoldbl                  0044f9d3 f   LIBCMT:atodbl.obj
 0001:0004e9e6       __atoflt_l                 0044f9e6 f   LIBCMT:atodbl.obj
 0001:0004ea8c       __atoflt                   0044fa8c f   LIBCMT:atodbl.obj
 0001:0004ea9f       __set_output_format        0044fa9f f   LIBCMT:outputformat.obj
 0001:0004ead6       __get_output_format        0044fad6 f   LIBCMT:outputformat.obj
 0001:0004eadc       __fptostr                  0044fadc f   LIBCMT:_fptostr.obj
 0001:0004eb99       ___dtold                   0044fb99 f   LIBCMT:cfout.obj
 0001:0004ec54       __fltout2                  0044fc54 f   LIBCMT:cfout.obj
 0001:0004ecf0       __alldvrm                  0044fcf0 f   LIBCMT:lldvrm.obj
 0001:0004edd0       __aullshr                  0044fdd0 f   LIBCMT:ullshr.obj
 0001:0004edef       __fptrap                   0044fdef f   LIBCMT:crt0fp.obj
 0001:0004edf8       __controlfp_s              0044fdf8 f   LIBCMT:contrlfp.obj
 0001:0004eeb2       __get_sse2_info            0044feb2 f   LIBCMT:cpu_disp.obj
 0001:0004ef12       ___sse2_available_init     0044ff12 f   LIBCMT:cpu_disp.obj
 0001:0004ef1f       __d_inttype                0044ff1f f   LIBCMT:powhlp.obj
 0001:0004ef83       __powhlp                   0044ff83 f   LIBCMT:powhlp.obj
 0001:0004f0d0       _fdiv_main_routine         004500d0 f   LIBCMT:adj_fdiv.obj
 0001:0004f1e7       __adj_fdiv_r               004501e7 f   LIBCMT:adj_fdiv.obj
 0001:0004f686       __fdivp_sti_st             00450686 f   LIBCMT:adj_fdiv.obj
 0001:0004f699       __fdivrp_sti_st            00450699 f   LIBCMT:adj_fdiv.obj
 0001:0004f6ac       __adj_fdiv_m32             004506ac f   LIBCMT:adj_fdiv.obj
 0001:0004f6f8       __adj_fdiv_m64             004506f8 f   LIBCMT:adj_fdiv.obj
 0001:0004f744       __adj_fdiv_m16i            00450744 f   LIBCMT:adj_fdiv.obj
 0001:0004f778       __adj_fdiv_m32i            00450778 f   LIBCMT:adj_fdiv.obj
 0001:0004f7ac       __adj_fdivr_m32            004507ac f   LIBCMT:adj_fdiv.obj
 0001:0004f7f8       __adj_fdivr_m64            004507f8 f   LIBCMT:adj_fdiv.obj
 0001:0004f844       __adj_fdivr_m16i           00450844 f   LIBCMT:adj_fdiv.obj
 0001:0004f878       __adj_fdivr_m32i           00450878 f   LIBCMT:adj_fdiv.obj
 0001:0004f8ac       __safe_fdiv                004508ac f   LIBCMT:adj_fdiv.obj
 0001:0004f8c1       __safe_fdivr               004508c1 f   LIBCMT:adj_fdiv.obj
 0001:0004f8d6       __fprem_common             004508d6 f   LIBCMT:adj_fdiv.obj
 0001:0004fadc       __adj_fprem                00450adc f   LIBCMT:adj_fdiv.obj
 0001:0004fb8e       __fprem1_common            00450b8e f   LIBCMT:adj_fdiv.obj
 0001:0004fd94       __adj_fprem1               00450d94 f   LIBCMT:adj_fdiv.obj
 0001:0004fe49       __safe_fprem               00450e49 f   LIBCMT:adj_fdiv.obj
 0001:0004fe4f       __safe_fprem1              00450e4f f   LIBCMT:adj_fdiv.obj
 0001:0004fe55       __adj_fpatan               00450e55 f   LIBCMT:adj_fdiv.obj
 0001:0004fe58       __adj_fptan                00450e58 f   LIBCMT:adj_fdiv.obj
 0001:0004fe5b       __87except                 00450e5b f   LIBCMT:87except.obj
 0001:0004ff57       __isatty                   00450f57 f   LIBCMT:isatty.obj
 0001:0004ffb5       __wctomb_s_l               00450fb5 f   LIBCMT:wctomb.obj
 0001:00050114       _wctomb_s                  00451114 f   LIBCMT:wctomb.obj
 0001:0005012f       __wctomb_l                 0045112f f   LIBCMT:wctomb.obj
 0001:0005017e       _wctomb                    0045117e f   LIBCMT:wctomb.obj
 0001:0005024f       __output_s_l               0045124f f   LIBCMT:outputs.obj
 0001:00050bff       __validate_param_reuseA    00451bff f   LIBCMT:outputp.obj
 0001:00050dc9       _get_crtdouble_arg         00451dc9 f i LIBCMT:outputp.obj
 0001:00050dd9       __output_p_l               00451dd9 f   LIBCMT:outputp.obj
 0001:00051d68       __global_unwind2           00452d68 f   LIBCMT:exsup.obj
 0001:00051dcd       __local_unwind2            00452dcd f   LIBCMT:exsup.obj
 0001:00051e51       __abnormal_termination     00452e51 f   LIBCMT:exsup.obj
 0001:00051e74       __NLG_Notify1              00452e74 f   LIBCMT:exsup.obj
 0001:00051e7d       __NLG_Notify               00452e7d f   LIBCMT:exsup.obj
 0001:00051e94       __NLG_Dispatch2            00452e94     LIBCMT:exsup.obj
 0001:00051e94       __NLG_Dispatch             00452e94     LIBCMT:exsup.obj
 0001:00051e9c       __NLG_Call                 00452e9c f   LIBCMT:exsup.obj
 0001:00051e9e       __NLG_Return2              00452e9e     LIBCMT:exsup.obj
 0001:00051e9f       ___crtMessageBoxA          00452e9f f   LIBCMT:crtmbox.obj
 0001:0005203d       __set_error_mode           0045303d f   LIBCMT:errmode.obj
 0001:00052083       ___set_app_type            00453083 f   LIBCMT:errmode.obj
 0001:0005208d       ___get_app_type            0045308d f   LIBCMT:errmode.obj
 0001:000520e4       __ismbbkalnum_l            004530e4 f   LIBCMT:ismbbyte.obj
 0001:000520f9       __ismbbkalnum              004530f9 f   LIBCMT:ismbbyte.obj
 0001:0005210c       __ismbbkprint_l            0045310c f   LIBCMT:ismbbyte.obj
 0001:00052121       __ismbbkprint              00453121 f   LIBCMT:ismbbyte.obj
 0001:00052134       __ismbbkpunct_l            00453134 f   LIBCMT:ismbbyte.obj
 0001:00052149       __ismbbkpunct              00453149 f   LIBCMT:ismbbyte.obj
 0001:0005215c       __ismbbalnum_l             0045315c f   LIBCMT:ismbbyte.obj
 0001:00052174       __ismbbalnum               00453174 f   LIBCMT:ismbbyte.obj
 0001:0005218a       __ismbbalpha_l             0045318a f   LIBCMT:ismbbyte.obj
 0001:000521a2       __ismbbalpha               004531a2 f   LIBCMT:ismbbyte.obj
 0001:000521b8       __ismbbgraph_l             004531b8 f   LIBCMT:ismbbyte.obj
 0001:000521d0       __ismbbgraph               004531d0 f   LIBCMT:ismbbyte.obj
 0001:000521e6       __ismbbprint_l             004531e6 f   LIBCMT:ismbbyte.obj
 0001:000521fe       __ismbbprint               004531fe f   LIBCMT:ismbbyte.obj
 0001:00052214       __ismbbpunct_l             00453214 f   LIBCMT:ismbbyte.obj
 0001:00052229       __ismbbpunct               00453229 f   LIBCMT:ismbbyte.obj
 0001:0005223c       __ismbblead_l              0045323c f   LIBCMT:ismbbyte.obj
 0001:00052251       __ismbblead                00453251 f   LIBCMT:ismbbyte.obj
 0001:00052264       __ismbbtrail_l             00453264 f   LIBCMT:ismbbyte.obj
 0001:00052279       __ismbbtrail               00453279 f   LIBCMT:ismbbyte.obj
 0001:0005228c       __ismbbkana_l              0045328c f   LIBCMT:ismbbyte.obj
 0001:000522df       __ismbbkana                004532df f   LIBCMT:ismbbyte.obj
 0001:000522ed       __matherr                  004532ed f   LIBCMT:matherr.obj
 0001:000522f0       __frnd                     004532f0 f   LIBCMT:frnd.obj
 0001:00052301       __putwch_nolock            00453301 f   LIBCMT:putwch.obj
 0001:000523c3       __cputws                   004533c3 f   LIBCMT:putwch.obj
 0001:0005245e       __putwch                   0045345e f   LIBCMT:putwch.obj
 0001:000524a4       __mbtowc_l                 004534a4 f   LIBCMT:mbtowc.obj
 0001:000525b7       _mbtowc                    004535b7 f   LIBCMT:mbtowc.obj
 0001:000525ce       __lseeki64_nolock          004535ce f   LIBCMT:lseeki64.obj
 0001:00052651       __lseeki64                 00453651 f   LIBCMT:lseeki64.obj
 0001:0005276a       __set_osfhnd               0045376a f   LIBCMT:osfinfo.obj
 0001:000527e7       __free_osfhnd              004537e7 f   LIBCMT:osfinfo.obj
 0001:00052868       __get_osfhandle            00453868 f   LIBCMT:osfinfo.obj
 0001:000528d9       ___lock_fhandle            004538d9 f   LIBCMT:osfinfo.obj
 0001:00052979       __unlock_fhandle           00453979 f   LIBCMT:osfinfo.obj
 0001:0005299b       __alloc_osfhnd             0045399b f   LIBCMT:osfinfo.obj
 0001:00052b3a       __open_osfhandle           00453b3a f   LIBCMT:osfinfo.obj
 0001:00052ff2       ___crtCompareStringA       00453ff2 f   LIBCMT:a_cmp.obj
 0001:00053032       __strnicoll_l              00454032 f   LIBCMT:strnicol.obj
 0001:0005312a       __strnicoll                0045412a f   LIBCMT:strnicol.obj
 0001:000531fb       ___crtsetenv               004541fb f   LIBCMT:setenv.obj
 0001:00053450       __allmul                   00454450 f   LIBCMT:llmul.obj
 0001:00053484       __read_nolock              00454484 f   LIBCMT:read.obj
 0001:00053a26       __read                     00454a26 f   LIBCMT:read.obj
 0001:00053c3d       ___crtGetLocaleInfoW       00454c3d f   LIBCMT:w_loc.obj
 0001:00053db5       ___crtGetLocaleInfoA       00454db5 f   LIBCMT:a_loc.obj
 0001:00053df0       __alloca_probe             00454df0     LIBCMT:chkstk.obj
 0001:00053df0       __chkstk                   00454df0 f   LIBCMT:chkstk.obj
 0001:00053e1b       __get_daylight             00454e1b f   LIBCMT:timeset.obj
 0001:00053e4f       __get_dstbias              00454e4f f   LIBCMT:timeset.obj
 0001:00053e83       __get_timezone             00454e83 f   LIBCMT:timeset.obj
 0001:00053eb7       __get_tzname               00454eb7 f   LIBCMT:timeset.obj
 0001:00053f59       ___daylight                00454f59 f   LIBCMT:timeset.obj
 0001:00053f5f       ___dstbias                 00454f5f f   LIBCMT:timeset.obj
 0001:00053f65       ___timezone                00454f65 f   LIBCMT:timeset.obj
 0001:00053f6b       ___tzname                  00454f6b f   LIBCMT:timeset.obj
 0001:00053f71       __set_daylight             00454f71 f i LIBCMT:tzset.obj
 0001:00053f7d       __set_dstbias              00454f7d f i LIBCMT:tzset.obj
 0001:00053f89       __set_timezone             00454f89 f i LIBCMT:tzset.obj
 0001:00054677       ___tzset                   00455677 f   LIBCMT:tzset.obj
 0001:000546c6       __tzset                    004556c6 f   LIBCMT:tzset.obj
 0001:000546fe       __isindst                  004556fe f   LIBCMT:tzset.obj
 0001:0005473f       ___ascii_stricmp           0045573f f   LIBCMT:stricmp.obj
 0001:00054774       __stricmp_l                00455774 f   LIBCMT:stricmp.obj
 0001:00054847       __stricmp                  00455847 f   LIBCMT:stricmp.obj
 0001:00054897       __strnicmp_l               00455897 f   LIBCMT:strnicmp.obj
 0001:00054987       __strnicmp                 00455987 f   LIBCMT:strnicmp.obj
 0001:00055021       __open                     00456021 f   LIBCMT:open.obj
 0001:000550d7       __sopen_helper             004560d7 f   LIBCMT:open.obj
 0001:000551a3       __sopen                    004561a3 f   LIBCMT:open.obj
 0001:000551d3       __sopen_s                  004561d3 f   LIBCMT:open.obj
 0001:000551f1       __mbsicmp_l                004561f1 f   LIBCMT:mbsicmp.obj
 0001:0005540b       __mbsicmp                  0045640b f   LIBCMT:mbsicmp.obj
 0001:0005541e       __mbsnbcmp_l               0045641e f   LIBCMT:mbsnbcmp.obj
 0001:00055587       __mbsnbcmp                 00456587 f   LIBCMT:mbsnbcmp.obj
 0001:00055bdd       __wopen                    00456bdd f   LIBCMT:wopen.obj
 0001:00055c93       __wsopen_helper            00456c93 f   LIBCMT:wopen.obj
 0001:00055d5f       __wsopen                   00456d5f f   LIBCMT:wopen.obj
 0001:00055d8f       __wsopen_s                 00456d8f f   LIBCMT:wopen.obj
 0001:00055dad       __wcsicmp_l                00456dad f   LIBCMT:wcsicmp.obj
 0001:00055ebc       __wcsicmp                  00456ebc f   LIBCMT:wcsicmp.obj
 0001:00055f4d       _wcsncmp                   00456f4d f   LIBCMT:wcsncmp.obj
 0001:00055f82       __iswctype_l               00456f82 f   LIBCMT:iswctype.obj
 0001:00056004       _iswctype                  00457004 f   LIBCMT:iswctype.obj
 0001:00056072       _is_wctype                 00457072 f   LIBCMT:iswctype.obj
 0001:00056077       ___addl                    00457077 f i LIBCMT:intrncvt.obj
 0001:00056098       __ZeroTail                 00457098 f i LIBCMT:intrncvt.obj
 0001:000560dd       __IncMan                   004570dd f i LIBCMT:intrncvt.obj
 0001:00056147       __RoundMan                 00457147 f i LIBCMT:intrncvt.obj
 0001:00056235       __CopyMan                  00457235 f i LIBCMT:intrncvt.obj
 0001:00056250       __FillZeroMan              00457250 f i LIBCMT:intrncvt.obj
 0001:0005625c       __IsZeroMan                0045725c f i LIBCMT:intrncvt.obj
 0001:00056275       __ShrMan                   00457275 f i LIBCMT:intrncvt.obj
 0001:0005630d       __ld12cvt                  0045730d f i LIBCMT:intrncvt.obj
 0001:00056836       __ld12tod                  00457836 f   LIBCMT:intrncvt.obj
 0001:00056d78       __ld12tof                  00457d78 f   LIBCMT:intrncvt.obj
 0001:000572ba       __ld12told                 004582ba f   LIBCMT:intrncvt.obj
 0001:0005737c       ___shl_12                  0045837c f i LIBCMT:strgtold.obj
 0001:000573aa       ___shr_12                  004583aa f i LIBCMT:strgtold.obj
 0001:000573d7       ___ld12mul                 004583d7 f i LIBCMT:strgtold.obj
 0001:0005764b       ___multtenpow12            0045864b f i LIBCMT:strgtold.obj
 0001:00057955       ___strgtold12_l            00458955 f   LIBCMT:strgtold.obj
 0001:00058019       ___STRINGTOLD_L            00459019 f   LIBCMT:strgtold.obj
 0001:00058072       ___add_12                  00459072 f i LIBCMT:x10fout.obj
 0001:000580df       _$I10_OUTPUT               004590df f   LIBCMT:x10fout.obj
 0001:000589a7       __set_controlfp            004599a7 f   LIBCMT:ieee87.obj
 0001:00058cfd       __statusfp                 00459cfd f   LIBCMT:ieee87.obj
 0001:00058d8d       __fpreset                  00459d8d f   LIBCMT:ieee87.obj
 0001:00058fbd       __statusfp2                00459fbd f   LIBCMT:ieee87.obj
 0001:00059015       __clearfp                  0045a015 f   LIBCMT:ieee87.obj
 0001:000590ec       ___control87_2             0045a0ec f   LIBCMT:ieee87.obj
 0001:000593f6       __control87                0045a3f6 f i LIBCMT:ieee87.obj
 0001:000596f9       __controlfp                0045a6f9 f   LIBCMT:ieee87.obj
 0001:00059a02       ___initconin               0045aa02 f   LIBCMT:initcon.obj
 0001:00059a21       ___initconout              0045aa21 f   LIBCMT:initcon.obj
 0001:00059a40       ___termcon                 0045aa40 f   LIBCMT:initcon.obj
 0001:00059a6d       __strdup                   0045aa6d f   LIBCMT:strdup.obj
 0001:00059a6d       _strdup                    0045aa6d f   LIBCMT:strdup.obj
 0001:00059abd       __mbschr_l                 0045aabd f   LIBCMT:mbschr.obj
 0001:00059b77       __mbschr                   0045ab77 f   LIBCMT:mbschr.obj
 0001:00059b90       ___ascii_strnicmp          0045ab90 f   LIBCMT:_strnicm.obj
 0001:00059bf1       __chsize_nolock            0045abf1 f   LIBCMT:chsize.obj
 0001:00059da5       __chsize_s                 0045ada5 f   LIBCMT:chsize.obj
 0001:00059e92       __chsize                   0045ae92 f   LIBCMT:chsize.obj
 0001:00059eaa       __setmode_nolock           0045aeaa f   LIBCMT:setmode.obj
 0001:00059f66       __set_fmode                0045af66 f   LIBCMT:setmode.obj
 0001:00059fac       __get_fmode                0045afac f   LIBCMT:setmode.obj
 0001:00059fe0       __setmode                  0045afe0 f   LIBCMT:setmode.obj
 0001:0005a0d7       __towlower_l               0045b0d7 f   LIBCMT:towlower.obj
 0001:0005a184       _towlower                  0045b184 f   LIBCMT:towlower.obj
 0001:0005a3b6       ___crtGetStringTypeW       0045b3b6 f   LIBCMT:w_str.obj
 0001:0005a3f4       ___mtold12                 0045b3f4 f   LIBCMT:mantold.obj
 0001:0005a83d       ___crtLCMapStringW         0045b83d f   LIBCMT:w_map.obj
 0001:0005a87e       _InterlockedIncrement@4    0045b87e f   kernel32:KERNEL32.dll
 0001:0005a884       _InterlockedDecrement@4    0045b884 f   kernel32:KERNEL32.dll
 0001:0005a88a       _WideCharToMultiByte@32    0045b88a f   kernel32:KERNEL32.dll
 0001:0005a890       _Sleep@4                   0045b890 f   kernel32:KERNEL32.dll
 0001:0005a896       _InterlockedExchange@8     0045b896 f   kernel32:KERNEL32.dll
 0001:0005a89c       _InitializeCriticalSection@4 0045b89c f   kernel32:KERNEL32.dll
 0001:0005a8a2       _DeleteCriticalSection@4   0045b8a2 f   kernel32:KERNEL32.dll
 0001:0005a8a8       _EnterCriticalSection@4    0045b8a8 f   kernel32:KERNEL32.dll
 0001:0005a8ae       _LeaveCriticalSection@4    0045b8ae f   kernel32:KERNEL32.dll
 0001:0005a8b4       _InterlockedCompareExchange@12 0045b8b4 f   kernel32:KERNEL32.dll
 0001:0005a8ba       _MultiByteToWideChar@24    0045b8ba f   kernel32:KERNEL32.dll
 0001:0005a8c0       _TerminateProcess@8        0045b8c0 f   kernel32:KERNEL32.dll
 0001:0005a8c6       _GetCurrentProcess@0       0045b8c6 f   kernel32:KERNEL32.dll
 0001:0005a8cc       _UnhandledExceptionFilter@4 0045b8cc f   kernel32:KERNEL32.dll
 0001:0005a8d2       _SetUnhandledExceptionFilter@4 0045b8d2 f   kernel32:KERNEL32.dll
 0001:0005a8d8       _IsDebuggerPresent@0       0045b8d8 f   kernel32:KERNEL32.dll
 0001:0005a8de       _RaiseException@16         0045b8de f   kernel32:KERNEL32.dll
 0001:0005a8e4       _RtlUnwind@16              0045b8e4 f   kernel32:KERNEL32.dll
 0001:0005a8ea       _GetCommandLineA@0         0045b8ea f   kernel32:KERNEL32.dll
 0001:0005a8f0       _HeapFree@12               0045b8f0 f   kernel32:KERNEL32.dll
 0001:0005a8f6       _GetVersionExA@4           0045b8f6 f   kernel32:KERNEL32.dll
 0001:0005a8fc       _HeapAlloc@12              0045b8fc f   kernel32:KERNEL32.dll
 0001:0005a902       _GetProcessHeap@0          0045b902 f   kernel32:KERNEL32.dll
 0001:0005a908       _GetLastError@0            0045b908 f   kernel32:KERNEL32.dll
 0001:0005a90e       _GetProcAddress@8          0045b90e f   kernel32:KERNEL32.dll
 0001:0005a914       _ExitProcess@4             0045b914 f   kernel32:KERNEL32.dll
 0001:0005a91a       _LCMapStringA@24           0045b91a f   kernel32:KERNEL32.dll
 0001:0005a920       _LCMapStringW@24           0045b920 f   kernel32:KERNEL32.dll
 0001:0005a926       _GetCPInfo@8               0045b926 f   kernel32:KERNEL32.dll
 0001:0005a92c       _TlsGetValue@4             0045b92c f   kernel32:KERNEL32.dll
 0001:0005a932       _TlsAlloc@0                0045b932 f   kernel32:KERNEL32.dll
 0001:0005a938       _TlsSetValue@8             0045b938 f   kernel32:KERNEL32.dll
 0001:0005a93e       _TlsFree@4                 0045b93e f   kernel32:KERNEL32.dll
 0001:0005a944       _SetLastError@4            0045b944 f   kernel32:KERNEL32.dll
 0001:0005a94a       _GetCurrentThreadId@0      0045b94a f   kernel32:KERNEL32.dll
 0001:0005a950       _GetCurrentThread@0        0045b950 f   kernel32:KERNEL32.dll
 0001:0005a956       _HeapSize@12               0045b956 f   kernel32:KERNEL32.dll
 0001:0005a95c       _WriteFile@20              0045b95c f   kernel32:KERNEL32.dll
 0001:0005a962       _GetStdHandle@4            0045b962 f   kernel32:KERNEL32.dll
 0001:0005a968       _GetModuleFileNameA@12     0045b968 f   kernel32:KERNEL32.dll
 0001:0005a96e       _FreeEnvironmentStringsA@4 0045b96e f   kernel32:KERNEL32.dll
 0001:0005a974       _GetEnvironmentStrings@0   0045b974 f   kernel32:KERNEL32.dll
 0001:0005a97a       _FreeEnvironmentStringsW@4 0045b97a f   kernel32:KERNEL32.dll
 0001:0005a980       _GetEnvironmentStringsW@0  0045b980 f   kernel32:KERNEL32.dll
 0001:0005a986       _SetHandleCount@4          0045b986 f   kernel32:KERNEL32.dll
 0001:0005a98c       _GetFileType@4             0045b98c f   kernel32:KERNEL32.dll
 0001:0005a992       _GetStartupInfoA@4         0045b992 f   kernel32:KERNEL32.dll
 0001:0005a998       _HeapDestroy@4             0045b998 f   kernel32:KERNEL32.dll
 0001:0005a99e       _HeapCreate@12             0045b99e f   kernel32:KERNEL32.dll
 0001:0005a9a4       _VirtualFree@12            0045b9a4 f   kernel32:KERNEL32.dll
 0001:0005a9aa       _QueryPerformanceCounter@4 0045b9aa f   kernel32:KERNEL32.dll
 0001:0005a9b0       _GetTickCount@0            0045b9b0 f   kernel32:KERNEL32.dll
 0001:0005a9b6       _GetCurrentProcessId@0     0045b9b6 f   kernel32:KERNEL32.dll
 0001:0005a9bc       _GetSystemTimeAsFileTime@4 0045b9bc f   kernel32:KERNEL32.dll
 0001:0005a9c2       _FatalAppExitA@8           0045b9c2 f   kernel32:KERNEL32.dll
 0001:0005a9c8       _VirtualAlloc@16           0045b9c8 f   kernel32:KERNEL32.dll
 0001:0005a9ce       _HeapReAlloc@16            0045b9ce f   kernel32:KERNEL32.dll
 0001:0005a9d4       _GetConsoleCP@0            0045b9d4 f   kernel32:KERNEL32.dll
 0001:0005a9da       _GetConsoleMode@8          0045b9da f   kernel32:KERNEL32.dll
 0001:0005a9e0       _FlushFileBuffers@4        0045b9e0 f   kernel32:KERNEL32.dll
 0001:0005a9e6       _SetFilePointer@16         0045b9e6 f   kernel32:KERNEL32.dll
 0001:0005a9ec       _CloseHandle@4             0045b9ec f   kernel32:KERNEL32.dll
 0001:0005a9f2       _SetConsoleCtrlHandler@8   0045b9f2 f   kernel32:KERNEL32.dll
 0001:0005a9f8       _FreeLibrary@4             0045b9f8 f   kernel32:KERNEL32.dll
 0001:0005a9fe       _LoadLibraryA@4            0045b9fe f   kernel32:KERNEL32.dll
 0001:0005aa04       _GetACP@0                  0045ba04 f   kernel32:KERNEL32.dll
 0001:0005aa0a       _GetOEMCP@0                0045ba0a f   kernel32:KERNEL32.dll
 0001:0005aa10       _GetLocaleInfoA@16         0045ba10 f   kernel32:KERNEL32.dll
 0001:0005aa16       _GetStringTypeA@20         0045ba16 f   kernel32:KERNEL32.dll
 0001:0005aa1c       _GetStringTypeW@16         0045ba1c f   kernel32:KERNEL32.dll
 0001:0005aa22       _GetTimeFormatA@24         0045ba22 f   kernel32:KERNEL32.dll
 0001:0005aa28       _GetDateFormatA@24         0045ba28 f   kernel32:KERNEL32.dll
 0001:0005aa2e       _GetUserDefaultLCID@0      0045ba2e f   kernel32:KERNEL32.dll
 0001:0005aa34       _EnumSystemLocalesA@8      0045ba34 f   kernel32:KERNEL32.dll
 0001:0005aa3a       _IsValidLocale@8           0045ba3a f   kernel32:KERNEL32.dll
 0001:0005aa40       _IsValidCodePage@4         0045ba40 f   kernel32:KERNEL32.dll
 0001:0005aa46       _WriteConsoleA@20          0045ba46 f   kernel32:KERNEL32.dll
 0001:0005aa4c       _GetConsoleOutputCP@0      0045ba4c f   kernel32:KERNEL32.dll
 0001:0005aa52       _WriteConsoleW@20          0045ba52 f   kernel32:KERNEL32.dll
 0001:0005aa58       _SetStdHandle@8            0045ba58 f   kernel32:KERNEL32.dll
 0001:0005aa5e       _CompareStringA@24         0045ba5e f   kernel32:KERNEL32.dll
 0001:0005aa64       _CompareStringW@24         0045ba64 f   kernel32:KERNEL32.dll
 0001:0005aa6a       _SetEnvironmentVariableA@8 0045ba6a f   kernel32:KERNEL32.dll
 0001:0005aa70       _ReadFile@20               0045ba70 f   kernel32:KERNEL32.dll
 0001:0005aa76       _GetLocaleInfoW@16         0045ba76 f   kernel32:KERNEL32.dll
 0001:0005aa7c       _GetTimeZoneInformation@4  0045ba7c f   kernel32:KERNEL32.dll
 0001:0005aa82       _CreateFileA@28            0045ba82 f   kernel32:KERNEL32.dll
 0001:0005aa88       _CreateFileW@28            0045ba88 f   kernel32:KERNEL32.dll
 0001:0005aa8e       _SetEndOfFile@4            0045ba8e f   kernel32:KERNEL32.dll
 0002:00000000       __imp__ChoosePixelFormat@8 00468000     gdi32:GDI32.dll
 0002:00000004       __imp__DeleteDC@4          00468004     gdi32:GDI32.dll
 0002:00000008       __imp__SetPixelFormat@12   00468008     gdi32:GDI32.dll
 0002:0000000c       \177GDI32_NULL_THUNK_DATA  0046800c     gdi32:GDI32.dll
 0002:00000010       __imp__GetModuleHandleA@4  00468010     kernel32:KERNEL32.dll
 0002:00000014       __imp__CreateFileW@28      00468014     kernel32:KERNEL32.dll
 0002:00000018       __imp__CreateFileA@28      00468018     kernel32:KERNEL32.dll
 0002:0000001c       __imp__GetTimeZoneInformation@4 0046801c     kernel32:KERNEL32.dll
 0002:00000020       __imp__GetLocaleInfoW@16   00468020     kernel32:KERNEL32.dll
 0002:00000024       __imp__ReadFile@20         00468024     kernel32:KERNEL32.dll
 0002:00000028       __imp__SetEnvironmentVariableA@8 00468028     kernel32:KERNEL32.dll
 0002:0000002c       __imp__CompareStringW@24   0046802c     kernel32:KERNEL32.dll
 0002:00000030       __imp__CompareStringA@24   00468030     kernel32:KERNEL32.dll
 0002:00000034       __imp__SetStdHandle@8      00468034     kernel32:KERNEL32.dll
 0002:00000038       __imp__WriteConsoleW@20    00468038     kernel32:KERNEL32.dll
 0002:0000003c       __imp__GetConsoleOutputCP@0 0046803c     kernel32:KERNEL32.dll
 0002:00000040       __imp__WriteConsoleA@20    00468040     kernel32:KERNEL32.dll
 0002:00000044       __imp__IsValidCodePage@4   00468044     kernel32:KERNEL32.dll
 0002:00000048       __imp__IsValidLocale@8     00468048     kernel32:KERNEL32.dll
 0002:0000004c       __imp__EnumSystemLocalesA@8 0046804c     kernel32:KERNEL32.dll
 0002:00000050       __imp__GetUserDefaultLCID@0 00468050     kernel32:KERNEL32.dll
 0002:00000054       __imp__GetDateFormatA@24   00468054     kernel32:KERNEL32.dll
 0002:00000058       __imp__GetTimeFormatA@24   00468058     kernel32:KERNEL32.dll
 0002:0000005c       __imp__GetStringTypeW@16   0046805c     kernel32:KERNEL32.dll
 0002:00000060       __imp__GetStringTypeA@20   00468060     kernel32:KERNEL32.dll
 0002:00000064       __imp__GetLocaleInfoA@16   00468064     kernel32:KERNEL32.dll
 0002:00000068       __imp__GetOEMCP@0          00468068     kernel32:KERNEL32.dll
 0002:0000006c       __imp__GetACP@0            0046806c     kernel32:KERNEL32.dll
 0002:00000070       __imp__LoadLibraryA@4      00468070     kernel32:KERNEL32.dll
 0002:00000074       __imp__FreeLibrary@4       00468074     kernel32:KERNEL32.dll
 0002:00000078       __imp__SetConsoleCtrlHandler@8 00468078     kernel32:KERNEL32.dll
 0002:0000007c       __imp__CloseHandle@4       0046807c     kernel32:KERNEL32.dll
 0002:00000080       __imp__SetFilePointer@16   00468080     kernel32:KERNEL32.dll
 0002:00000084       __imp__FlushFileBuffers@4  00468084     kernel32:KERNEL32.dll
 0002:00000088       __imp__GetConsoleMode@8    00468088     kernel32:KERNEL32.dll
 0002:0000008c       __imp__GetConsoleCP@0      0046808c     kernel32:KERNEL32.dll
 0002:00000090       __imp__HeapReAlloc@16      00468090     kernel32:KERNEL32.dll
 0002:00000094       __imp__VirtualAlloc@16     00468094     kernel32:KERNEL32.dll
 0002:00000098       __imp__FatalAppExitA@8     00468098     kernel32:KERNEL32.dll
 0002:0000009c       __imp__GetSystemTimeAsFileTime@4 0046809c     kernel32:KERNEL32.dll
 0002:000000a0       __imp__GetCurrentProcessId@0 004680a0     kernel32:KERNEL32.dll
 0002:000000a4       __imp__GetTickCount@0      004680a4     kernel32:KERNEL32.dll
 0002:000000a8       __imp__QueryPerformanceCounter@4 004680a8     kernel32:KERNEL32.dll
 0002:000000ac       __imp__VirtualFree@12      004680ac     kernel32:KERNEL32.dll
 0002:000000b0       __imp__HeapCreate@12       004680b0     kernel32:KERNEL32.dll
 0002:000000b4       __imp__HeapDestroy@4       004680b4     kernel32:KERNEL32.dll
 0002:000000b8       __imp__GetStartupInfoA@4   004680b8     kernel32:KERNEL32.dll
 0002:000000bc       __imp__GetFileType@4       004680bc     kernel32:KERNEL32.dll
 0002:000000c0       __imp__SetHandleCount@4    004680c0     kernel32:KERNEL32.dll
 0002:000000c4       __imp__GetEnvironmentStringsW@0 004680c4     kernel32:KERNEL32.dll
 0002:000000c8       __imp__FreeEnvironmentStringsW@4 004680c8     kernel32:KERNEL32.dll
 0002:000000cc       __imp__GetEnvironmentStrings@0 004680cc     kernel32:KERNEL32.dll
 0002:000000d0       __imp__InterlockedIncrement@4 004680d0     kernel32:KERNEL32.dll
 0002:000000d4       __imp__InterlockedDecrement@4 004680d4     kernel32:KERNEL32.dll
 0002:000000d8       __imp__WideCharToMultiByte@32 004680d8     kernel32:KERNEL32.dll
 0002:000000dc       __imp__Sleep@4             004680dc     kernel32:KERNEL32.dll
 0002:000000e0       __imp__InterlockedExchange@8 004680e0     kernel32:KERNEL32.dll
 0002:000000e4       __imp__InitializeCriticalSection@4 004680e4     kernel32:KERNEL32.dll
 0002:000000e8       __imp__DeleteCriticalSection@4 004680e8     kernel32:KERNEL32.dll
 0002:000000ec       __imp__EnterCriticalSection@4 004680ec     kernel32:KERNEL32.dll
 0002:000000f0       __imp__LeaveCriticalSection@4 004680f0     kernel32:KERNEL32.dll
 0002:000000f4       __imp__InterlockedCompareExchange@12 004680f4     kernel32:KERNEL32.dll
 0002:000000f8       __imp__MultiByteToWideChar@24 004680f8     kernel32:KERNEL32.dll
 0002:000000fc       __imp__TerminateProcess@8  004680fc     kernel32:KERNEL32.dll
 0002:00000100       __imp__GetCurrentProcess@0 00468100     kernel32:KERNEL32.dll
 0002:00000104       __imp__UnhandledExceptionFilter@4 00468104     kernel32:KERNEL32.dll
 0002:00000108       __imp__SetUnhandledExceptionFilter@4 00468108     kernel32:KERNEL32.dll
 0002:0000010c       __imp__IsDebuggerPresent@0 0046810c     kernel32:KERNEL32.dll
 0002:00000110       __imp__RaiseException@16   00468110     kernel32:KERNEL32.dll
 0002:00000114       __imp__RtlUnwind@16        00468114     kernel32:KERNEL32.dll
 0002:00000118       __imp__GetCommandLineA@0   00468118     kernel32:KERNEL32.dll
 0002:0000011c       __imp__HeapFree@12         0046811c     kernel32:KERNEL32.dll
 0002:00000120       __imp__GetVersionExA@4     00468120     kernel32:KERNEL32.dll
 0002:00000124       __imp__HeapAlloc@12        00468124     kernel32:KERNEL32.dll
 0002:00000128       __imp__GetProcessHeap@0    00468128     kernel32:KERNEL32.dll
 0002:0000012c       __imp__GetLastError@0      0046812c     kernel32:KERNEL32.dll
 0002:00000130       __imp__GetProcAddress@8    00468130     kernel32:KERNEL32.dll
 0002:00000134       __imp__ExitProcess@4       00468134     kernel32:KERNEL32.dll
 0002:00000138       __imp__LCMapStringA@24     00468138     kernel32:KERNEL32.dll
 0002:0000013c       __imp__LCMapStringW@24     0046813c     kernel32:KERNEL32.dll
 0002:00000140       __imp__GetCPInfo@8         00468140     kernel32:KERNEL32.dll
 0002:00000144       __imp__TlsGetValue@4       00468144     kernel32:KERNEL32.dll
 0002:00000148       __imp__TlsAlloc@0          00468148     kernel32:KERNEL32.dll
 0002:0000014c       __imp__TlsSetValue@8       0046814c     kernel32:KERNEL32.dll
 0002:00000150       __imp__TlsFree@4           00468150     kernel32:KERNEL32.dll
 0002:00000154       __imp__SetLastError@4      00468154     kernel32:KERNEL32.dll
 0002:00000158       __imp__GetCurrentThreadId@0 00468158     kernel32:KERNEL32.dll
 0002:0000015c       __imp__GetCurrentThread@0  0046815c     kernel32:KERNEL32.dll
 0002:00000160       __imp__HeapSize@12         00468160     kernel32:KERNEL32.dll
 0002:00000164       __imp__WriteFile@20        00468164     kernel32:KERNEL32.dll
 0002:00000168       __imp__GetStdHandle@4      00468168     kernel32:KERNEL32.dll
 0002:0000016c       __imp__GetModuleFileNameA@12 0046816c     kernel32:KERNEL32.dll
 0002:00000170       __imp__FreeEnvironmentStringsA@4 00468170     kernel32:KERNEL32.dll
 0002:00000174       __imp__SetEndOfFile@4      00468174     kernel32:KERNEL32.dll
 0002:00000178       \177KERNEL32_NULL_THUNK_DATA 00468178     kernel32:KERNEL32.dll
 0002:0000017c       __imp__glGetString@4       0046817c     opengl32:OPENGL32.dll
 0002:00000180       __imp__wglDeleteContext@4  00468180     opengl32:OPENGL32.dll
 0002:00000184       __imp__wglMakeCurrent@8    00468184     opengl32:OPENGL32.dll
 0002:00000188       __imp__glGenTextures@8     00468188     opengl32:OPENGL32.dll
 0002:0000018c       __imp__glTexImage2D@36     0046818c     opengl32:OPENGL32.dll
 0002:00000190       __imp__glTexParameterf@12  00468190     opengl32:OPENGL32.dll
 0002:00000194       __imp__glDeleteTextures@8  00468194     opengl32:OPENGL32.dll
 0002:00000198       __imp__glPixelStorei@8     00468198     opengl32:OPENGL32.dll
 0002:0000019c       __imp__glReadPixels@28     0046819c     opengl32:OPENGL32.dll
 0002:000001a0       __imp__glTexSubImage2D@36  004681a0     opengl32:OPENGL32.dll
 0002:000001a4       __imp__glTexCoord2f@8      004681a4     opengl32:OPENGL32.dll
 0002:000001a8       __imp__glVertex2f@8        004681a8     opengl32:OPENGL32.dll
 0002:000001ac       __imp__glDrawBuffer@4      004681ac     opengl32:OPENGL32.dll
 0002:000001b0       __imp__glViewport@16       004681b0     opengl32:OPENGL32.dll
 0002:000001b4       __imp__glBegin@4           004681b4     opengl32:OPENGL32.dll
 0002:000001b8       __imp__glVertex2fv@4       004681b8     opengl32:OPENGL32.dll
 0002:000001bc       __imp__glEnd@0             004681bc     opengl32:OPENGL32.dll
 0002:000001c0       __imp__glReadBuffer@4      004681c0     opengl32:OPENGL32.dll
 0002:000001c4       __imp__glCopyTexSubImage2D@32 004681c4     opengl32:OPENGL32.dll
 0002:000001c8       __imp__glBindTexture@8     004681c8     opengl32:OPENGL32.dll
 0002:000001cc       __imp__glGetError@0        004681cc     opengl32:OPENGL32.dll
 0002:000001d0       __imp__wglGetProcAddress@4 004681d0     opengl32:OPENGL32.dll
 0002:000001d4       __imp__glGetIntegerv@8     004681d4     opengl32:OPENGL32.dll
 0002:000001d8       __imp__glFinish@0          004681d8     opengl32:OPENGL32.dll
 0002:000001dc       __imp__glEnable@4          004681dc     opengl32:OPENGL32.dll
 0002:000001e0       __imp__wglCreateContext@4  004681e0     opengl32:OPENGL32.dll
 0002:000001e4       __imp__wglShareLists@8     004681e4     opengl32:OPENGL32.dll
 0002:000001e8       \177OPENGL32_NULL_THUNK_DATA 004681e8     opengl32:OPENGL32.dll
 0002:000001ec       __imp__ShowWindow@8        004681ec     user32:USER32.dll
 0002:000001f0       __imp__DestroyWindow@4     004681f0     user32:USER32.dll
 0002:000001f4       __imp__RegisterClassA@4    004681f4     user32:USER32.dll
 0002:000001f8       __imp__GetDesktopWindow@0  004681f8     user32:USER32.dll
 0002:000001fc       __imp__RegisterClassExA@4  004681fc     user32:USER32.dll
 0002:00000200       __imp__GetWindowLongA@8    00468200     user32:USER32.dll
 0002:00000204       __imp__SetWindowLongA@12   00468204     user32:USER32.dll
 0002:00000208       __imp__PostQuitMessage@4   00468208     user32:USER32.dll
 0002:0000020c       __imp__LoadCursorA@8       0046820c     user32:USER32.dll
 0002:00000210       __imp__GetDC@4             00468210     user32:USER32.dll
 0002:00000214       __imp__GetClassInfoA@12    00468214     user32:USER32.dll
 0002:00000218       __imp__DefWindowProcA@16   00468218     user32:USER32.dll
 0002:0000021c       __imp__LoadIconA@8         0046821c     user32:USER32.dll
 0002:00000220       __imp__CreateWindowExA@48  00468220     user32:USER32.dll
 0002:00000224       \177USER32_NULL_THUNK_DATA 00468224     user32:USER32.dll
 0002:00000228       __imp__Direct3DCreate9@4   00468228     d3d9:d3d9.dll
 0002:0000022c       \177d3d9_NULL_THUNK_DATA   0046822c     d3d9:d3d9.dll
 0002:00000230       __imp__D3DXAssembleShader@28 00468230     d3dx9:d3dx9_30.dll
 0002:00000234       \177d3dx9_30_NULL_THUNK_DATA 00468234     d3dx9:d3dx9_30.dll
 0002:00000238       ___xc_a                    00468238     LIBCMT:crt0init.obj
 0002:000002a0       ___xc_z                    004682a0     LIBCMT:crt0init.obj
 0002:000002a4       ___xi_a                    004682a4     LIBCMT:crt0init.obj
 0002:000002c4       ___xi_z                    004682c4     LIBCMT:crt0init.obj
 0002:000002c8       ___xp_a                    004682c8     LIBCMT:crt0init.obj
 0002:000002d4       ___xp_z                    004682d4     LIBCMT:crt0init.obj
 0002:000002d8       ___xt_a                    004682d8     LIBCMT:crt0init.obj
 0002:000002e0       ___xt_z                    004682e0     LIBCMT:crt0init.obj
 0002:0000030c       ??_C@_0P@GHFPNOJB@bad?5allocation?$AA@ 0046830c     reducetostream.obj
 0002:0000031c       ?collate@?$_Locbase@H@std@@2HB 0046831c     reducetostream.obj
 0002:00000320       ?ctype@?$_Locbase@H@std@@2HB 00468320     reducetostream.obj
 0002:00000324       ?monetary@?$_Locbase@H@std@@2HB 00468324     reducetostream.obj
 0002:00000328       ?numeric@?$_Locbase@H@std@@2HB 00468328     reducetostream.obj
 0002:0000032c       ?time@?$_Locbase@H@std@@2HB 0046832c     reducetostream.obj
 0002:00000330       ?messages@?$_Locbase@H@std@@2HB 00468330     reducetostream.obj
 0002:00000334       ?all@?$_Locbase@H@std@@2HB 00468334     reducetostream.obj
 0002:00000338       ?none@?$_Locbase@H@std@@2HB 00468338     reducetostream.obj
 0002:0000033c       ?table_size@?$ctype@D@std@@2IB 0046833c     reducetostream.obj
 0002:00000340       ?skipws@?$_Iosb@H@std@@2W4_Fmtflags@12@B 00468340     reducetostream.obj
 0002:00000344       ?unitbuf@?$_Iosb@H@std@@2W4_Fmtflags@12@B 00468344     reducetostream.obj
 0002:00000348       ?uppercase@?$_Iosb@H@std@@2W4_Fmtflags@12@B 00468348     reducetostream.obj
 0002:0000034c       ?showbase@?$_Iosb@H@std@@2W4_Fmtflags@12@B 0046834c     reducetostream.obj
 0002:00000350       ?showpoint@?$_Iosb@H@std@@2W4_Fmtflags@12@B 00468350     reducetostream.obj
 0002:00000354       ?showpos@?$_Iosb@H@std@@2W4_Fmtflags@12@B 00468354     reducetostream.obj
 0002:00000358       ?left@?$_Iosb@H@std@@2W4_Fmtflags@12@B 00468358     reducetostream.obj
 0002:0000035c       ?right@?$_Iosb@H@std@@2W4_Fmtflags@12@B 0046835c     reducetostream.obj
 0002:00000360       ?internal@?$_Iosb@H@std@@2W4_Fmtflags@12@B 00468360     reducetostream.obj
 0002:00000364       ?dec@?$_Iosb@H@std@@2W4_Fmtflags@12@B 00468364     reducetostream.obj
 0002:00000368       ?oct@?$_Iosb@H@std@@2W4_Fmtflags@12@B 00468368     reducetostream.obj
 0002:0000036c       ?hex@?$_Iosb@H@std@@2W4_Fmtflags@12@B 0046836c     reducetostream.obj
 0002:00000370       ?scientific@?$_Iosb@H@std@@2W4_Fmtflags@12@B 00468370     reducetostream.obj
 0002:00000374       ?fixed@?$_Iosb@H@std@@2W4_Fmtflags@12@B 00468374     reducetostream.obj
 0002:00000378       ?boolalpha@?$_Iosb@H@std@@2W4_Fmtflags@12@B 00468378     reducetostream.obj
 0002:0000037c       ?_Stdio@?$_Iosb@H@std@@2W4_Fmtflags@12@B 0046837c     reducetostream.obj
 0002:00000380       ?adjustfield@?$_Iosb@H@std@@2W4_Fmtflags@12@B 00468380     reducetostream.obj
 0002:00000384       ?basefield@?$_Iosb@H@std@@2W4_Fmtflags@12@B 00468384     reducetostream.obj
 0002:00000388       ?floatfield@?$_Iosb@H@std@@2W4_Fmtflags@12@B 00468388     reducetostream.obj
 0002:0000038c       ?goodbit@?$_Iosb@H@std@@2W4_Iostate@12@B 0046838c     reducetostream.obj
 0002:00000390       ?eofbit@?$_Iosb@H@std@@2W4_Iostate@12@B 00468390     reducetostream.obj
 0002:00000394       ?failbit@?$_Iosb@H@std@@2W4_Iostate@12@B 00468394     reducetostream.obj
 0002:00000398       ?badbit@?$_Iosb@H@std@@2W4_Iostate@12@B 00468398     reducetostream.obj
 0002:0000039c       ?_Hardfail@?$_Iosb@H@std@@2W4_Iostate@12@B 0046839c     reducetostream.obj
 0002:000003a0       ?in@?$_Iosb@H@std@@2W4_Openmode@12@B 004683a0     reducetostream.obj
 0002:000003a4       ?out@?$_Iosb@H@std@@2W4_Openmode@12@B 004683a4     reducetostream.obj
 0002:000003a8       ?ate@?$_Iosb@H@std@@2W4_Openmode@12@B 004683a8     reducetostream.obj
 0002:000003ac       ?app@?$_Iosb@H@std@@2W4_Openmode@12@B 004683ac     reducetostream.obj
 0002:000003b0       ?trunc@?$_Iosb@H@std@@2W4_Openmode@12@B 004683b0     reducetostream.obj
 0002:000003b4       ?_Nocreate@?$_Iosb@H@std@@2W4_Openmode@12@B 004683b4     reducetostream.obj
 0002:000003b8       ?_Noreplace@?$_Iosb@H@std@@2W4_Openmode@12@B 004683b8     reducetostream.obj
 0002:000003bc       ?binary@?$_Iosb@H@std@@2W4_Openmode@12@B 004683bc     reducetostream.obj
 0002:000003c0       ?beg@?$_Iosb@H@std@@2W4_Seekdir@12@B 004683c0     reducetostream.obj
 0002:000003c4       ?cur@?$_Iosb@H@std@@2W4_Seekdir@12@B 004683c4     reducetostream.obj
 0002:000003c8       ?end@?$_Iosb@H@std@@2W4_Seekdir@12@B 004683c8     reducetostream.obj
 0002:000003d0       ??_7bad_alloc@std@@6B@     004683d0     reducetostream.obj
 0002:000003d8       ?result@?1???$getStreamType@M@brook@@YAPBW4StreamType@1@PAM@Z@4QBW421@B 004683d8     reducetostream.obj
 0002:000003e0       ?result@?1???$getStreamType@Ufloat4@@@brook@@YAPBW4StreamType@1@PAUfloat4@@@Z@4QBW421@B 004683e0     reducetostream.obj
 0002:000003e8       ??_C@_03PPOCCAPH@?$CFf?6?$AA@ 004683e8     reducetostream.obj
 0002:000003ec       __real@4f800000            004683ec     reducetostream.obj
 0002:000003f0       __real@00000000            004683f0     reducetostream.obj
 0002:000003f8       __real@3ff0000000000000    004683f8     reducetostream.obj
 0002:00000400       __real@4330000000000000    00468400     reducetostream.obj
 0002:00000408       __real@8000000000000000    00468408     reducetostream.obj
 0002:00000410       __real@3fd0000000000000    00468410     reducetostream.obj
 0002:0000041c       ??_7logic_error@std@@6B@   0046841c     reducetostream.obj
 0002:00000428       __real@3fb0000000000000    00468428     reducetostream.obj
 0002:00000430       ??_C@_03PBJBJNON@cpu?$AA@  00468430     reducetostream.obj
 0002:00000434       ??_C@_04EAOOIKGF@ps30?$AA@ 00468434     reducetostream.obj
 0002:0000043c       ??_C@_04OCIMIMEH@ps2a?$AA@ 0046843c     reducetostream.obj
 0002:00000444       ??_C@_04MJKBNPIE@ps2b?$AA@ 00468444     reducetostream.obj
 0002:0000044c       ??_C@_04EBCMOAFC@ps20?$AA@ 0046844c     reducetostream.obj
 0002:00000454       ??_C@_03FNJPAFJO@arb?$AA@  00468454     reducetostream.obj
 0002:00000458       ??_C@_04LILEFBCM@fp40?$AA@ 00468458     reducetostream.obj
 0002:00000460       ??_C@_04LNPLEHKJ@fp30?$AA@ 00468460     reducetostream.obj
 0002:00000468       ??_C@_01EEMJAFIK@?6?$AA@   00468468     reducetostream.obj
 0002:0000046c       ??_C@_0BL@CINHCEFE@?$HL?$CF3?42f?5?$CF3?42f?5?$CF3?42f?5?$CF3?42f?$HN?6?$AA@ 0046846c     reducetostream.obj
 0002:00000488       __real@40000000            00468488     reducetostream.obj
 0002:0000048c       __real@3f800000            0046848c     reducetostream.obj
 0002:00000490       __real@3ff2000000000000    00468490     reducetostream.obj
 0002:00000498       __real@4022000000000000    00468498     reducetostream.obj
 0002:000004a0       __real@4020000000000000    004684a0     reducetostream.obj
 0002:000004a8       __real@3feccccccccccccd    004684a8     reducetostream.obj
 0002:000004b0       __real@3fe999999999999a    004684b0     reducetostream.obj
 0002:000004b8       __real@3fec000000000000    004684b8     reducetostream.obj
 0002:000004c0       __real@401c000000000000    004684c0     reducetostream.obj
 0002:000004c8       __real@3fe6666666666666    004684c8     reducetostream.obj
 0002:000004d0       __real@3fe8000000000000    004684d0     reducetostream.obj
 0002:000004d8       __real@4018000000000000    004684d8     reducetostream.obj
 0002:000004e0       __real@3fe3333333333333    004684e0     reducetostream.obj
 0002:000004e8       __real@3fe4000000000000    004684e8     reducetostream.obj
 0002:000004f0       __real@4014000000000000    004684f0     reducetostream.obj
 0002:000004f8       __real@3fe0000000000000    004684f8     reducetostream.obj
 0002:00000500       __real@4010000000000000    00468500     reducetostream.obj
 0002:00000508       __real@3fd999999999999a    00468508     reducetostream.obj
 0002:00000510       __real@3fd8000000000000    00468510     reducetostream.obj
 0002:00000518       __real@4008000000000000    00468518     reducetostream.obj
 0002:00000520       __real@3fd3333333333333    00468520     reducetostream.obj
 0002:00000528       __real@4000000000000000    00468528     reducetostream.obj
 0002:00000530       __real@3fc999999999999a    00468530     reducetostream.obj
 0002:00000538       __real@3fb999999999999a    00468538     reducetostream.obj
 0002:00000540       __real@3f90000000000000    00468540     reducetostream.obj
 0002:00000548       __real@3fc0000000000000    00468548     reducetostream.obj
 0002:00000550       __real@4024000000000000    00468550     reducetostream.obj
 0002:00000558       __real@40a00000            00468558     reducetostream.obj
 0002:0000055c       __real@404ccccd            0046855c     reducetostream.obj
 0002:00000564       ??_7length_error@std@@6B@  00468564     reducetostream.obj
 0002:0000056c       ??_C@_0BD@OLBABOEK@vector?$DMT?$DO?5too?5long?$AA@ 0046856c     reducetostream.obj
 0002:00000580       ??_C@_0CMP@PFANHOLG@?5?5?5?5ps_2_0?6?5?5?5?5def?5c2?0?50?40625?0?50@ 00468580     reducetostream.obj
 0002:00000850       ??_C@_0DMB@DEHLFILC@?5?5?5?5ps_2_0?6?5?5?5?5def?5c2?0?50?40039062@ 00468850     reducetostream.obj
 0002:00000c18       ??_C@_0ELA@FPOIELE@?5?5?5?5ps_2_0?6?5?5?5?5def?5c2?0?50?40002441@ 00468c18     reducetostream.obj
 0002:000010c8       ??_C@_0FJM@CPKMFBAN@?5?5?5?5ps_2_0?6?5?5?5?5def?5c2?0?51?45258789@ 004690c8     reducetostream.obj
 0002:00001668       ??_C@_0GIH@IJAKBBGG@?5?5?5?5ps_2_0?6?5?5?5?5def?5c2?0?59?45367431@ 00469668     reducetostream.obj
 0002:00001cf0       ??_C@_0HHC@MAIEPFIE@?5?5?5?5ps_2_0?6?5?5?5?5def?5c2?0?55?49604644@ 00469cf0     reducetostream.obj
 0002:00002468       ??_C@_0IFO@HHPHBNPF@?5?5?5?5ps_2_0?6?5?5?5?5def?5c2?0?53?47252903@ 0046a468     reducetostream.obj
 0002:00002cc8       ??_C@_0CMP@DJIFNOOK@?5?5?5?5ps_2_x?6?5?5?5?5def?5c2?0?50?40625?0?50@ 0046acc8     reducetostream.obj
 0002:00002f98       ??_C@_0DMB@GPBLFCON@?5?5?5?5ps_2_x?6?5?5?5?5def?5c2?0?50?40039062@ 0046af98     reducetostream.obj
 0002:00003360       ??_C@_0ELA@OKDDDIMP@?5?5?5?5ps_2_x?6?5?5?5?5def?5c2?0?50?40002441@ 0046b360     reducetostream.obj
 0002:00003810       ??_C@_0FJM@JGBJBGDC@?5?5?5?5ps_2_x?6?5?5?5?5def?5c2?0?51?45258789@ 0046b810     reducetostream.obj
 0002:00003db0       ??_C@_0GIH@JBLMFKCO@?5?5?5?5ps_2_x?6?5?5?5?5def?5c2?0?59?45367431@ 0046bdb0     reducetostream.obj
 0002:00004438       ??_C@_0HHC@HGCIOGBK@?5?5?5?5ps_2_x?6?5?5?5?5def?5c2?0?55?49604644@ 0046c438     reducetostream.obj
 0002:00004bb0       ??_C@_0IFO@GAJEGFHI@?5?5?5?5ps_2_x?6?5?5?5?5def?5c2?0?53?47252903@ 0046cbb0     reducetostream.obj
 0002:00005410       ??_C@_0CIE@KAAAGGFL@?5?5?5?5ps_2_x?6?5?5?5?5def?5c2?0?50?40625?0?50@ 0046d410     reducetostream.obj
 0002:00005698       ??_C@_0DCM@NKKDCIIB@?5?5?5?5ps_2_x?6?5?5?5?5def?5c2?0?50?40039062@ 0046d698     reducetostream.obj
 0002:000059c8       ??_C@_0DON@HODCGOMF@?5?5?5?5ps_2_x?6?5?5?5?5def?5c2?0?50?40002441@ 0046d9c8     reducetostream.obj
 0002:00005db8       ??_C@_0EKL@JHCPDDI@?5?5?5?5ps_2_x?6?5?5?5?5def?5c2?0?51?45258789@ 0046ddb8     reducetostream.obj
 0002:00006268       ??_C@_0FGI@LEDOLGLG@?5?5?5?5ps_2_x?6?5?5?5?5def?5c2?0?59?45367431@ 0046e268     reducetostream.obj
 0002:000067d0       ??_C@_0GCF@NEALDNAN@?5?5?5?5ps_2_x?6?5?5?5?5def?5c2?0?55?49604644@ 0046e7d0     reducetostream.obj
 0002:00006df8       ??_C@_0GOB@GEAFADIF@?5?5?5?5ps_2_x?6?5?5?5?5def?5c2?0?53?47252903@ 0046edf8     reducetostream.obj
 0002:000074e0       ??_C@_0DAJ@PKCNCKIO@?5?5?5?5ps_3_0?6?5?5?5?5def?5c2?0?51?0?50?0?50?40@ 0046f4e0     reducetostream.obj
 0002:000077f0       ??_C@_0DNG@IICLOAKC@?5?5?5?5ps_3_0?6?5?5?5?5def?5c2?0?51?0?50?0?50?40@ 0046f7f0     reducetostream.obj
 0002:00007bc8       ??_C@_0ELP@EPLGJFLA@?5?5?5?5ps_3_0?6?5?5?5?5def?5c2?0?51?0?50?0?50?40@ 0046fbc8     reducetostream.obj
 0002:00008088       ??_C@_0FKF@HNDJKPDO@?5?5?5?5ps_3_0?6?5?5?5?5def?5c2?0?51?0?50?0?51?45@ 00470088     reducetostream.obj
 0002:00008630       ??_C@_0GIK@MGAHJLML@?5?5?5?5ps_3_0?6?5?5?5?5def?5c2?0?51?0?50?0?59?45@ 00470630     reducetostream.obj
 0002:00008cc0       ??_C@_0HGP@PAHDBLPN@?5?5?5?5ps_3_0?6?5?5?5?5def?5c2?0?51?0?50?0?55?49@ 00470cc0     reducetostream.obj
 0002:00009430       ??_C@_0IFD@DBCHALJC@?5?5?5?5ps_3_0?6?5?5?5?5def?5c2?0?51?0?50?0?53?47@ 00471430     reducetostream.obj
 0002:00009c88       ??_C@_0DCN@KIODONFN@?$CB?$CBARBfp1?40?6PARAM?5c0?5?$DN?5program?4lo@ 00471c88     reducetostream.obj
 0002:00009fb8       ??_C@_0ECK@BHMEOAHC@?$CB?$CBARBfp1?40?6PARAM?5c0?5?$DN?5program?4lo@ 00471fb8     reducetostream.obj
 0002:0000a3e8       ??_C@_0FCE@LCELPDMK@?$CB?$CBARBfp1?40?6PARAM?5c0?5?$DN?5program?4lo@ 004723e8     reducetostream.obj
 0002:0000a910       ??_C@_0GBO@NFOILLKL@?$CB?$CBARBfp1?40?6PARAM?5c0?5?$DN?5program?4lo@ 00472910     reducetostream.obj
 0002:0000af30       ??_C@_0HBH@GCCOEJHD@?$CB?$CBARBfp1?40?6PARAM?5c0?5?$DN?5program?4lo@ 00472f30     reducetostream.obj
 0002:0000b648       ??_C@_0IBJ@OAAAKJJA@?$CB?$CBARBfp1?40?6PARAM?5c0?5?$DN?5program?4lo@ 00473648     reducetostream.obj
 0002:0000be68       ??_C@_0JBF@MGIKCKOK@?$CB?$CBARBfp1?40?6PARAM?5c0?5?$DN?5program?4lo@ 00473e68     reducetostream.obj
 0002:0000c780       ??_C@_0BBC@LLJNMLHE@?5?5?5?5ps_2_0?6?5?5?5?5dcl?5t0?4xy?6?5?5?5?5dcl@ 00474780     reducetostream.obj
 0002:0000c898       ??_C@_0BEI@DNDOGBGC@?5?5?5?5ps_2_0?6?5?5?5?5dcl?5t0?4xy?6?5?5?5?5dcl@ 00474898     reducetostream.obj
 0002:0000c9e0       ??_C@_0BHO@BLKHAGJM@?5?5?5?5ps_2_0?6?5?5?5?5dcl?5t0?4xy?6?5?5?5?5dcl@ 004749e0     reducetostream.obj
 0002:0000cb60       ??_C@_0BLE@PGHBOCMH@?5?5?5?5ps_2_0?6?5?5?5?5dcl?5t0?4xy?6?5?5?5?5dcl@ 00474b60     reducetostream.obj
 0002:0000cd18       ??_C@_0BOK@OKOGMDLC@?5?5?5?5ps_2_0?6?5?5?5?5dcl?5t0?4xy?6?5?5?5?5dcl@ 00474d18     reducetostream.obj
 0002:0000cf08       ??_C@_0CCA@FKJNMHF@?5?5?5?5ps_2_0?6?5?5?5?5dcl?5t0?4xy?6?5?5?5?5dcl@ 00474f08     reducetostream.obj
 0002:0000d128       ??_C@_0CFG@LKCNFHPE@?5?5?5?5ps_2_0?6?5?5?5?5dcl?5t0?4xy?6?5?5?5?5dcl@ 00475128     reducetostream.obj
 0002:0000d380       ??_C@_0BBC@CDHFFMJB@?5?5?5?5ps_2_x?6?5?5?5?5dcl?5t0?4xy?6?5?5?5?5dcl@ 00475380     reducetostream.obj
 0002:0000d498       ??_C@_0BEI@JPEHEDHL@?5?5?5?5ps_2_x?6?5?5?5?5dcl?5t0?4xy?6?5?5?5?5dcl@ 00475498     reducetostream.obj
 0002:0000d5e0       ??_C@_0BHO@KGECMGFE@?5?5?5?5ps_2_x?6?5?5?5?5dcl?5t0?4xy?6?5?5?5?5dcl@ 004755e0     reducetostream.obj
 0002:0000d760       ??_C@_0BLE@LHPNBEPI@?5?5?5?5ps_2_x?6?5?5?5?5dcl?5t0?4xy?6?5?5?5?5dcl@ 00475760     reducetostream.obj
 0002:0000d918       ??_C@_0BOK@GPCBGOKG@?5?5?5?5ps_2_x?6?5?5?5?5dcl?5t0?4xy?6?5?5?5?5dcl@ 00475918     reducetostream.obj
 0002:0000db08       ??_C@_0CCA@BJOEJBFG@?5?5?5?5ps_2_x?6?5?5?5?5dcl?5t0?4xy?6?5?5?5?5dcl@ 00475b08     reducetostream.obj
 0002:0000dd28       ??_C@_0CFG@NGHKMENN@?5?5?5?5ps_2_x?6?5?5?5?5dcl?5t0?4xy?6?5?5?5?5dcl@ 00475d28     reducetostream.obj
 0002:0000df80       ??_C@_0BBC@NFJLBIBB@?5?5?5?5ps_2_x?6?5?5?5?5dcl?5t0?4xy?6?5?5?5?5dcl@ 00475f80     reducetostream.obj
 0002:0000e098       ??_C@_0BEI@EEOFNMEB@?5?5?5?5ps_2_x?6?5?5?5?5dcl?5t0?4xy?6?5?5?5?5dcl@ 00476098     reducetostream.obj
 0002:0000e1e0       ??_C@_0BHO@JBCEHMJI@?5?5?5?5ps_2_x?6?5?5?5?5dcl?5t0?4xy?6?5?5?5?5dcl@ 004761e0     reducetostream.obj
 0002:0000e360       ??_C@_0BLE@CBECFPDF@?5?5?5?5ps_2_x?6?5?5?5?5dcl?5t0?4xy?6?5?5?5?5dcl@ 00476360     reducetostream.obj
 0002:0000e518       ??_C@_0BOK@CIKOCANI@?5?5?5?5ps_2_x?6?5?5?5?5dcl?5t0?4xy?6?5?5?5?5dcl@ 00476518     reducetostream.obj
 0002:0000e708       ??_C@_0CCA@MGCPGOKG@?5?5?5?5ps_2_x?6?5?5?5?5dcl?5t0?4xy?6?5?5?5?5dcl@ 00476708     reducetostream.obj
 0002:0000e928       ??_C@_0CFG@OJHHABKB@?5?5?5?5ps_2_x?6?5?5?5?5dcl?5t0?4xy?6?5?5?5?5dcl@ 00476928     reducetostream.obj
 0002:0000eb80       ??_C@_0BGJ@BMGKMOIK@?5?5?5?5ps_3_0?6?5?5?5?5def?5c0?0?51?0?50?0?50?0?5@ 00476b80     reducetostream.obj
 0002:0000ecf0       ??_C@_0BMH@ENMEBJLA@?5?5?5?5ps_3_0?6?5?5?5?5def?5c0?0?51?0?50?0?50?0?5@ 00476cf0     reducetostream.obj
 0002:0000eeb8       ??_C@_0CCF@PGFBAFGI@?5?5?5?5ps_3_0?6?5?5?5?5def?5c0?0?51?0?50?0?50?0?5@ 00476eb8     reducetostream.obj
 0002:0000f0e0       ??_C@_0CID@MKAMIAEF@?5?5?5?5ps_3_0?6?5?5?5?5def?5c0?0?51?0?50?0?50?0?5@ 004770e0     reducetostream.obj
 0002:0000f368       ??_C@_0COB@IGAMOJBB@?5?5?5?5ps_3_0?6?5?5?5?5def?5c0?0?51?0?50?0?50?0?5@ 00477368     reducetostream.obj
 0002:0000f650       ??_C@_0DDP@BGHNEHIP@?5?5?5?5ps_3_0?6?5?5?5?5def?5c0?0?51?0?50?0?50?0?5@ 00477650     reducetostream.obj
 0002:0000f990       ??_C@_0DJN@JALEIEBO@?5?5?5?5ps_3_0?6?5?5?5?5def?5c0?0?51?0?50?0?50?0?5@ 00477990     reducetostream.obj
 0002:0000fd30       ??_C@_0BFK@POHFHGID@?$CB?$CBARBfp1?40?6OUTPUT?5oC0?5?$DN?5result?4c@ 00477d30     reducetostream.obj
 0002:0000fe90       ??_C@_0BLD@FCAGPFOH@?$CB?$CBARBfp1?40?6OUTPUT?5oC0?5?$DN?5result?4c@ 00477e90     reducetostream.obj
 0002:00010048       ??_C@_0CAM@CDJJDKPE@?$CB?$CBARBfp1?40?6OUTPUT?5oC0?5?$DN?5result?4c@ 00478048     reducetostream.obj
 0002:00010258       ??_C@_0CGF@MCCOIMPK@?$CB?$CBARBfp1?40?6OUTPUT?5oC0?5?$DN?5result?4c@ 00478258     reducetostream.obj
 0002:000104c0       ??_C@_0CLO@DBKDDLBP@?$CB?$CBARBfp1?40?6OUTPUT?5oC0?5?$DN?5result?4c@ 004784c0     reducetostream.obj
 0002:00010780       ??_C@_0DBH@PAKGCIEK@?$CB?$CBARBfp1?40?6OUTPUT?5oC0?5?$DN?5result?4c@ 00478780     reducetostream.obj
 0002:00010a98       ??_C@_0DHA@ODDIMMIA@?$CB?$CBARBfp1?40?6OUTPUT?5oC0?5?$DN?5result?4c@ 00478a98     reducetostream.obj
 0002:00010e08       ??_C@_0M@OIMLFOFH@BRT_RUNTIME?$AA@ 00478e08     brook:brt.obj
 0002:00010e14       __real@c9e12cc1            00478e14     brook:brt.obj
 0002:00010e18       ??_C@_01CELHOKLL@?$HN?$AA@ 00478e18     brook:brt.obj
 0002:00010e1c       ??_C@_03OJHLLCGB@inf?$AA@  00478e1c     brook:brt.obj
 0002:00010e20       ??_C@_03ICJPMMHB@NaN?$AA@  00478e20     brook:brt.obj
 0002:00010e24       ??_C@_05KLHICNFN@?$CF3?42f?$AA@ 00478e24     brook:brt.obj
 0002:00010e2c       ??_C@_04CDDMLLAK@0?400?$AA@ 00478e2c     brook:brt.obj
 0002:00010e38       __real@3eb0c6f7a0b5ed8d    00478e38     brook:brt.obj
 0002:00010e40       __mask@@AbsDouble@         00478e40     brook:brt.obj
 0002:00010e50       __real@c3efffd000000000    00478e50     brook:brt.obj
 0002:00010e58       __real@43fffff000000000    00478e58     brook:brt.obj
 0002:00010e60       ??_C@_01CLKCMJKC@?5?$AA@   00478e60     brook:brt.obj
 0002:00010e64       ??_C@_01IHBHIGKO@?0?$AA@   00478e64     brook:brt.obj
 0002:00010e68       ??_C@_01HCONENDN@?$HL?$AA@ 00478e68     brook:brt.obj
 0002:00010e70       ??_7runtime_error@std@@6B@ 00478e70     brook:brt.obj
 0002:00010e7c       ??_7failure@ios_base@std@@6B@ 00478e7c     brook:brt.obj
 0002:00010e84       ??_C@_0BF@OOHOMBOF@ios_base?3?3eofbit?5set?$AA@ 00478e84     brook:brt.obj
 0002:00010e9c       ??_C@_0BG@FMKFHCIL@ios_base?3?3failbit?5set?$AA@ 00478e9c     brook:brt.obj
 0002:00010eb4       ??_C@_0BF@PHHKMMFD@ios_base?3?3badbit?5set?$AA@ 00478eb4     brook:brt.obj
 0002:00010ecc       ??_C@_0BI@CDEMMDOJ@Falling?5back?5to?5CPU?4?4?4?6?$AA@ 00478ecc     brook:brt.obj
 0002:00010ee4       ??_C@_0CC@KOIADFDP@?5?5?5?5?5?5?5?5?5?5?5?5?5?5?5?5?5?5?5?5?5?5?5?5?5?5?5?5?5?5?5?5@ 00478ee4     brook:brt.obj
